Archive member included to satisfy reference by file (symbol)

c:/chibistudio/tools/gnu tools arm embedded/11.3 2022.08/bin/../lib/gcc/arm-none-eabi/11.3.1/thumb/v7e-m/nofp\libg.a(libc_a-malloc.o)
                              C:\Users\Ridwane\AppData\Local\Temp\ccbHz2Im.ltrans1.ltrans.o (malloc)
c:/chibistudio/tools/gnu tools arm embedded/11.3 2022.08/bin/../lib/gcc/arm-none-eabi/11.3.1/thumb/v7e-m/nofp\libg.a(libc_a-mallocr.o)
                              c:/chibistudio/tools/gnu tools arm embedded/11.3 2022.08/bin/../lib/gcc/arm-none-eabi/11.3.1/thumb/v7e-m/nofp\libg.a(libc_a-malloc.o) (_malloc_r)
c:/chibistudio/tools/gnu tools arm embedded/11.3 2022.08/bin/../lib/gcc/arm-none-eabi/11.3.1/thumb/v7e-m/nofp\libg.a(libc_a-mlock.o)
                              c:/chibistudio/tools/gnu tools arm embedded/11.3 2022.08/bin/../lib/gcc/arm-none-eabi/11.3.1/thumb/v7e-m/nofp\libg.a(libc_a-mallocr.o) (__malloc_lock)
c:/chibistudio/tools/gnu tools arm embedded/11.3 2022.08/bin/../lib/gcc/arm-none-eabi/11.3.1/thumb/v7e-m/nofp\libg.a(libc_a-memcmp.o)
                              C:\Users\Ridwane\AppData\Local\Temp\ccbHz2Im.ltrans0.ltrans.o (memcmp)
c:/chibistudio/tools/gnu tools arm embedded/11.3 2022.08/bin/../lib/gcc/arm-none-eabi/11.3.1/thumb/v7e-m/nofp\libg.a(libc_a-memmove.o)
                              C:\Users\Ridwane\AppData\Local\Temp\ccbHz2Im.ltrans1.ltrans.o (memmove)
c:/chibistudio/tools/gnu tools arm embedded/11.3 2022.08/bin/../lib/gcc/arm-none-eabi/11.3.1/thumb/v7e-m/nofp\libg.a(libc_a-memset.o)
                              C:\Users\Ridwane\AppData\Local\Temp\ccbHz2Im.ltrans0.ltrans.o (memset)
c:/chibistudio/tools/gnu tools arm embedded/11.3 2022.08/bin/../lib/gcc/arm-none-eabi/11.3.1/thumb/v7e-m/nofp\libg.a(libc_a-strncmp.o)
                              C:\Users\Ridwane\AppData\Local\Temp\ccbHz2Im.ltrans0.ltrans.o (strncmp)
c:/chibistudio/tools/gnu tools arm embedded/11.3 2022.08/bin/../lib/gcc/arm-none-eabi/11.3.1/thumb/v7e-m/nofp\libg.a(libc_a-impure.o)
                              c:/chibistudio/tools/gnu tools arm embedded/11.3 2022.08/bin/../lib/gcc/arm-none-eabi/11.3.1/thumb/v7e-m/nofp\libg.a(libc_a-malloc.o) (_impure_ptr)
c:/chibistudio/tools/gnu tools arm embedded/11.3 2022.08/bin/../lib/gcc/arm-none-eabi/11.3.1/thumb/v7e-m/nofp\libg.a(libc_a-sbrkr.o)
                              c:/chibistudio/tools/gnu tools arm embedded/11.3 2022.08/bin/../lib/gcc/arm-none-eabi/11.3.1/thumb/v7e-m/nofp\libg.a(libc_a-mallocr.o) (_sbrk_r)
c:/chibistudio/tools/gnu tools arm embedded/11.3 2022.08/bin/../lib/gcc/arm-none-eabi/11.3.1/thumb/v7e-m/nofp\libg.a(libc_a-lock.o)
                              c:/chibistudio/tools/gnu tools arm embedded/11.3 2022.08/bin/../lib/gcc/arm-none-eabi/11.3.1/thumb/v7e-m/nofp\libg.a(libc_a-mlock.o) (__retarget_lock_acquire_recursive)
c:/chibistudio/tools/gnu tools arm embedded/11.3 2022.08/bin/../lib/gcc/arm-none-eabi/11.3.1/thumb/v7e-m/nofp\libg.a(libc_a-strcmp.o)
                              C:\Users\Ridwane\AppData\Local\Temp\ccbHz2Im.ltrans1.ltrans.o (strcmp)
c:/chibistudio/tools/gnu tools arm embedded/11.3 2022.08/bin/../lib/gcc/arm-none-eabi/11.3.1/thumb/v7e-m/nofp\libg.a(libc_a-memcpy.o)
                              C:\Users\Ridwane\AppData\Local\Temp\ccbHz2Im.ltrans0.ltrans.o (memcpy)
c:/chibistudio/tools/gnu tools arm embedded/11.3 2022.08/bin/../lib/gcc/arm-none-eabi/11.3.1/thumb/v7e-m/nofp\libg.a(libc_a-freer.o)
                              c:/chibistudio/tools/gnu tools arm embedded/11.3 2022.08/bin/../lib/gcc/arm-none-eabi/11.3.1/thumb/v7e-m/nofp\libg.a(libc_a-malloc.o) (_free_r)
c:/chibistudio/tools/gnu tools arm embedded/11.3 2022.08/bin/../lib/gcc/arm-none-eabi/11.3.1/thumb/v7e-m/nofp\libg.a(libc_a-findfp.o)
                              c:/chibistudio/tools/gnu tools arm embedded/11.3 2022.08/bin/../lib/gcc/arm-none-eabi/11.3.1/thumb/v7e-m/nofp\libg.a(libc_a-impure.o) (__sf)
c:/chibistudio/tools/gnu tools arm embedded/11.3 2022.08/bin/../lib/gcc/arm-none-eabi/11.3.1/thumb/v7e-m/nofp\libg.a(libc_a-fwalk.o)
                              c:/chibistudio/tools/gnu tools arm embedded/11.3 2022.08/bin/../lib/gcc/arm-none-eabi/11.3.1/thumb/v7e-m/nofp\libg.a(libc_a-findfp.o) (_fwalk_sglue)
c:/chibistudio/tools/gnu tools arm embedded/11.3 2022.08/bin/../lib/gcc/arm-none-eabi/11.3.1/thumb/v7e-m/nofp\libg.a(libc_a-stdio.o)
                              c:/chibistudio/tools/gnu tools arm embedded/11.3 2022.08/bin/../lib/gcc/arm-none-eabi/11.3.1/thumb/v7e-m/nofp\libg.a(libc_a-findfp.o) (__sread)
c:/chibistudio/tools/gnu tools arm embedded/11.3 2022.08/bin/../lib/gcc/arm-none-eabi/11.3.1/thumb/v7e-m/nofp\libg.a(libc_a-closer.o)
                              c:/chibistudio/tools/gnu tools arm embedded/11.3 2022.08/bin/../lib/gcc/arm-none-eabi/11.3.1/thumb/v7e-m/nofp\libg.a(libc_a-stdio.o) (_close_r)
c:/chibistudio/tools/gnu tools arm embedded/11.3 2022.08/bin/../lib/gcc/arm-none-eabi/11.3.1/thumb/v7e-m/nofp\libg.a(libc_a-reent.o)
                              c:/chibistudio/tools/gnu tools arm embedded/11.3 2022.08/bin/../lib/gcc/arm-none-eabi/11.3.1/thumb/v7e-m/nofp\libg.a(libc_a-sbrkr.o) (errno)
c:/chibistudio/tools/gnu tools arm embedded/11.3 2022.08/bin/../lib/gcc/arm-none-eabi/11.3.1/thumb/v7e-m/nofp\libg.a(libc_a-lseekr.o)
                              c:/chibistudio/tools/gnu tools arm embedded/11.3 2022.08/bin/../lib/gcc/arm-none-eabi/11.3.1/thumb/v7e-m/nofp\libg.a(libc_a-stdio.o) (_lseek_r)
c:/chibistudio/tools/gnu tools arm embedded/11.3 2022.08/bin/../lib/gcc/arm-none-eabi/11.3.1/thumb/v7e-m/nofp\libg.a(libc_a-readr.o)
                              c:/chibistudio/tools/gnu tools arm embedded/11.3 2022.08/bin/../lib/gcc/arm-none-eabi/11.3.1/thumb/v7e-m/nofp\libg.a(libc_a-stdio.o) (_read_r)
c:/chibistudio/tools/gnu tools arm embedded/11.3 2022.08/bin/../lib/gcc/arm-none-eabi/11.3.1/thumb/v7e-m/nofp\libg.a(libc_a-writer.o)
                              c:/chibistudio/tools/gnu tools arm embedded/11.3 2022.08/bin/../lib/gcc/arm-none-eabi/11.3.1/thumb/v7e-m/nofp\libg.a(libc_a-stdio.o) (_write_r)
c:/chibistudio/tools/gnu tools arm embedded/11.3 2022.08/bin/../lib/gcc/arm-none-eabi/11.3.1/thumb/v7e-m/nofp\libg.a(libc_a-fclose.o)
                              c:/chibistudio/tools/gnu tools arm embedded/11.3 2022.08/bin/../lib/gcc/arm-none-eabi/11.3.1/thumb/v7e-m/nofp\libg.a(libc_a-findfp.o) (_fclose_r)
c:/chibistudio/tools/gnu tools arm embedded/11.3 2022.08/bin/../lib/gcc/arm-none-eabi/11.3.1/thumb/v7e-m/nofp\libg.a(libc_a-fflush.o)
                              c:/chibistudio/tools/gnu tools arm embedded/11.3 2022.08/bin/../lib/gcc/arm-none-eabi/11.3.1/thumb/v7e-m/nofp\libg.a(libc_a-fclose.o) (__sflush_r)

Discarded input sections

 .data          0x00000000        0x0 ./build/obj/crt0_v7m.o
 .bss           0x00000000        0x0 ./build/obj/crt0_v7m.o
 .data          0x00000000        0x0 ./build/obj/vectors.o
 .bss           0x00000000        0x0 ./build/obj/vectors.o
 .data          0x00000000        0x0 ./build/obj/chcoreasm.o
 .bss           0x00000000        0x0 ./build/obj/chcoreasm.o
 .text          0x00000000        0x0 C:\Users\Ridwane\AppData\Local\Temp\ccbHz2Im.ltrans0.ltrans.o
 .data          0x00000000        0x0 C:\Users\Ridwane\AppData\Local\Temp\ccbHz2Im.ltrans0.ltrans.o
 .bss           0x00000000        0x0 C:\Users\Ridwane\AppData\Local\Temp\ccbHz2Im.ltrans0.ltrans.o
 .text          0x00000000        0x0 C:\Users\Ridwane\AppData\Local\Temp\ccbHz2Im.ltrans1.ltrans.o
 .data          0x00000000        0x0 C:\Users\Ridwane\AppData\Local\Temp\ccbHz2Im.ltrans1.ltrans.o
 .bss           0x00000000        0x0 C:\Users\Ridwane\AppData\Local\Temp\ccbHz2Im.ltrans1.ltrans.o
 .text.falcon_inner_fpr_sqrt
                0x00000000      0x748 C:\Users\Ridwane\AppData\Local\Temp\ccbHz2Im.ltrans1.ltrans.o
 .comment       0x00000000       0x34 C:\Users\Ridwane\AppData\Local\Temp\cc77RtQY.debug.temp.o
 .comment       0x00000000       0x34 C:\Users\Ridwane\AppData\Local\Temp\ccAV2byo.debug.temp.o
 .comment       0x00000000       0x34 C:\Users\Ridwane\AppData\Local\Temp\ccHXeggN.debug.temp.o
 .debug_info    0x00000000      0xbbe C:\Users\Ridwane\AppData\Local\Temp\cc8Jzz0b.debug.temp.o
 .debug_abbrev  0x00000000      0x1f4 C:\Users\Ridwane\AppData\Local\Temp\cc8Jzz0b.debug.temp.o
 .debug_line    0x00000000       0xaf C:\Users\Ridwane\AppData\Local\Temp\cc8Jzz0b.debug.temp.o
 .debug_str     0x00000000      0x780 C:\Users\Ridwane\AppData\Local\Temp\cc8Jzz0b.debug.temp.o
 .debug_line_str
                0x00000000      0x308 C:\Users\Ridwane\AppData\Local\Temp\cc8Jzz0b.debug.temp.o
 .comment       0x00000000       0x34 C:\Users\Ridwane\AppData\Local\Temp\cc8Jzz0b.debug.temp.o
 .debug_info    0x00000000      0x95a C:\Users\Ridwane\AppData\Local\Temp\ccPokwGA.debug.temp.o
 .debug_abbrev  0x00000000      0x209 C:\Users\Ridwane\AppData\Local\Temp\ccPokwGA.debug.temp.o
 .debug_line    0x00000000       0xa4 C:\Users\Ridwane\AppData\Local\Temp\ccPokwGA.debug.temp.o
 .debug_str     0x00000000      0x5b7 C:\Users\Ridwane\AppData\Local\Temp\ccPokwGA.debug.temp.o
 .debug_line_str
                0x00000000      0x32d C:\Users\Ridwane\AppData\Local\Temp\ccPokwGA.debug.temp.o
 .comment       0x00000000       0x34 C:\Users\Ridwane\AppData\Local\Temp\ccPokwGA.debug.temp.o
 .comment       0x00000000       0x34 C:\Users\Ridwane\AppData\Local\Temp\ccGCsLxZ.debug.temp.o
 .debug_info    0x00000000      0x5a5 C:\Users\Ridwane\AppData\Local\Temp\ccrV6Uqo.debug.temp.o
 .debug_abbrev  0x00000000      0x15f C:\Users\Ridwane\AppData\Local\Temp\ccrV6Uqo.debug.temp.o
 .debug_line    0x00000000       0x75 C:\Users\Ridwane\AppData\Local\Temp\ccrV6Uqo.debug.temp.o
 .debug_str     0x00000000      0x518 C:\Users\Ridwane\AppData\Local\Temp\ccrV6Uqo.debug.temp.o
 .debug_line_str
                0x00000000      0x231 C:\Users\Ridwane\AppData\Local\Temp\ccrV6Uqo.debug.temp.o
 .comment       0x00000000       0x34 C:\Users\Ridwane\AppData\Local\Temp\ccrV6Uqo.debug.temp.o
 .debug_info    0x00000000       0x7a C:\Users\Ridwane\AppData\Local\Temp\ccC36fdN.debug.temp.o
 .debug_abbrev  0x00000000       0x26 C:\Users\Ridwane\AppData\Local\Temp\ccC36fdN.debug.temp.o
 .debug_line    0x00000000       0x31 C:\Users\Ridwane\AppData\Local\Temp\ccC36fdN.debug.temp.o
 .debug_str     0x00000000      0x1a4 C:\Users\Ridwane\AppData\Local\Temp\ccC36fdN.debug.temp.o
 .debug_line_str
                0x00000000       0x4e C:\Users\Ridwane\AppData\Local\Temp\ccC36fdN.debug.temp.o
 .comment       0x00000000       0x34 C:\Users\Ridwane\AppData\Local\Temp\ccC36fdN.debug.temp.o
 .debug_info    0x00000000      0x2e8 C:\Users\Ridwane\AppData\Local\Temp\cc39H6cc.debug.temp.o
 .debug_abbrev  0x00000000      0x136 C:\Users\Ridwane\AppData\Local\Temp\cc39H6cc.debug.temp.o
 .debug_line    0x00000000       0x6c C:\Users\Ridwane\AppData\Local\Temp\cc39H6cc.debug.temp.o
 .debug_str     0x00000000      0x2a2 C:\Users\Ridwane\AppData\Local\Temp\cc39H6cc.debug.temp.o
 .debug_line_str
                0x00000000      0x206 C:\Users\Ridwane\AppData\Local\Temp\cc39H6cc.debug.temp.o
 .comment       0x00000000       0x34 C:\Users\Ridwane\AppData\Local\Temp\cc39H6cc.debug.temp.o
 .comment       0x00000000       0x34 C:\Users\Ridwane\AppData\Local\Temp\ccmmEpfB.debug.temp.o
 .comment       0x00000000       0x34 C:\Users\Ridwane\AppData\Local\Temp\ccZssOc0.debug.temp.o
 .comment       0x00000000       0x34 C:\Users\Ridwane\AppData\Local\Temp\ccWDpJnp.debug.temp.o
 .comment       0x00000000       0x34 C:\Users\Ridwane\AppData\Local\Temp\cc9GMhuO.debug.temp.o
 .debug_info    0x00000000       0x7a C:\Users\Ridwane\AppData\Local\Temp\ccYn4vwc.debug.temp.o
 .debug_abbrev  0x00000000       0x26 C:\Users\Ridwane\AppData\Local\Temp\ccYn4vwc.debug.temp.o
 .debug_line    0x00000000       0x31 C:\Users\Ridwane\AppData\Local\Temp\ccYn4vwc.debug.temp.o
 .debug_str     0x00000000      0x1b8 C:\Users\Ridwane\AppData\Local\Temp\ccYn4vwc.debug.temp.o
 .debug_line_str
                0x00000000       0x62 C:\Users\Ridwane\AppData\Local\Temp\ccYn4vwc.debug.temp.o
 .comment       0x00000000       0x34 C:\Users\Ridwane\AppData\Local\Temp\ccYn4vwc.debug.temp.o
 .debug_info    0x00000000       0x7a C:\Users\Ridwane\AppData\Local\Temp\cc7QxgBA.debug.temp.o
 .debug_abbrev  0x00000000       0x26 C:\Users\Ridwane\AppData\Local\Temp\cc7QxgBA.debug.temp.o
 .debug_line    0x00000000       0x31 C:\Users\Ridwane\AppData\Local\Temp\cc7QxgBA.debug.temp.o
 .debug_str     0x00000000      0x1b6 C:\Users\Ridwane\AppData\Local\Temp\cc7QxgBA.debug.temp.o
 .debug_line_str
                0x00000000       0x60 C:\Users\Ridwane\AppData\Local\Temp\cc7QxgBA.debug.temp.o
 .comment       0x00000000       0x34 C:\Users\Ridwane\AppData\Local\Temp\cc7QxgBA.debug.temp.o
 .debug_info    0x00000000       0x7a C:\Users\Ridwane\AppData\Local\Temp\ccWpFrTY.debug.temp.o
 .debug_abbrev  0x00000000       0x26 C:\Users\Ridwane\AppData\Local\Temp\ccWpFrTY.debug.temp.o
 .debug_line    0x00000000       0x31 C:\Users\Ridwane\AppData\Local\Temp\ccWpFrTY.debug.temp.o
 .debug_str     0x00000000      0x1b8 C:\Users\Ridwane\AppData\Local\Temp\ccWpFrTY.debug.temp.o
 .debug_line_str
                0x00000000       0x62 C:\Users\Ridwane\AppData\Local\Temp\ccWpFrTY.debug.temp.o
 .comment       0x00000000       0x34 C:\Users\Ridwane\AppData\Local\Temp\ccWpFrTY.debug.temp.o
 .comment       0x00000000       0x34 C:\Users\Ridwane\AppData\Local\Temp\cchVUx4m.debug.temp.o
 .comment       0x00000000       0x34 C:\Users\Ridwane\AppData\Local\Temp\cccVyttL.debug.temp.o
 .comment       0x00000000       0x34 C:\Users\Ridwane\AppData\Local\Temp\cc57jBU9.debug.temp.o
 .comment       0x00000000       0x34 C:\Users\Ridwane\AppData\Local\Temp\cc2CpRey.debug.temp.o
 .debug_info    0x00000000       0x7a C:\Users\Ridwane\AppData\Local\Temp\ccrmHnMW.debug.temp.o
 .debug_abbrev  0x00000000       0x26 C:\Users\Ridwane\AppData\Local\Temp\ccrmHnMW.debug.temp.o
 .debug_line    0x00000000       0x31 C:\Users\Ridwane\AppData\Local\Temp\ccrmHnMW.debug.temp.o
 .debug_str     0x00000000      0x1a7 C:\Users\Ridwane\AppData\Local\Temp\ccrmHnMW.debug.temp.o
 .debug_line_str
                0x00000000       0x51 C:\Users\Ridwane\AppData\Local\Temp\ccrmHnMW.debug.temp.o
 .comment       0x00000000       0x34 C:\Users\Ridwane\AppData\Local\Temp\ccrmHnMW.debug.temp.o
 .comment       0x00000000       0x34 C:\Users\Ridwane\AppData\Local\Temp\ccUFKvfl.debug.temp.o
 .comment       0x00000000       0x34 C:\Users\Ridwane\AppData\Local\Temp\ccvXOZKJ.debug.temp.o
 .debug_info    0x00000000       0x7a C:\Users\Ridwane\AppData\Local\Temp\ccQmBUi7.debug.temp.o
 .debug_abbrev  0x00000000       0x26 C:\Users\Ridwane\AppData\Local\Temp\ccQmBUi7.debug.temp.o
 .debug_line    0x00000000       0x31 C:\Users\Ridwane\AppData\Local\Temp\ccQmBUi7.debug.temp.o
 .debug_str     0x00000000      0x1a1 C:\Users\Ridwane\AppData\Local\Temp\ccQmBUi7.debug.temp.o
 .debug_line_str
                0x00000000       0x4b C:\Users\Ridwane\AppData\Local\Temp\ccQmBUi7.debug.temp.o
 .comment       0x00000000       0x34 C:\Users\Ridwane\AppData\Local\Temp\ccQmBUi7.debug.temp.o
 .debug_info    0x00000000       0x7a C:\Users\Ridwane\AppData\Local\Temp\ccxNCtMu.debug.temp.o
 .debug_abbrev  0x00000000       0x26 C:\Users\Ridwane\AppData\Local\Temp\ccxNCtMu.debug.temp.o
 .debug_line    0x00000000       0x31 C:\Users\Ridwane\AppData\Local\Temp\ccxNCtMu.debug.temp.o
 .debug_str     0x00000000      0x1a1 C:\Users\Ridwane\AppData\Local\Temp\ccxNCtMu.debug.temp.o
 .debug_line_str
                0x00000000       0x4b C:\Users\Ridwane\AppData\Local\Temp\ccxNCtMu.debug.temp.o
 .comment       0x00000000       0x34 C:\Users\Ridwane\AppData\Local\Temp\ccxNCtMu.debug.temp.o
 .comment       0x00000000       0x34 C:\Users\Ridwane\AppData\Local\Temp\ccmG8fiS.debug.temp.o
 .comment       0x00000000       0x34 C:\Users\Ridwane\AppData\Local\Temp\cclmng1f.debug.temp.o
 .comment       0x00000000       0x34 C:\Users\Ridwane\AppData\Local\Temp\ccSBDSDD.debug.temp.o
 .comment       0x00000000       0x34 C:\Users\Ridwane\AppData\Local\Temp\ccXKrUt1.debug.temp.o
 .comment       0x00000000       0x34 C:\Users\Ridwane\AppData\Local\Temp\ccwxYUep.debug.temp.o
 .comment       0x00000000       0x34 C:\Users\Ridwane\AppData\Local\Temp\ccdMZ81M.debug.temp.o
 .comment       0x00000000       0x34 C:\Users\Ridwane\AppData\Local\Temp\ccidLa3a.debug.temp.o
 .comment       0x00000000       0x34 C:\Users\Ridwane\AppData\Local\Temp\ccvgKgZy.debug.temp.o
 .comment       0x00000000       0x34 C:\Users\Ridwane\AppData\Local\Temp\ccsPjFC0.debug.temp.o
 .comment       0x00000000       0x34 C:\Users\Ridwane\AppData\Local\Temp\ccFgjHbs.debug.temp.o
 .comment       0x00000000       0x34 C:\Users\Ridwane\AppData\Local\Temp\cc8DQXXT.debug.temp.o
 .comment       0x00000000       0x34 C:\Users\Ridwane\AppData\Local\Temp\ccPCHsMl.debug.temp.o
 .comment       0x00000000       0x34 C:\Users\Ridwane\AppData\Local\Temp\ccGk9zwN.debug.temp.o
 .comment       0x00000000       0x34 C:\Users\Ridwane\AppData\Local\Temp\ccR6Jduf.debug.temp.o
 .comment       0x00000000       0x34 C:\Users\Ridwane\AppData\Local\Temp\ccavyVmH.debug.temp.o
 .comment       0x00000000       0x34 C:\Users\Ridwane\AppData\Local\Temp\ccR56qt9.debug.temp.o
 .comment       0x00000000       0x34 C:\Users\Ridwane\AppData\Local\Temp\ccikgVvB.debug.temp.o
 .comment       0x00000000       0x34 C:\Users\Ridwane\AppData\Local\Temp\ccdm1lB2.debug.temp.o
 .comment       0x00000000       0x34 C:\Users\Ridwane\AppData\Local\Temp\cc6c3pBt.debug.temp.o
 .comment       0x00000000       0x34 C:\Users\Ridwane\AppData\Local\Temp\cc7x8uMU.debug.temp.o
 .comment       0x00000000       0x34 C:\Users\Ridwane\AppData\Local\Temp\cckD2VSl.debug.temp.o
 .comment       0x00000000       0x34 C:\Users\Ridwane\AppData\Local\Temp\ccVUGadN.debug.temp.o
 .comment       0x00000000       0x34 C:\Users\Ridwane\AppData\Local\Temp\ccIYIyBe.debug.temp.o
 .comment       0x00000000       0x34 C:\Users\Ridwane\AppData\Local\Temp\ccJ94MTF.debug.temp.o
 .comment       0x00000000       0x34 C:\Users\Ridwane\AppData\Local\Temp\ccYHb7o7.debug.temp.o
 .comment       0x00000000       0x34 C:\Users\Ridwane\AppData\Local\Temp\cclSvvPy.debug.temp.o
 .comment       0x00000000       0x34 C:\Users\Ridwane\AppData\Local\Temp\ccG32LiZ.debug.temp.o
 .comment       0x00000000       0x34 C:\Users\Ridwane\AppData\Local\Temp\ccjYuyOp.debug.temp.o
 .comment       0x00000000       0x34 C:\Users\Ridwane\AppData\Local\Temp\ccYnoFfQ.debug.temp.o
 .comment       0x00000000       0x34 C:\Users\Ridwane\AppData\Local\Temp\ccRqaORg.debug.temp.o
 .comment       0x00000000       0x34 C:\Users\Ridwane\AppData\Local\Temp\ccmVqUpH.debug.temp.o
 .comment       0x00000000       0x34 C:\Users\Ridwane\AppData\Local\Temp\ccDC7ab8.debug.temp.o
 .comment       0x00000000       0x34 C:\Users\Ridwane\AppData\Local\Temp\cc2V1vRy.debug.temp.o
 .comment       0x00000000       0x34 C:\Users\Ridwane\AppData\Local\Temp\ccDP1lAZ.debug.temp.o
 .comment       0x00000000       0x34 C:\Users\Ridwane\AppData\Local\Temp\ccyNaIwq.debug.temp.o
 .comment       0x00000000       0x34 C:\Users\Ridwane\AppData\Local\Temp\ccbS9apR.debug.temp.o
 .comment       0x00000000       0x34 C:\Users\Ridwane\AppData\Local\Temp\ccwXtwjh.debug.temp.o
 .comment       0x00000000       0x34 C:\Users\Ridwane\AppData\Local\Temp\ccz3u98G.debug.temp.o
 .comment       0x00000000       0x34 C:\Users\Ridwane\AppData\Local\Temp\ccWdFic7.debug.temp.o
 .comment       0x00000000       0x34 C:\Users\Ridwane\AppData\Local\Temp\cczgf5ax.debug.temp.o
 .comment       0x00000000       0x34 C:\Users\Ridwane\AppData\Local\Temp\ccuEVRlX.debug.temp.o
 .comment       0x00000000       0x34 C:\Users\Ridwane\AppData\Local\Temp\cc1Nk6qn.debug.temp.o
 .comment       0x00000000       0x34 C:\Users\Ridwane\AppData\Local\Temp\ccmhx3JN.debug.temp.o
 .comment       0x00000000       0x34 C:\Users\Ridwane\AppData\Local\Temp\ccPmX4Xd.debug.temp.o
 .comment       0x00000000       0x34 C:\Users\Ridwane\AppData\Local\Temp\ccaqsCVH.debug.temp.o
 .comment       0x00000000       0x34 C:\Users\Ridwane\AppData\Local\Temp\ccLlnNOb.debug.temp.o
 .comment       0x00000000       0x34 C:\Users\Ridwane\AppData\Local\Temp\ccy3F7LF.debug.temp.o
 .comment       0x00000000       0x34 C:\Users\Ridwane\AppData\Local\Temp\ccJXIfX9.debug.temp.o
 .comment       0x00000000       0x34 C:\Users\Ridwane\AppData\Local\Temp\ccY95v1D.debug.temp.o
 .comment       0x00000000       0x34 C:\Users\Ridwane\AppData\Local\Temp\ccHFZjj8.debug.temp.o
 .debug_info    0x00000000      0x64f C:\Users\Ridwane\AppData\Local\Temp\ccsGkswC.debug.temp.o
 .debug_abbrev  0x00000000      0x1e3 C:\Users\Ridwane\AppData\Local\Temp\ccsGkswC.debug.temp.o
 .debug_line    0x00000000       0x5b C:\Users\Ridwane\AppData\Local\Temp\ccsGkswC.debug.temp.o
 .debug_str     0x00000000      0x3b7 C:\Users\Ridwane\AppData\Local\Temp\ccsGkswC.debug.temp.o
 .debug_line_str
                0x00000000      0x168 C:\Users\Ridwane\AppData\Local\Temp\ccsGkswC.debug.temp.o
 .comment       0x00000000       0x34 C:\Users\Ridwane\AppData\Local\Temp\ccsGkswC.debug.temp.o
 .comment       0x00000000       0x34 C:\Users\Ridwane\AppData\Local\Temp\ccB5H2Y6.debug.temp.o
 .comment       0x00000000       0x34 C:\Users\Ridwane\AppData\Local\Temp\cc8mduwA.debug.temp.o
 .comment       0x00000000       0x34 C:\Users\Ridwane\AppData\Local\Temp\cc3YCM13.debug.temp.o
 .debug_info    0x00000000      0x54b C:\Users\Ridwane\AppData\Local\Temp\ccmXvJDx.debug.temp.o
 .debug_abbrev  0x00000000      0x237 C:\Users\Ridwane\AppData\Local\Temp\ccmXvJDx.debug.temp.o
 .debug_line    0x00000000       0x64 C:\Users\Ridwane\AppData\Local\Temp\ccmXvJDx.debug.temp.o
 .debug_str     0x00000000      0x362 C:\Users\Ridwane\AppData\Local\Temp\ccmXvJDx.debug.temp.o
 .debug_line_str
                0x00000000      0x1bd C:\Users\Ridwane\AppData\Local\Temp\ccmXvJDx.debug.temp.o
 .comment       0x00000000       0x34 C:\Users\Ridwane\AppData\Local\Temp\ccmXvJDx.debug.temp.o
 .comment       0x00000000       0x34 C:\Users\Ridwane\AppData\Local\Temp\ccB7h9h1.debug.temp.o
 .comment       0x00000000       0x34 C:\Users\Ridwane\AppData\Local\Temp\cciudy9u.debug.temp.o
 .text          0x00000000        0x0 c:/chibistudio/tools/gnu tools arm embedded/11.3 2022.08/bin/../lib/gcc/arm-none-eabi/11.3.1/thumb/v7e-m/nofp\libg.a(libc_a-malloc.o)
 .data          0x00000000        0x0 c:/chibistudio/tools/gnu tools arm embedded/11.3 2022.08/bin/../lib/gcc/arm-none-eabi/11.3.1/thumb/v7e-m/nofp\libg.a(libc_a-malloc.o)
 .bss           0x00000000        0x0 c:/chibistudio/tools/gnu tools arm embedded/11.3 2022.08/bin/../lib/gcc/arm-none-eabi/11.3.1/thumb/v7e-m/nofp\libg.a(libc_a-malloc.o)
 .text.free     0x00000000       0x10 c:/chibistudio/tools/gnu tools arm embedded/11.3 2022.08/bin/../lib/gcc/arm-none-eabi/11.3.1/thumb/v7e-m/nofp\libg.a(libc_a-malloc.o)
 .text          0x00000000        0x0 c:/chibistudio/tools/gnu tools arm embedded/11.3 2022.08/bin/../lib/gcc/arm-none-eabi/11.3.1/thumb/v7e-m/nofp\libg.a(libc_a-mallocr.o)
 .data          0x00000000        0x0 c:/chibistudio/tools/gnu tools arm embedded/11.3 2022.08/bin/../lib/gcc/arm-none-eabi/11.3.1/thumb/v7e-m/nofp\libg.a(libc_a-mallocr.o)
 .bss           0x00000000        0x0 c:/chibistudio/tools/gnu tools arm embedded/11.3 2022.08/bin/../lib/gcc/arm-none-eabi/11.3.1/thumb/v7e-m/nofp\libg.a(libc_a-mallocr.o)
 .text          0x00000000        0x0 c:/chibistudio/tools/gnu tools arm embedded/11.3 2022.08/bin/../lib/gcc/arm-none-eabi/11.3.1/thumb/v7e-m/nofp\libg.a(libc_a-mlock.o)
 .data          0x00000000        0x0 c:/chibistudio/tools/gnu tools arm embedded/11.3 2022.08/bin/../lib/gcc/arm-none-eabi/11.3.1/thumb/v7e-m/nofp\libg.a(libc_a-mlock.o)
 .bss           0x00000000        0x0 c:/chibistudio/tools/gnu tools arm embedded/11.3 2022.08/bin/../lib/gcc/arm-none-eabi/11.3.1/thumb/v7e-m/nofp\libg.a(libc_a-mlock.o)
 .text          0x00000000        0x0 c:/chibistudio/tools/gnu tools arm embedded/11.3 2022.08/bin/../lib/gcc/arm-none-eabi/11.3.1/thumb/v7e-m/nofp\libg.a(libc_a-memcmp.o)
 .data          0x00000000        0x0 c:/chibistudio/tools/gnu tools arm embedded/11.3 2022.08/bin/../lib/gcc/arm-none-eabi/11.3.1/thumb/v7e-m/nofp\libg.a(libc_a-memcmp.o)
 .bss           0x00000000        0x0 c:/chibistudio/tools/gnu tools arm embedded/11.3 2022.08/bin/../lib/gcc/arm-none-eabi/11.3.1/thumb/v7e-m/nofp\libg.a(libc_a-memcmp.o)
 .text          0x00000000        0x0 c:/chibistudio/tools/gnu tools arm embedded/11.3 2022.08/bin/../lib/gcc/arm-none-eabi/11.3.1/thumb/v7e-m/nofp\libg.a(libc_a-memmove.o)
 .data          0x00000000        0x0 c:/chibistudio/tools/gnu tools arm embedded/11.3 2022.08/bin/../lib/gcc/arm-none-eabi/11.3.1/thumb/v7e-m/nofp\libg.a(libc_a-memmove.o)
 .bss           0x00000000        0x0 c:/chibistudio/tools/gnu tools arm embedded/11.3 2022.08/bin/../lib/gcc/arm-none-eabi/11.3.1/thumb/v7e-m/nofp\libg.a(libc_a-memmove.o)
 .text          0x00000000        0x0 c:/chibistudio/tools/gnu tools arm embedded/11.3 2022.08/bin/../lib/gcc/arm-none-eabi/11.3.1/thumb/v7e-m/nofp\libg.a(libc_a-memset.o)
 .data          0x00000000        0x0 c:/chibistudio/tools/gnu tools arm embedded/11.3 2022.08/bin/../lib/gcc/arm-none-eabi/11.3.1/thumb/v7e-m/nofp\libg.a(libc_a-memset.o)
 .bss           0x00000000        0x0 c:/chibistudio/tools/gnu tools arm embedded/11.3 2022.08/bin/../lib/gcc/arm-none-eabi/11.3.1/thumb/v7e-m/nofp\libg.a(libc_a-memset.o)
 .text          0x00000000        0x0 c:/chibistudio/tools/gnu tools arm embedded/11.3 2022.08/bin/../lib/gcc/arm-none-eabi/11.3.1/thumb/v7e-m/nofp\libg.a(libc_a-strncmp.o)
 .data          0x00000000        0x0 c:/chibistudio/tools/gnu tools arm embedded/11.3 2022.08/bin/../lib/gcc/arm-none-eabi/11.3.1/thumb/v7e-m/nofp\libg.a(libc_a-strncmp.o)
 .bss           0x00000000        0x0 c:/chibistudio/tools/gnu tools arm embedded/11.3 2022.08/bin/../lib/gcc/arm-none-eabi/11.3.1/thumb/v7e-m/nofp\libg.a(libc_a-strncmp.o)
 .text          0x00000000        0x0 c:/chibistudio/tools/gnu tools arm embedded/11.3 2022.08/bin/../lib/gcc/arm-none-eabi/11.3.1/thumb/v7e-m/nofp\libg.a(libc_a-impure.o)
 .data          0x00000000        0x0 c:/chibistudio/tools/gnu tools arm embedded/11.3 2022.08/bin/../lib/gcc/arm-none-eabi/11.3.1/thumb/v7e-m/nofp\libg.a(libc_a-impure.o)
 .bss           0x00000000        0x0 c:/chibistudio/tools/gnu tools arm embedded/11.3 2022.08/bin/../lib/gcc/arm-none-eabi/11.3.1/thumb/v7e-m/nofp\libg.a(libc_a-impure.o)
 .text          0x00000000        0x0 c:/chibistudio/tools/gnu tools arm embedded/11.3 2022.08/bin/../lib/gcc/arm-none-eabi/11.3.1/thumb/v7e-m/nofp\libg.a(libc_a-sbrkr.o)
 .data          0x00000000        0x0 c:/chibistudio/tools/gnu tools arm embedded/11.3 2022.08/bin/../lib/gcc/arm-none-eabi/11.3.1/thumb/v7e-m/nofp\libg.a(libc_a-sbrkr.o)
 .bss           0x00000000        0x0 c:/chibistudio/tools/gnu tools arm embedded/11.3 2022.08/bin/../lib/gcc/arm-none-eabi/11.3.1/thumb/v7e-m/nofp\libg.a(libc_a-sbrkr.o)
 .text          0x00000000        0x0 c:/chibistudio/tools/gnu tools arm embedded/11.3 2022.08/bin/../lib/gcc/arm-none-eabi/11.3.1/thumb/v7e-m/nofp\libg.a(libc_a-lock.o)
 .data          0x00000000        0x0 c:/chibistudio/tools/gnu tools arm embedded/11.3 2022.08/bin/../lib/gcc/arm-none-eabi/11.3.1/thumb/v7e-m/nofp\libg.a(libc_a-lock.o)
 .bss           0x00000000        0x0 c:/chibistudio/tools/gnu tools arm embedded/11.3 2022.08/bin/../lib/gcc/arm-none-eabi/11.3.1/thumb/v7e-m/nofp\libg.a(libc_a-lock.o)
 .text.__retarget_lock_init
                0x00000000        0x4 c:/chibistudio/tools/gnu tools arm embedded/11.3 2022.08/bin/../lib/gcc/arm-none-eabi/11.3.1/thumb/v7e-m/nofp\libg.a(libc_a-lock.o)
 .text.__retarget_lock_init_recursive
                0x00000000        0x4 c:/chibistudio/tools/gnu tools arm embedded/11.3 2022.08/bin/../lib/gcc/arm-none-eabi/11.3.1/thumb/v7e-m/nofp\libg.a(libc_a-lock.o)
 .text.__retarget_lock_close
                0x00000000        0x4 c:/chibistudio/tools/gnu tools arm embedded/11.3 2022.08/bin/../lib/gcc/arm-none-eabi/11.3.1/thumb/v7e-m/nofp\libg.a(libc_a-lock.o)
 .text.__retarget_lock_close_recursive
                0x00000000        0x4 c:/chibistudio/tools/gnu tools arm embedded/11.3 2022.08/bin/../lib/gcc/arm-none-eabi/11.3.1/thumb/v7e-m/nofp\libg.a(libc_a-lock.o)
 .text.__retarget_lock_acquire
                0x00000000        0x4 c:/chibistudio/tools/gnu tools arm embedded/11.3 2022.08/bin/../lib/gcc/arm-none-eabi/11.3.1/thumb/v7e-m/nofp\libg.a(libc_a-lock.o)
 .text.__retarget_lock_try_acquire
                0x00000000        0x4 c:/chibistudio/tools/gnu tools arm embedded/11.3 2022.08/bin/../lib/gcc/arm-none-eabi/11.3.1/thumb/v7e-m/nofp\libg.a(libc_a-lock.o)
 .text.__retarget_lock_try_acquire_recursive
                0x00000000        0x4 c:/chibistudio/tools/gnu tools arm embedded/11.3 2022.08/bin/../lib/gcc/arm-none-eabi/11.3.1/thumb/v7e-m/nofp\libg.a(libc_a-lock.o)
 .text.__retarget_lock_release
                0x00000000        0x4 c:/chibistudio/tools/gnu tools arm embedded/11.3 2022.08/bin/../lib/gcc/arm-none-eabi/11.3.1/thumb/v7e-m/nofp\libg.a(libc_a-lock.o)
 .bss.__lock___arc4random_mutex
                0x00000000        0x1 c:/chibistudio/tools/gnu tools arm embedded/11.3 2022.08/bin/../lib/gcc/arm-none-eabi/11.3.1/thumb/v7e-m/nofp\libg.a(libc_a-lock.o)
 .bss.__lock___at_quick_exit_mutex
                0x00000000        0x1 c:/chibistudio/tools/gnu tools arm embedded/11.3 2022.08/bin/../lib/gcc/arm-none-eabi/11.3.1/thumb/v7e-m/nofp\libg.a(libc_a-lock.o)
 .bss.__lock___atexit_recursive_mutex
                0x00000000        0x1 c:/chibistudio/tools/gnu tools arm embedded/11.3 2022.08/bin/../lib/gcc/arm-none-eabi/11.3.1/thumb/v7e-m/nofp\libg.a(libc_a-lock.o)
 .bss.__lock___dd_hash_mutex
                0x00000000        0x1 c:/chibistudio/tools/gnu tools arm embedded/11.3 2022.08/bin/../lib/gcc/arm-none-eabi/11.3.1/thumb/v7e-m/nofp\libg.a(libc_a-lock.o)
 .bss.__lock___env_recursive_mutex
                0x00000000        0x1 c:/chibistudio/tools/gnu tools arm embedded/11.3 2022.08/bin/../lib/gcc/arm-none-eabi/11.3.1/thumb/v7e-m/nofp\libg.a(libc_a-lock.o)
 .bss.__lock___sfp_recursive_mutex
                0x00000000        0x1 c:/chibistudio/tools/gnu tools arm embedded/11.3 2022.08/bin/../lib/gcc/arm-none-eabi/11.3.1/thumb/v7e-m/nofp\libg.a(libc_a-lock.o)
 .bss.__lock___tz_mutex
                0x00000000        0x1 c:/chibistudio/tools/gnu tools arm embedded/11.3 2022.08/bin/../lib/gcc/arm-none-eabi/11.3.1/thumb/v7e-m/nofp\libg.a(libc_a-lock.o)
 .data          0x00000000        0x0 c:/chibistudio/tools/gnu tools arm embedded/11.3 2022.08/bin/../lib/gcc/arm-none-eabi/11.3.1/thumb/v7e-m/nofp\libg.a(libc_a-strcmp.o)
 .bss           0x00000000        0x0 c:/chibistudio/tools/gnu tools arm embedded/11.3 2022.08/bin/../lib/gcc/arm-none-eabi/11.3.1/thumb/v7e-m/nofp\libg.a(libc_a-strcmp.o)
 .data          0x00000000        0x0 c:/chibistudio/tools/gnu tools arm embedded/11.3 2022.08/bin/../lib/gcc/arm-none-eabi/11.3.1/thumb/v7e-m/nofp\libg.a(libc_a-memcpy.o)
 .bss           0x00000000        0x0 c:/chibistudio/tools/gnu tools arm embedded/11.3 2022.08/bin/../lib/gcc/arm-none-eabi/11.3.1/thumb/v7e-m/nofp\libg.a(libc_a-memcpy.o)
 .text          0x00000000        0x0 c:/chibistudio/tools/gnu tools arm embedded/11.3 2022.08/bin/../lib/gcc/arm-none-eabi/11.3.1/thumb/v7e-m/nofp\libg.a(libc_a-freer.o)
 .data          0x00000000        0x0 c:/chibistudio/tools/gnu tools arm embedded/11.3 2022.08/bin/../lib/gcc/arm-none-eabi/11.3.1/thumb/v7e-m/nofp\libg.a(libc_a-freer.o)
 .bss           0x00000000        0x0 c:/chibistudio/tools/gnu tools arm embedded/11.3 2022.08/bin/../lib/gcc/arm-none-eabi/11.3.1/thumb/v7e-m/nofp\libg.a(libc_a-freer.o)
 .text          0x00000000        0x0 c:/chibistudio/tools/gnu tools arm embedded/11.3 2022.08/bin/../lib/gcc/arm-none-eabi/11.3.1/thumb/v7e-m/nofp\libg.a(libc_a-findfp.o)
 .data          0x00000000        0x0 c:/chibistudio/tools/gnu tools arm embedded/11.3 2022.08/bin/../lib/gcc/arm-none-eabi/11.3.1/thumb/v7e-m/nofp\libg.a(libc_a-findfp.o)
 .bss           0x00000000        0x0 c:/chibistudio/tools/gnu tools arm embedded/11.3 2022.08/bin/../lib/gcc/arm-none-eabi/11.3.1/thumb/v7e-m/nofp\libg.a(libc_a-findfp.o)
 .text.stdio_exit_handler
                0x00000000       0x18 c:/chibistudio/tools/gnu tools arm embedded/11.3 2022.08/bin/../lib/gcc/arm-none-eabi/11.3.1/thumb/v7e-m/nofp\libg.a(libc_a-findfp.o)
 .text.cleanup_stdio
                0x00000000       0x40 c:/chibistudio/tools/gnu tools arm embedded/11.3 2022.08/bin/../lib/gcc/arm-none-eabi/11.3.1/thumb/v7e-m/nofp\libg.a(libc_a-findfp.o)
 .text.__fp_lock
                0x00000000       0x1c c:/chibistudio/tools/gnu tools arm embedded/11.3 2022.08/bin/../lib/gcc/arm-none-eabi/11.3.1/thumb/v7e-m/nofp\libg.a(libc_a-findfp.o)
 .text.__fp_unlock
                0x00000000       0x1c c:/chibistudio/tools/gnu tools arm embedded/11.3 2022.08/bin/../lib/gcc/arm-none-eabi/11.3.1/thumb/v7e-m/nofp\libg.a(libc_a-findfp.o)
 .text.global_stdio_init.part.0
                0x00000000       0xd4 c:/chibistudio/tools/gnu tools arm embedded/11.3 2022.08/bin/../lib/gcc/arm-none-eabi/11.3.1/thumb/v7e-m/nofp\libg.a(libc_a-findfp.o)
 .text.__sfp    0x00000000       0xc8 c:/chibistudio/tools/gnu tools arm embedded/11.3 2022.08/bin/../lib/gcc/arm-none-eabi/11.3.1/thumb/v7e-m/nofp\libg.a(libc_a-findfp.o)
 .text.__sinit  0x00000000       0x3c c:/chibistudio/tools/gnu tools arm embedded/11.3 2022.08/bin/../lib/gcc/arm-none-eabi/11.3.1/thumb/v7e-m/nofp\libg.a(libc_a-findfp.o)
 .text.__sfp_lock_acquire
                0x00000000        0xc c:/chibistudio/tools/gnu tools arm embedded/11.3 2022.08/bin/../lib/gcc/arm-none-eabi/11.3.1/thumb/v7e-m/nofp\libg.a(libc_a-findfp.o)
 .text.__sfp_lock_release
                0x00000000        0xc c:/chibistudio/tools/gnu tools arm embedded/11.3 2022.08/bin/../lib/gcc/arm-none-eabi/11.3.1/thumb/v7e-m/nofp\libg.a(libc_a-findfp.o)
 .text.__fp_lock_all
                0x00000000       0x24 c:/chibistudio/tools/gnu tools arm embedded/11.3 2022.08/bin/../lib/gcc/arm-none-eabi/11.3.1/thumb/v7e-m/nofp\libg.a(libc_a-findfp.o)
 .text.__fp_unlock_all
                0x00000000       0x24 c:/chibistudio/tools/gnu tools arm embedded/11.3 2022.08/bin/../lib/gcc/arm-none-eabi/11.3.1/thumb/v7e-m/nofp\libg.a(libc_a-findfp.o)
 .bss.__stdio_exit_handler
                0x00000000        0x4 c:/chibistudio/tools/gnu tools arm embedded/11.3 2022.08/bin/../lib/gcc/arm-none-eabi/11.3.1/thumb/v7e-m/nofp\libg.a(libc_a-findfp.o)
 .data.__sglue  0x00000000        0xc c:/chibistudio/tools/gnu tools arm embedded/11.3 2022.08/bin/../lib/gcc/arm-none-eabi/11.3.1/thumb/v7e-m/nofp\libg.a(libc_a-findfp.o)
 .text          0x00000000        0x0 c:/chibistudio/tools/gnu tools arm embedded/11.3 2022.08/bin/../lib/gcc/arm-none-eabi/11.3.1/thumb/v7e-m/nofp\libg.a(libc_a-fwalk.o)
 .data          0x00000000        0x0 c:/chibistudio/tools/gnu tools arm embedded/11.3 2022.08/bin/../lib/gcc/arm-none-eabi/11.3.1/thumb/v7e-m/nofp\libg.a(libc_a-fwalk.o)
 .bss           0x00000000        0x0 c:/chibistudio/tools/gnu tools arm embedded/11.3 2022.08/bin/../lib/gcc/arm-none-eabi/11.3.1/thumb/v7e-m/nofp\libg.a(libc_a-fwalk.o)
 .text._fwalk_sglue
                0x00000000       0x48 c:/chibistudio/tools/gnu tools arm embedded/11.3 2022.08/bin/../lib/gcc/arm-none-eabi/11.3.1/thumb/v7e-m/nofp\libg.a(libc_a-fwalk.o)
 .debug_info    0x00000000      0x7ed c:/chibistudio/tools/gnu tools arm embedded/11.3 2022.08/bin/../lib/gcc/arm-none-eabi/11.3.1/thumb/v7e-m/nofp\libg.a(libc_a-fwalk.o)
 .debug_abbrev  0x00000000      0x1d9 c:/chibistudio/tools/gnu tools arm embedded/11.3 2022.08/bin/../lib/gcc/arm-none-eabi/11.3.1/thumb/v7e-m/nofp\libg.a(libc_a-fwalk.o)
 .debug_loclists
                0x00000000       0x95 c:/chibistudio/tools/gnu tools arm embedded/11.3 2022.08/bin/../lib/gcc/arm-none-eabi/11.3.1/thumb/v7e-m/nofp\libg.a(libc_a-fwalk.o)
 .debug_aranges
                0x00000000       0x20 c:/chibistudio/tools/gnu tools arm embedded/11.3 2022.08/bin/../lib/gcc/arm-none-eabi/11.3.1/thumb/v7e-m/nofp\libg.a(libc_a-fwalk.o)
 .debug_rnglists
                0x00000000       0x13 c:/chibistudio/tools/gnu tools arm embedded/11.3 2022.08/bin/../lib/gcc/arm-none-eabi/11.3.1/thumb/v7e-m/nofp\libg.a(libc_a-fwalk.o)
 .debug_line    0x00000000      0x252 c:/chibistudio/tools/gnu tools arm embedded/11.3 2022.08/bin/../lib/gcc/arm-none-eabi/11.3.1/thumb/v7e-m/nofp\libg.a(libc_a-fwalk.o)
 .debug_str     0x00000000      0x521 c:/chibistudio/tools/gnu tools arm embedded/11.3 2022.08/bin/../lib/gcc/arm-none-eabi/11.3.1/thumb/v7e-m/nofp\libg.a(libc_a-fwalk.o)
 .comment       0x00000000       0x34 c:/chibistudio/tools/gnu tools arm embedded/11.3 2022.08/bin/../lib/gcc/arm-none-eabi/11.3.1/thumb/v7e-m/nofp\libg.a(libc_a-fwalk.o)
 .debug_frame   0x00000000       0x34 c:/chibistudio/tools/gnu tools arm embedded/11.3 2022.08/bin/../lib/gcc/arm-none-eabi/11.3.1/thumb/v7e-m/nofp\libg.a(libc_a-fwalk.o)
 .ARM.attributes
                0x00000000       0x2e c:/chibistudio/tools/gnu tools arm embedded/11.3 2022.08/bin/../lib/gcc/arm-none-eabi/11.3.1/thumb/v7e-m/nofp\libg.a(libc_a-fwalk.o)
 .text          0x00000000        0x0 c:/chibistudio/tools/gnu tools arm embedded/11.3 2022.08/bin/../lib/gcc/arm-none-eabi/11.3.1/thumb/v7e-m/nofp\libg.a(libc_a-stdio.o)
 .data          0x00000000        0x0 c:/chibistudio/tools/gnu tools arm embedded/11.3 2022.08/bin/../lib/gcc/arm-none-eabi/11.3.1/thumb/v7e-m/nofp\libg.a(libc_a-stdio.o)
 .bss           0x00000000        0x0 c:/chibistudio/tools/gnu tools arm embedded/11.3 2022.08/bin/../lib/gcc/arm-none-eabi/11.3.1/thumb/v7e-m/nofp\libg.a(libc_a-stdio.o)
 .text.__sread  0x00000000       0x24 c:/chibistudio/tools/gnu tools arm embedded/11.3 2022.08/bin/../lib/gcc/arm-none-eabi/11.3.1/thumb/v7e-m/nofp\libg.a(libc_a-stdio.o)
 .text.__seofread
                0x00000000        0x4 c:/chibistudio/tools/gnu tools arm embedded/11.3 2022.08/bin/../lib/gcc/arm-none-eabi/11.3.1/thumb/v7e-m/nofp\libg.a(libc_a-stdio.o)
 .text.__swrite
                0x00000000       0x40 c:/chibistudio/tools/gnu tools arm embedded/11.3 2022.08/bin/../lib/gcc/arm-none-eabi/11.3.1/thumb/v7e-m/nofp\libg.a(libc_a-stdio.o)
 .text.__sseek  0x00000000       0x20 c:/chibistudio/tools/gnu tools arm embedded/11.3 2022.08/bin/../lib/gcc/arm-none-eabi/11.3.1/thumb/v7e-m/nofp\libg.a(libc_a-stdio.o)
 .text.__sclose
                0x00000000        0x8 c:/chibistudio/tools/gnu tools arm embedded/11.3 2022.08/bin/../lib/gcc/arm-none-eabi/11.3.1/thumb/v7e-m/nofp\libg.a(libc_a-stdio.o)
 .debug_info    0x00000000      0xa6b c:/chibistudio/tools/gnu tools arm embedded/11.3 2022.08/bin/../lib/gcc/arm-none-eabi/11.3.1/thumb/v7e-m/nofp\libg.a(libc_a-stdio.o)
 .debug_abbrev  0x00000000      0x260 c:/chibistudio/tools/gnu tools arm embedded/11.3 2022.08/bin/../lib/gcc/arm-none-eabi/11.3.1/thumb/v7e-m/nofp\libg.a(libc_a-stdio.o)
 .debug_loclists
                0x00000000      0x234 c:/chibistudio/tools/gnu tools arm embedded/11.3 2022.08/bin/../lib/gcc/arm-none-eabi/11.3.1/thumb/v7e-m/nofp\libg.a(libc_a-stdio.o)
 .debug_aranges
                0x00000000       0x40 c:/chibistudio/tools/gnu tools arm embedded/11.3 2022.08/bin/../lib/gcc/arm-none-eabi/11.3.1/thumb/v7e-m/nofp\libg.a(libc_a-stdio.o)
 .debug_rnglists
                0x00000000       0x2b c:/chibistudio/tools/gnu tools arm embedded/11.3 2022.08/bin/../lib/gcc/arm-none-eabi/11.3.1/thumb/v7e-m/nofp\libg.a(libc_a-stdio.o)
 .debug_line    0x00000000      0x2e4 c:/chibistudio/tools/gnu tools arm embedded/11.3 2022.08/bin/../lib/gcc/arm-none-eabi/11.3.1/thumb/v7e-m/nofp\libg.a(libc_a-stdio.o)
 .debug_str     0x00000000      0x57e c:/chibistudio/tools/gnu tools arm embedded/11.3 2022.08/bin/../lib/gcc/arm-none-eabi/11.3.1/thumb/v7e-m/nofp\libg.a(libc_a-stdio.o)
 .comment       0x00000000       0x34 c:/chibistudio/tools/gnu tools arm embedded/11.3 2022.08/bin/../lib/gcc/arm-none-eabi/11.3.1/thumb/v7e-m/nofp\libg.a(libc_a-stdio.o)
 .debug_frame   0x00000000       0x8c c:/chibistudio/tools/gnu tools arm embedded/11.3 2022.08/bin/../lib/gcc/arm-none-eabi/11.3.1/thumb/v7e-m/nofp\libg.a(libc_a-stdio.o)
 .ARM.attributes
                0x00000000       0x2e c:/chibistudio/tools/gnu tools arm embedded/11.3 2022.08/bin/../lib/gcc/arm-none-eabi/11.3.1/thumb/v7e-m/nofp\libg.a(libc_a-stdio.o)
 .text          0x00000000        0x0 c:/chibistudio/tools/gnu tools arm embedded/11.3 2022.08/bin/../lib/gcc/arm-none-eabi/11.3.1/thumb/v7e-m/nofp\libg.a(libc_a-closer.o)
 .data          0x00000000        0x0 c:/chibistudio/tools/gnu tools arm embedded/11.3 2022.08/bin/../lib/gcc/arm-none-eabi/11.3.1/thumb/v7e-m/nofp\libg.a(libc_a-closer.o)
 .bss           0x00000000        0x0 c:/chibistudio/tools/gnu tools arm embedded/11.3 2022.08/bin/../lib/gcc/arm-none-eabi/11.3.1/thumb/v7e-m/nofp\libg.a(libc_a-closer.o)
 .text._close_r
                0x00000000       0x24 c:/chibistudio/tools/gnu tools arm embedded/11.3 2022.08/bin/../lib/gcc/arm-none-eabi/11.3.1/thumb/v7e-m/nofp\libg.a(libc_a-closer.o)
 .debug_info    0x00000000      0x773 c:/chibistudio/tools/gnu tools arm embedded/11.3 2022.08/bin/../lib/gcc/arm-none-eabi/11.3.1/thumb/v7e-m/nofp\libg.a(libc_a-closer.o)
 .debug_abbrev  0x00000000      0x1ec c:/chibistudio/tools/gnu tools arm embedded/11.3 2022.08/bin/../lib/gcc/arm-none-eabi/11.3.1/thumb/v7e-m/nofp\libg.a(libc_a-closer.o)
 .debug_loclists
                0x00000000       0x4c c:/chibistudio/tools/gnu tools arm embedded/11.3 2022.08/bin/../lib/gcc/arm-none-eabi/11.3.1/thumb/v7e-m/nofp\libg.a(libc_a-closer.o)
 .debug_aranges
                0x00000000       0x20 c:/chibistudio/tools/gnu tools arm embedded/11.3 2022.08/bin/../lib/gcc/arm-none-eabi/11.3.1/thumb/v7e-m/nofp\libg.a(libc_a-closer.o)
 .debug_rnglists
                0x00000000       0x13 c:/chibistudio/tools/gnu tools arm embedded/11.3 2022.08/bin/../lib/gcc/arm-none-eabi/11.3.1/thumb/v7e-m/nofp\libg.a(libc_a-closer.o)
 .debug_line    0x00000000      0x217 c:/chibistudio/tools/gnu tools arm embedded/11.3 2022.08/bin/../lib/gcc/arm-none-eabi/11.3.1/thumb/v7e-m/nofp\libg.a(libc_a-closer.o)
 .debug_str     0x00000000      0x507 c:/chibistudio/tools/gnu tools arm embedded/11.3 2022.08/bin/../lib/gcc/arm-none-eabi/11.3.1/thumb/v7e-m/nofp\libg.a(libc_a-closer.o)
 .comment       0x00000000       0x34 c:/chibistudio/tools/gnu tools arm embedded/11.3 2022.08/bin/../lib/gcc/arm-none-eabi/11.3.1/thumb/v7e-m/nofp\libg.a(libc_a-closer.o)
 .debug_frame   0x00000000       0x2c c:/chibistudio/tools/gnu tools arm embedded/11.3 2022.08/bin/../lib/gcc/arm-none-eabi/11.3.1/thumb/v7e-m/nofp\libg.a(libc_a-closer.o)
 .ARM.attributes
                0x00000000       0x2e c:/chibistudio/tools/gnu tools arm embedded/11.3 2022.08/bin/../lib/gcc/arm-none-eabi/11.3.1/thumb/v7e-m/nofp\libg.a(libc_a-closer.o)
 .text          0x00000000        0x0 c:/chibistudio/tools/gnu tools arm embedded/11.3 2022.08/bin/../lib/gcc/arm-none-eabi/11.3.1/thumb/v7e-m/nofp\libg.a(libc_a-reent.o)
 .data          0x00000000        0x0 c:/chibistudio/tools/gnu tools arm embedded/11.3 2022.08/bin/../lib/gcc/arm-none-eabi/11.3.1/thumb/v7e-m/nofp\libg.a(libc_a-reent.o)
 .bss           0x00000000        0x0 c:/chibistudio/tools/gnu tools arm embedded/11.3 2022.08/bin/../lib/gcc/arm-none-eabi/11.3.1/thumb/v7e-m/nofp\libg.a(libc_a-reent.o)
 .text._reclaim_reent
                0x00000000       0x5c c:/chibistudio/tools/gnu tools arm embedded/11.3 2022.08/bin/../lib/gcc/arm-none-eabi/11.3.1/thumb/v7e-m/nofp\libg.a(libc_a-reent.o)
 .text          0x00000000        0x0 c:/chibistudio/tools/gnu tools arm embedded/11.3 2022.08/bin/../lib/gcc/arm-none-eabi/11.3.1/thumb/v7e-m/nofp\libg.a(libc_a-lseekr.o)
 .data          0x00000000        0x0 c:/chibistudio/tools/gnu tools arm embedded/11.3 2022.08/bin/../lib/gcc/arm-none-eabi/11.3.1/thumb/v7e-m/nofp\libg.a(libc_a-lseekr.o)
 .bss           0x00000000        0x0 c:/chibistudio/tools/gnu tools arm embedded/11.3 2022.08/bin/../lib/gcc/arm-none-eabi/11.3.1/thumb/v7e-m/nofp\libg.a(libc_a-lseekr.o)
 .text._lseek_r
                0x00000000       0x2c c:/chibistudio/tools/gnu tools arm embedded/11.3 2022.08/bin/../lib/gcc/arm-none-eabi/11.3.1/thumb/v7e-m/nofp\libg.a(libc_a-lseekr.o)
 .debug_info    0x00000000      0x7b3 c:/chibistudio/tools/gnu tools arm embedded/11.3 2022.08/bin/../lib/gcc/arm-none-eabi/11.3.1/thumb/v7e-m/nofp\libg.a(libc_a-lseekr.o)
 .debug_abbrev  0x00000000      0x200 c:/chibistudio/tools/gnu tools arm embedded/11.3 2022.08/bin/../lib/gcc/arm-none-eabi/11.3.1/thumb/v7e-m/nofp\libg.a(libc_a-lseekr.o)
 .debug_loclists
                0x00000000       0x9d c:/chibistudio/tools/gnu tools arm embedded/11.3 2022.08/bin/../lib/gcc/arm-none-eabi/11.3.1/thumb/v7e-m/nofp\libg.a(libc_a-lseekr.o)
 .debug_aranges
                0x00000000       0x20 c:/chibistudio/tools/gnu tools arm embedded/11.3 2022.08/bin/../lib/gcc/arm-none-eabi/11.3.1/thumb/v7e-m/nofp\libg.a(libc_a-lseekr.o)
 .debug_rnglists
                0x00000000       0x13 c:/chibistudio/tools/gnu tools arm embedded/11.3 2022.08/bin/../lib/gcc/arm-none-eabi/11.3.1/thumb/v7e-m/nofp\libg.a(libc_a-lseekr.o)
 .debug_line    0x00000000      0x21d c:/chibistudio/tools/gnu tools arm embedded/11.3 2022.08/bin/../lib/gcc/arm-none-eabi/11.3.1/thumb/v7e-m/nofp\libg.a(libc_a-lseekr.o)
 .debug_str     0x00000000      0x515 c:/chibistudio/tools/gnu tools arm embedded/11.3 2022.08/bin/../lib/gcc/arm-none-eabi/11.3.1/thumb/v7e-m/nofp\libg.a(libc_a-lseekr.o)
 .comment       0x00000000       0x34 c:/chibistudio/tools/gnu tools arm embedded/11.3 2022.08/bin/../lib/gcc/arm-none-eabi/11.3.1/thumb/v7e-m/nofp\libg.a(libc_a-lseekr.o)
 .debug_frame   0x00000000       0x2c c:/chibistudio/tools/gnu tools arm embedded/11.3 2022.08/bin/../lib/gcc/arm-none-eabi/11.3.1/thumb/v7e-m/nofp\libg.a(libc_a-lseekr.o)
 .ARM.attributes
                0x00000000       0x2e c:/chibistudio/tools/gnu tools arm embedded/11.3 2022.08/bin/../lib/gcc/arm-none-eabi/11.3.1/thumb/v7e-m/nofp\libg.a(libc_a-lseekr.o)
 .text          0x00000000        0x0 c:/chibistudio/tools/gnu tools arm embedded/11.3 2022.08/bin/../lib/gcc/arm-none-eabi/11.3.1/thumb/v7e-m/nofp\libg.a(libc_a-readr.o)
 .data          0x00000000        0x0 c:/chibistudio/tools/gnu tools arm embedded/11.3 2022.08/bin/../lib/gcc/arm-none-eabi/11.3.1/thumb/v7e-m/nofp\libg.a(libc_a-readr.o)
 .bss           0x00000000        0x0 c:/chibistudio/tools/gnu tools arm embedded/11.3 2022.08/bin/../lib/gcc/arm-none-eabi/11.3.1/thumb/v7e-m/nofp\libg.a(libc_a-readr.o)
 .text._read_r  0x00000000       0x2c c:/chibistudio/tools/gnu tools arm embedded/11.3 2022.08/bin/../lib/gcc/arm-none-eabi/11.3.1/thumb/v7e-m/nofp\libg.a(libc_a-readr.o)
 .debug_info    0x00000000      0x7ca c:/chibistudio/tools/gnu tools arm embedded/11.3 2022.08/bin/../lib/gcc/arm-none-eabi/11.3.1/thumb/v7e-m/nofp\libg.a(libc_a-readr.o)
 .debug_abbrev  0x00000000      0x1ec c:/chibistudio/tools/gnu tools arm embedded/11.3 2022.08/bin/../lib/gcc/arm-none-eabi/11.3.1/thumb/v7e-m/nofp\libg.a(libc_a-readr.o)
 .debug_loclists
                0x00000000       0x9d c:/chibistudio/tools/gnu tools arm embedded/11.3 2022.08/bin/../lib/gcc/arm-none-eabi/11.3.1/thumb/v7e-m/nofp\libg.a(libc_a-readr.o)
 .debug_aranges
                0x00000000       0x20 c:/chibistudio/tools/gnu tools arm embedded/11.3 2022.08/bin/../lib/gcc/arm-none-eabi/11.3.1/thumb/v7e-m/nofp\libg.a(libc_a-readr.o)
 .debug_rnglists
                0x00000000       0x13 c:/chibistudio/tools/gnu tools arm embedded/11.3 2022.08/bin/../lib/gcc/arm-none-eabi/11.3.1/thumb/v7e-m/nofp\libg.a(libc_a-readr.o)
 .debug_line    0x00000000      0x21c c:/chibistudio/tools/gnu tools arm embedded/11.3 2022.08/bin/../lib/gcc/arm-none-eabi/11.3.1/thumb/v7e-m/nofp\libg.a(libc_a-readr.o)
 .debug_str     0x00000000      0x515 c:/chibistudio/tools/gnu tools arm embedded/11.3 2022.08/bin/../lib/gcc/arm-none-eabi/11.3.1/thumb/v7e-m/nofp\libg.a(libc_a-readr.o)
 .comment       0x00000000       0x34 c:/chibistudio/tools/gnu tools arm embedded/11.3 2022.08/bin/../lib/gcc/arm-none-eabi/11.3.1/thumb/v7e-m/nofp\libg.a(libc_a-readr.o)
 .debug_frame   0x00000000       0x2c c:/chibistudio/tools/gnu tools arm embedded/11.3 2022.08/bin/../lib/gcc/arm-none-eabi/11.3.1/thumb/v7e-m/nofp\libg.a(libc_a-readr.o)
 .ARM.attributes
                0x00000000       0x2e c:/chibistudio/tools/gnu tools arm embedded/11.3 2022.08/bin/../lib/gcc/arm-none-eabi/11.3.1/thumb/v7e-m/nofp\libg.a(libc_a-readr.o)
 .text          0x00000000        0x0 c:/chibistudio/tools/gnu tools arm embedded/11.3 2022.08/bin/../lib/gcc/arm-none-eabi/11.3.1/thumb/v7e-m/nofp\libg.a(libc_a-writer.o)
 .data          0x00000000        0x0 c:/chibistudio/tools/gnu tools arm embedded/11.3 2022.08/bin/../lib/gcc/arm-none-eabi/11.3.1/thumb/v7e-m/nofp\libg.a(libc_a-writer.o)
 .bss           0x00000000        0x0 c:/chibistudio/tools/gnu tools arm embedded/11.3 2022.08/bin/../lib/gcc/arm-none-eabi/11.3.1/thumb/v7e-m/nofp\libg.a(libc_a-writer.o)
 .text._write_r
                0x00000000       0x2c c:/chibistudio/tools/gnu tools arm embedded/11.3 2022.08/bin/../lib/gcc/arm-none-eabi/11.3.1/thumb/v7e-m/nofp\libg.a(libc_a-writer.o)
 .debug_info    0x00000000      0x7d0 c:/chibistudio/tools/gnu tools arm embedded/11.3 2022.08/bin/../lib/gcc/arm-none-eabi/11.3.1/thumb/v7e-m/nofp\libg.a(libc_a-writer.o)
 .debug_abbrev  0x00000000      0x1f1 c:/chibistudio/tools/gnu tools arm embedded/11.3 2022.08/bin/../lib/gcc/arm-none-eabi/11.3.1/thumb/v7e-m/nofp\libg.a(libc_a-writer.o)
 .debug_loclists
                0x00000000       0x9d c:/chibistudio/tools/gnu tools arm embedded/11.3 2022.08/bin/../lib/gcc/arm-none-eabi/11.3.1/thumb/v7e-m/nofp\libg.a(libc_a-writer.o)
 .debug_aranges
                0x00000000       0x20 c:/chibistudio/tools/gnu tools arm embedded/11.3 2022.08/bin/../lib/gcc/arm-none-eabi/11.3.1/thumb/v7e-m/nofp\libg.a(libc_a-writer.o)
 .debug_rnglists
                0x00000000       0x13 c:/chibistudio/tools/gnu tools arm embedded/11.3 2022.08/bin/../lib/gcc/arm-none-eabi/11.3.1/thumb/v7e-m/nofp\libg.a(libc_a-writer.o)
 .debug_line    0x00000000      0x21d c:/chibistudio/tools/gnu tools arm embedded/11.3 2022.08/bin/../lib/gcc/arm-none-eabi/11.3.1/thumb/v7e-m/nofp\libg.a(libc_a-writer.o)
 .debug_str     0x00000000      0x517 c:/chibistudio/tools/gnu tools arm embedded/11.3 2022.08/bin/../lib/gcc/arm-none-eabi/11.3.1/thumb/v7e-m/nofp\libg.a(libc_a-writer.o)
 .comment       0x00000000       0x34 c:/chibistudio/tools/gnu tools arm embedded/11.3 2022.08/bin/../lib/gcc/arm-none-eabi/11.3.1/thumb/v7e-m/nofp\libg.a(libc_a-writer.o)
 .debug_frame   0x00000000       0x2c c:/chibistudio/tools/gnu tools arm embedded/11.3 2022.08/bin/../lib/gcc/arm-none-eabi/11.3.1/thumb/v7e-m/nofp\libg.a(libc_a-writer.o)
 .ARM.attributes
                0x00000000       0x2e c:/chibistudio/tools/gnu tools arm embedded/11.3 2022.08/bin/../lib/gcc/arm-none-eabi/11.3.1/thumb/v7e-m/nofp\libg.a(libc_a-writer.o)
 .text          0x00000000        0x0 c:/chibistudio/tools/gnu tools arm embedded/11.3 2022.08/bin/../lib/gcc/arm-none-eabi/11.3.1/thumb/v7e-m/nofp\libg.a(libc_a-fclose.o)
 .data          0x00000000        0x0 c:/chibistudio/tools/gnu tools arm embedded/11.3 2022.08/bin/../lib/gcc/arm-none-eabi/11.3.1/thumb/v7e-m/nofp\libg.a(libc_a-fclose.o)
 .bss           0x00000000        0x0 c:/chibistudio/tools/gnu tools arm embedded/11.3 2022.08/bin/../lib/gcc/arm-none-eabi/11.3.1/thumb/v7e-m/nofp\libg.a(libc_a-fclose.o)
 .text._fclose_r
                0x00000000       0xc8 c:/chibistudio/tools/gnu tools arm embedded/11.3 2022.08/bin/../lib/gcc/arm-none-eabi/11.3.1/thumb/v7e-m/nofp\libg.a(libc_a-fclose.o)
 .text.fclose   0x00000000       0x10 c:/chibistudio/tools/gnu tools arm embedded/11.3 2022.08/bin/../lib/gcc/arm-none-eabi/11.3.1/thumb/v7e-m/nofp\libg.a(libc_a-fclose.o)
 .debug_info    0x00000000      0x8e4 c:/chibistudio/tools/gnu tools arm embedded/11.3 2022.08/bin/../lib/gcc/arm-none-eabi/11.3.1/thumb/v7e-m/nofp\libg.a(libc_a-fclose.o)
 .debug_abbrev  0x00000000      0x2a2 c:/chibistudio/tools/gnu tools arm embedded/11.3 2022.08/bin/../lib/gcc/arm-none-eabi/11.3.1/thumb/v7e-m/nofp\libg.a(libc_a-fclose.o)
 .debug_loclists
                0x00000000       0xd4 c:/chibistudio/tools/gnu tools arm embedded/11.3 2022.08/bin/../lib/gcc/arm-none-eabi/11.3.1/thumb/v7e-m/nofp\libg.a(libc_a-fclose.o)
 .debug_aranges
                0x00000000       0x28 c:/chibistudio/tools/gnu tools arm embedded/11.3 2022.08/bin/../lib/gcc/arm-none-eabi/11.3.1/thumb/v7e-m/nofp\libg.a(libc_a-fclose.o)
 .debug_rnglists
                0x00000000       0x28 c:/chibistudio/tools/gnu tools arm embedded/11.3 2022.08/bin/../lib/gcc/arm-none-eabi/11.3.1/thumb/v7e-m/nofp\libg.a(libc_a-fclose.o)
 .debug_line    0x00000000      0x357 c:/chibistudio/tools/gnu tools arm embedded/11.3 2022.08/bin/../lib/gcc/arm-none-eabi/11.3.1/thumb/v7e-m/nofp\libg.a(libc_a-fclose.o)
 .debug_str     0x00000000      0x5d4 c:/chibistudio/tools/gnu tools arm embedded/11.3 2022.08/bin/../lib/gcc/arm-none-eabi/11.3.1/thumb/v7e-m/nofp\libg.a(libc_a-fclose.o)
 .comment       0x00000000       0x34 c:/chibistudio/tools/gnu tools arm embedded/11.3 2022.08/bin/../lib/gcc/arm-none-eabi/11.3.1/thumb/v7e-m/nofp\libg.a(libc_a-fclose.o)
 .debug_frame   0x00000000       0x3c c:/chibistudio/tools/gnu tools arm embedded/11.3 2022.08/bin/../lib/gcc/arm-none-eabi/11.3.1/thumb/v7e-m/nofp\libg.a(libc_a-fclose.o)
 .ARM.attributes
                0x00000000       0x2e c:/chibistudio/tools/gnu tools arm embedded/11.3 2022.08/bin/../lib/gcc/arm-none-eabi/11.3.1/thumb/v7e-m/nofp\libg.a(libc_a-fclose.o)
 .text          0x00000000        0x0 c:/chibistudio/tools/gnu tools arm embedded/11.3 2022.08/bin/../lib/gcc/arm-none-eabi/11.3.1/thumb/v7e-m/nofp\libg.a(libc_a-fflush.o)
 .data          0x00000000        0x0 c:/chibistudio/tools/gnu tools arm embedded/11.3 2022.08/bin/../lib/gcc/arm-none-eabi/11.3.1/thumb/v7e-m/nofp\libg.a(libc_a-fflush.o)
 .bss           0x00000000        0x0 c:/chibistudio/tools/gnu tools arm embedded/11.3 2022.08/bin/../lib/gcc/arm-none-eabi/11.3.1/thumb/v7e-m/nofp\libg.a(libc_a-fflush.o)
 .text.__sflush_r
                0x00000000      0x120 c:/chibistudio/tools/gnu tools arm embedded/11.3 2022.08/bin/../lib/gcc/arm-none-eabi/11.3.1/thumb/v7e-m/nofp\libg.a(libc_a-fflush.o)
 .text._fflush_r
                0x00000000       0x54 c:/chibistudio/tools/gnu tools arm embedded/11.3 2022.08/bin/../lib/gcc/arm-none-eabi/11.3.1/thumb/v7e-m/nofp\libg.a(libc_a-fflush.o)
 .text.fflush   0x00000000       0x74 c:/chibistudio/tools/gnu tools arm embedded/11.3 2022.08/bin/../lib/gcc/arm-none-eabi/11.3.1/thumb/v7e-m/nofp\libg.a(libc_a-fflush.o)
 .debug_info    0x00000000      0xab3 c:/chibistudio/tools/gnu tools arm embedded/11.3 2022.08/bin/../lib/gcc/arm-none-eabi/11.3.1/thumb/v7e-m/nofp\libg.a(libc_a-fflush.o)
 .debug_abbrev  0x00000000      0x323 c:/chibistudio/tools/gnu tools arm embedded/11.3 2022.08/bin/../lib/gcc/arm-none-eabi/11.3.1/thumb/v7e-m/nofp\libg.a(libc_a-fflush.o)
 .debug_loclists
                0x00000000      0x2ce c:/chibistudio/tools/gnu tools arm embedded/11.3 2022.08/bin/../lib/gcc/arm-none-eabi/11.3.1/thumb/v7e-m/nofp\libg.a(libc_a-fflush.o)
 .debug_aranges
                0x00000000       0x30 c:/chibistudio/tools/gnu tools arm embedded/11.3 2022.08/bin/../lib/gcc/arm-none-eabi/11.3.1/thumb/v7e-m/nofp\libg.a(libc_a-fflush.o)
 .debug_rnglists
                0x00000000       0x76 c:/chibistudio/tools/gnu tools arm embedded/11.3 2022.08/bin/../lib/gcc/arm-none-eabi/11.3.1/thumb/v7e-m/nofp\libg.a(libc_a-fflush.o)
 .debug_line    0x00000000      0x532 c:/chibistudio/tools/gnu tools arm embedded/11.3 2022.08/bin/../lib/gcc/arm-none-eabi/11.3.1/thumb/v7e-m/nofp\libg.a(libc_a-fflush.o)
 .debug_str     0x00000000      0x5dc c:/chibistudio/tools/gnu tools arm embedded/11.3 2022.08/bin/../lib/gcc/arm-none-eabi/11.3.1/thumb/v7e-m/nofp\libg.a(libc_a-fflush.o)
 .comment       0x00000000       0x34 c:/chibistudio/tools/gnu tools arm embedded/11.3 2022.08/bin/../lib/gcc/arm-none-eabi/11.3.1/thumb/v7e-m/nofp\libg.a(libc_a-fflush.o)
 .debug_frame   0x00000000       0x70 c:/chibistudio/tools/gnu tools arm embedded/11.3 2022.08/bin/../lib/gcc/arm-none-eabi/11.3.1/thumb/v7e-m/nofp\libg.a(libc_a-fflush.o)
 .ARM.attributes
                0x00000000       0x2e c:/chibistudio/tools/gnu tools arm embedded/11.3 2022.08/bin/../lib/gcc/arm-none-eabi/11.3.1/thumb/v7e-m/nofp\libg.a(libc_a-fflush.o)

Memory Configuration

Name             Origin             Length             Attributes
flash0           0x08000000         0x00100000         xr
flash1           0x00000000         0x00000000         xr
flash2           0x00000000         0x00000000         xr
flash3           0x00000000         0x00000000         xr
flash4           0x00000000         0x00000000         xr
flash5           0x00000000         0x00000000         xr
flash6           0x00000000         0x00000000         xr
flash7           0x00000000         0x00000000         xr
ram0             0x20000000         0x00020000         xw
ram1             0x20000000         0x0001c000         xw
ram2             0x2001c000         0x00004000         xw
ram3             0x00000000         0x00000000         xw
ram4             0x10000000         0x00010000         xw
ram5             0x40024000         0x00001000         xw
ram6             0x00000000         0x00000000         xw
ram7             0x00000000         0x00000000         xw
*default*        0x00000000         0xffffffff

Linker script and memory map

LOAD ./build/obj/crt0_v7m.o
LOAD ./build/obj/vectors.o
LOAD ./build/obj/chcoreasm.o
LOAD ./build/obj/crt1.o
LOAD C:\Users\Ridwane\AppData\Local\Temp\ccbHz2Im.ltrans0.ltrans.o
LOAD C:\Users\Ridwane\AppData\Local\Temp\ccbHz2Im.ltrans1.ltrans.o
LOAD C:\Users\Ridwane\AppData\Local\Temp\cc77RtQY.debug.temp.o
LOAD C:\Users\Ridwane\AppData\Local\Temp\ccAV2byo.debug.temp.o
LOAD C:\Users\Ridwane\AppData\Local\Temp\ccHXeggN.debug.temp.o
LOAD C:\Users\Ridwane\AppData\Local\Temp\cc8Jzz0b.debug.temp.o
LOAD C:\Users\Ridwane\AppData\Local\Temp\ccPokwGA.debug.temp.o
LOAD C:\Users\Ridwane\AppData\Local\Temp\ccGCsLxZ.debug.temp.o
LOAD C:\Users\Ridwane\AppData\Local\Temp\ccrV6Uqo.debug.temp.o
LOAD C:\Users\Ridwane\AppData\Local\Temp\ccC36fdN.debug.temp.o
LOAD C:\Users\Ridwane\AppData\Local\Temp\cc39H6cc.debug.temp.o
LOAD C:\Users\Ridwane\AppData\Local\Temp\ccmmEpfB.debug.temp.o
LOAD C:\Users\Ridwane\AppData\Local\Temp\ccZssOc0.debug.temp.o
LOAD C:\Users\Ridwane\AppData\Local\Temp\ccWDpJnp.debug.temp.o
LOAD C:\Users\Ridwane\AppData\Local\Temp\cc9GMhuO.debug.temp.o
LOAD C:\Users\Ridwane\AppData\Local\Temp\ccYn4vwc.debug.temp.o
LOAD C:\Users\Ridwane\AppData\Local\Temp\cc7QxgBA.debug.temp.o
LOAD C:\Users\Ridwane\AppData\Local\Temp\ccWpFrTY.debug.temp.o
LOAD C:\Users\Ridwane\AppData\Local\Temp\cchVUx4m.debug.temp.o
LOAD C:\Users\Ridwane\AppData\Local\Temp\cccVyttL.debug.temp.o
LOAD C:\Users\Ridwane\AppData\Local\Temp\cc57jBU9.debug.temp.o
LOAD C:\Users\Ridwane\AppData\Local\Temp\cc2CpRey.debug.temp.o
LOAD C:\Users\Ridwane\AppData\Local\Temp\ccrmHnMW.debug.temp.o
LOAD C:\Users\Ridwane\AppData\Local\Temp\ccUFKvfl.debug.temp.o
LOAD C:\Users\Ridwane\AppData\Local\Temp\ccvXOZKJ.debug.temp.o
LOAD C:\Users\Ridwane\AppData\Local\Temp\ccQmBUi7.debug.temp.o
LOAD C:\Users\Ridwane\AppData\Local\Temp\ccxNCtMu.debug.temp.o
LOAD C:\Users\Ridwane\AppData\Local\Temp\ccmG8fiS.debug.temp.o
LOAD C:\Users\Ridwane\AppData\Local\Temp\cclmng1f.debug.temp.o
LOAD C:\Users\Ridwane\AppData\Local\Temp\ccSBDSDD.debug.temp.o
LOAD C:\Users\Ridwane\AppData\Local\Temp\ccXKrUt1.debug.temp.o
LOAD C:\Users\Ridwane\AppData\Local\Temp\ccwxYUep.debug.temp.o
LOAD C:\Users\Ridwane\AppData\Local\Temp\ccdMZ81M.debug.temp.o
LOAD C:\Users\Ridwane\AppData\Local\Temp\ccidLa3a.debug.temp.o
LOAD C:\Users\Ridwane\AppData\Local\Temp\ccvgKgZy.debug.temp.o
LOAD C:\Users\Ridwane\AppData\Local\Temp\ccsPjFC0.debug.temp.o
LOAD C:\Users\Ridwane\AppData\Local\Temp\ccFgjHbs.debug.temp.o
LOAD C:\Users\Ridwane\AppData\Local\Temp\cc8DQXXT.debug.temp.o
LOAD C:\Users\Ridwane\AppData\Local\Temp\ccPCHsMl.debug.temp.o
LOAD C:\Users\Ridwane\AppData\Local\Temp\ccGk9zwN.debug.temp.o
LOAD C:\Users\Ridwane\AppData\Local\Temp\ccR6Jduf.debug.temp.o
LOAD C:\Users\Ridwane\AppData\Local\Temp\ccavyVmH.debug.temp.o
LOAD C:\Users\Ridwane\AppData\Local\Temp\ccR56qt9.debug.temp.o
LOAD C:\Users\Ridwane\AppData\Local\Temp\ccikgVvB.debug.temp.o
LOAD C:\Users\Ridwane\AppData\Local\Temp\ccdm1lB2.debug.temp.o
LOAD C:\Users\Ridwane\AppData\Local\Temp\cc6c3pBt.debug.temp.o
LOAD C:\Users\Ridwane\AppData\Local\Temp\cc7x8uMU.debug.temp.o
LOAD C:\Users\Ridwane\AppData\Local\Temp\cckD2VSl.debug.temp.o
LOAD C:\Users\Ridwane\AppData\Local\Temp\ccVUGadN.debug.temp.o
LOAD C:\Users\Ridwane\AppData\Local\Temp\ccIYIyBe.debug.temp.o
LOAD C:\Users\Ridwane\AppData\Local\Temp\ccJ94MTF.debug.temp.o
LOAD C:\Users\Ridwane\AppData\Local\Temp\ccYHb7o7.debug.temp.o
LOAD C:\Users\Ridwane\AppData\Local\Temp\cclSvvPy.debug.temp.o
LOAD C:\Users\Ridwane\AppData\Local\Temp\ccG32LiZ.debug.temp.o
LOAD C:\Users\Ridwane\AppData\Local\Temp\ccjYuyOp.debug.temp.o
LOAD C:\Users\Ridwane\AppData\Local\Temp\ccYnoFfQ.debug.temp.o
LOAD C:\Users\Ridwane\AppData\Local\Temp\ccRqaORg.debug.temp.o
LOAD C:\Users\Ridwane\AppData\Local\Temp\ccmVqUpH.debug.temp.o
LOAD C:\Users\Ridwane\AppData\Local\Temp\ccDC7ab8.debug.temp.o
LOAD C:\Users\Ridwane\AppData\Local\Temp\cc2V1vRy.debug.temp.o
LOAD C:\Users\Ridwane\AppData\Local\Temp\ccDP1lAZ.debug.temp.o
LOAD C:\Users\Ridwane\AppData\Local\Temp\ccyNaIwq.debug.temp.o
LOAD C:\Users\Ridwane\AppData\Local\Temp\ccbS9apR.debug.temp.o
LOAD C:\Users\Ridwane\AppData\Local\Temp\ccwXtwjh.debug.temp.o
LOAD C:\Users\Ridwane\AppData\Local\Temp\ccz3u98G.debug.temp.o
LOAD C:\Users\Ridwane\AppData\Local\Temp\ccWdFic7.debug.temp.o
LOAD C:\Users\Ridwane\AppData\Local\Temp\cczgf5ax.debug.temp.o
LOAD C:\Users\Ridwane\AppData\Local\Temp\ccuEVRlX.debug.temp.o
LOAD C:\Users\Ridwane\AppData\Local\Temp\cc1Nk6qn.debug.temp.o
LOAD C:\Users\Ridwane\AppData\Local\Temp\ccmhx3JN.debug.temp.o
LOAD C:\Users\Ridwane\AppData\Local\Temp\ccPmX4Xd.debug.temp.o
LOAD C:\Users\Ridwane\AppData\Local\Temp\ccaqsCVH.debug.temp.o
LOAD C:\Users\Ridwane\AppData\Local\Temp\ccLlnNOb.debug.temp.o
LOAD C:\Users\Ridwane\AppData\Local\Temp\ccy3F7LF.debug.temp.o
LOAD C:\Users\Ridwane\AppData\Local\Temp\ccJXIfX9.debug.temp.o
LOAD C:\Users\Ridwane\AppData\Local\Temp\ccY95v1D.debug.temp.o
LOAD C:\Users\Ridwane\AppData\Local\Temp\ccHFZjj8.debug.temp.o
LOAD C:\Users\Ridwane\AppData\Local\Temp\ccsGkswC.debug.temp.o
LOAD C:\Users\Ridwane\AppData\Local\Temp\ccB5H2Y6.debug.temp.o
LOAD C:\Users\Ridwane\AppData\Local\Temp\cc8mduwA.debug.temp.o
LOAD C:\Users\Ridwane\AppData\Local\Temp\cc3YCM13.debug.temp.o
LOAD C:\Users\Ridwane\AppData\Local\Temp\ccmXvJDx.debug.temp.o
LOAD C:\Users\Ridwane\AppData\Local\Temp\ccB7h9h1.debug.temp.o
LOAD C:\Users\Ridwane\AppData\Local\Temp\cciudy9u.debug.temp.o
LOAD ./build/obj/hal.o
LOAD ./build/obj/hal_st.o
LOAD ./build/obj/hal_buffered_serial.o
LOAD ./build/obj/hal_buffers.o
LOAD ./build/obj/hal_queues.o
LOAD ./build/obj/hal_flash.o
LOAD ./build/obj/hal_mmcsd.o
LOAD ./build/obj/hal_pal.o
LOAD ./build/obj/hal_serial.o
LOAD ./build/obj/nvic.o
LOAD ./build/obj/stm32_isr.o
LOAD ./build/obj/hal_lld.o
LOAD ./build/obj/hal_efl_lld.o
LOAD ./build/obj/stm32_dma.o
LOAD ./build/obj/stm32_exti.o
LOAD ./build/obj/hal_pal_lld.o
LOAD ./build/obj/hal_st_lld.o
LOAD ./build/obj/hal_serial_lld.o
LOAD ./build/obj/board.o
LOAD ./build/obj/osal.o
LOAD ./build/obj/chsys.o
LOAD ./build/obj/chrfcu.o
LOAD ./build/obj/chdebug.o
LOAD ./build/obj/chtrace.o
LOAD ./build/obj/chvt.o
LOAD ./build/obj/chschd.o
LOAD ./build/obj/chinstances.o
LOAD ./build/obj/chthreads.o
LOAD ./build/obj/chtm.o
LOAD ./build/obj/chregistry.o
LOAD ./build/obj/chsem.o
LOAD ./build/obj/chmtx.o
LOAD ./build/obj/chcond.o
LOAD ./build/obj/chevents.o
LOAD ./build/obj/chmsg.o
LOAD ./build/obj/chdynamic.o
LOAD ./build/obj/chmboxes.o
LOAD ./build/obj/chmemcore.o
LOAD ./build/obj/chmemheaps.o
LOAD ./build/obj/chmempools.o
LOAD ./build/obj/chpipes.o
LOAD ./build/obj/chobjcaches.o
LOAD ./build/obj/chdelegates.o
LOAD ./build/obj/chfactory.o
LOAD ./build/obj/chcore.o
LOAD ./build/obj/ch_test.o
LOAD ./build/obj/ch_test_printf.o
LOAD ./build/obj/rt_test_root.o
LOAD ./build/obj/rt_test_sequence_001.o
LOAD ./build/obj/rt_test_sequence_002.o
LOAD ./build/obj/rt_test_sequence_003.o
LOAD ./build/obj/rt_test_sequence_004.o
LOAD ./build/obj/rt_test_sequence_005.o
LOAD ./build/obj/rt_test_sequence_006.o
LOAD ./build/obj/rt_test_sequence_007.o
LOAD ./build/obj/rt_test_sequence_008.o
LOAD ./build/obj/rt_test_sequence_009.o
LOAD ./build/obj/rt_test_sequence_010.o
LOAD ./build/obj/rt_test_sequence_011.o
LOAD ./build/obj/rt_test_sequence_012.o
LOAD ./build/obj/oslib_test_root.o
LOAD ./build/obj/oslib_test_sequence_001.o
LOAD ./build/obj/oslib_test_sequence_002.o
LOAD ./build/obj/oslib_test_sequence_003.o
LOAD ./build/obj/oslib_test_sequence_004.o
LOAD ./build/obj/oslib_test_sequence_005.o
LOAD ./build/obj/oslib_test_sequence_006.o
LOAD ./build/obj/oslib_test_sequence_007.o
LOAD ./build/obj/oslib_test_sequence_008.o
LOAD ./build/obj/oslib_test_sequence_009.o
LOAD ./build/obj/main.o
LOAD ./build/obj/sign.o
LOAD ./build/obj/nist.o
LOAD ./build/obj/codec.o
LOAD ./build/obj/common.o
LOAD ./build/obj/fft.o
LOAD ./build/obj/fpr.o
LOAD ./build/obj/keygen.o
LOAD ./build/obj/rng.o
LOAD ./build/obj/shake.o
LOAD ./build/obj/vrfy.o

.mstack         0x20000000      0x400
                0x20000000                . = ALIGN (0x8)
                0x20000000                __main_stack_base__ = .
                0x20000400                . = (. + __main_stack_size__)
 *fill*         0x20000000      0x400 
                0x20000400                . = ALIGN (0x8)
                0x20000400                __main_stack_end__ = .

.pstack         0x20000400      0x400
                0x20000400                . = ALIGN (0x8)
                0x20000400                __process_stack_base__ = .
                0x20000400                __main_thread_stack_base__ = .
                0x20000800                . = (. + __process_stack_size__)
 *fill*         0x20000400      0x400 
                0x20000800                . = ALIGN (0x8)
                0x20000800                __process_stack_end__ = .
                0x20000800                __main_thread_stack_end__ = .

.vectors        0x08000000      0x1e0
                0x08000000                __textvectors_base__ = LOADADDR (.vectors)
                0x08000000                __vectors_base__ = .
 *(.vectors)
 .vectors       0x08000000      0x1e0 ./build/obj/vectors.o
                0x08000000                _vectors
                0x080001e0                __vectors_end__ = .

.xtors          0x080001e0        0x0
                0x080001e0                __init_array_base__ = .
 *(SORT_BY_NAME(.init_array.*))
 *(.init_array)
                0x080001e0                __init_array_end__ = .
                0x080001e0                __fini_array_base__ = .
 *(.fini_array)
 *(SORT_BY_NAME(.fini_array.*))
                0x080001e0                __fini_array_end__ = .

.text           0x080001e0    0x12264
                0x080001e0                __text_base__ = .
 *(.text)
 .text          0x080001e0       0xd8 ./build/obj/crt0_v7m.o
                0x080001e0                _crt0_entry
 .text          0x080002b8        0x8 ./build/obj/vectors.o
                0x080002b8                Reset_Handler
                0x080002ba                VectorE8
                0x080002ba                Vector9C
                0x080002ba                VectorAC
                0x080002ba                DebugMon_Handler
                0x080002ba                Vector1A0
                0x080002ba                Vector5C
                0x080002ba                Vector11C
                0x080002ba                HardFault_Handler
                0x080002ba                Vector1B8
                0x080002ba                Vector19C
                0x080002ba                Vector8C
                0x080002ba                SysTick_Handler
                0x080002ba                VectorDC
                0x080002ba                PendSV_Handler
                0x080002ba                Vector168
                0x080002ba                NMI_Handler
                0x080002ba                Vector110
                0x080002ba                Vector120
                0x080002ba                Vector1D8
                0x080002ba                VectorC8
                0x080002ba                Vector94
                0x080002ba                VectorA8
                0x080002ba                VectorB4
                0x080002ba                Vector74
                0x080002ba                Vector160
                0x080002ba                Vector1B0
                0x080002ba                UsageFault_Handler
                0x080002ba                VectorEC
                0x080002ba                Vector40
                0x080002ba                VectorF8
                0x080002ba                Vector108
                0x080002ba                VectorBC
                0x080002ba                Vector190
                0x080002ba                Vector150
                0x080002ba                Vector124
                0x080002ba                Vector1C4
                0x080002ba                Vector1CC
                0x080002ba                Vector148
                0x080002ba                Vector188
                0x080002ba                Vector198
                0x080002ba                Vector118
                0x080002ba                Vector64
                0x080002ba                Vector58
                0x080002ba                VectorCC
                0x080002ba                Vector54
                0x080002ba                Vector98
                0x080002ba                Vector138
                0x080002ba                Vector24
                0x080002ba                Vector1AC
                0x080002ba                Vector178
                0x080002ba                Vector84
                0x080002ba                SecureFault_Handler
                0x080002ba                Vector1A4
                0x080002ba                VectorD0
                0x080002ba                Vector1B4
                0x080002ba                Vector140
                0x080002ba                VectorE4
                0x080002ba                VectorC0
                0x080002ba                Vector158
                0x080002ba                Vector130
                0x080002ba                Vector1C0
                0x080002ba                Vector134
                0x080002ba                Vector1D0
                0x080002ba                VectorF0
                0x080002ba                Vector12C
                0x080002ba                Vector13C
                0x080002ba                Vector100
                0x080002ba                VectorE0
                0x080002ba                VectorF4
                0x080002ba                MemManage_Handler
                0x080002ba                Vector6C
                0x080002ba                VectorA0
                0x080002ba                VectorC4
                0x080002ba                Vector7C
                0x080002ba                Vector180
                0x080002ba                Vector90
                0x080002ba                Vector114
                0x080002ba                Vector164
                0x080002ba                Vector60
                0x080002ba                Vector1BC
                0x080002ba                Vector1D4
                0x080002ba                Vector17C
                0x080002ba                Vector48
                0x080002ba                Vector1A8
                0x080002ba                Vector16C
                0x080002ba                Vector70
                0x080002ba                VectorD4
                0x080002ba                Vector4C
                0x080002ba                Vector144
                0x080002ba                Vector80
                0x080002ba                Vector15C
                0x080002ba                Vector68
                0x080002ba                Vector78
                0x080002ba                Vector18C
                0x080002ba                Vector170
                0x080002ba                Vector88
                0x080002ba                Vector104
                0x080002ba                Vector184
                0x080002ba                Vector10C
                0x080002ba                Vector14C
                0x080002ba                BusFault_Handler
                0x080002ba                Vector50
                0x080002ba                Vector1C8
                0x080002ba                Vector194
                0x080002ba                Vector1DC
                0x080002ba                Vector154
                0x080002ba                Vector44
                0x080002ba                Vector28
                0x080002ba                VectorB8
                0x080002ba                VectorFC
                0x080002ba                Vector34
                0x080002ba                Vector128
                0x080002ba                VectorA4
                0x080002ba                Vector20
                0x080002ba                Vector174
                0x080002be                _unhandled_exception
 .text          0x080002c0       0x2a ./build/obj/chcoreasm.o
                0x080002c0                __port_switch
                0x080002d0                __port_thread_start
                0x080002e2                __port_switch_from_isr
                0x080002e6                __port_exit_from_isr
 *fill*         0x080002ea       0x16 
 .text          0x08000300      0x2dc c:/chibistudio/tools/gnu tools arm embedded/11.3 2022.08/bin/../lib/gcc/arm-none-eabi/11.3.1/thumb/v7e-m/nofp\libg.a(libc_a-strcmp.o)
                0x08000308                strcmp
 .text          0x080005dc      0x134 c:/chibistudio/tools/gnu tools arm embedded/11.3 2022.08/bin/../lib/gcc/arm-none-eabi/11.3.1/thumb/v7e-m/nofp\libg.a(libc_a-memcpy.o)
                0x080005dc                memcpy
 *(.text.*)
 .text._ctl.lto_priv.0
                0x08000710        0xc C:\Users\Ridwane\AppData\Local\Temp\ccbHz2Im.ltrans0.ltrans.o
                0x08000710                _ctl.lto_priv.0
 *fill*         0x0800071c        0x4 
 .text.notify2.lto_priv.0
                0x08000720       0x10 C:\Users\Ridwane\AppData\Local\Temp\ccbHz2Im.ltrans0.ltrans.o
                0x08000720                notify2.lto_priv.0
 .text.__idle_thread.lto_priv.0
                0x08000730        0x4 C:\Users\Ridwane\AppData\Local\Temp\ccbHz2Im.ltrans0.ltrans.o
                0x08000730                __idle_thread.lto_priv.0
 *fill*         0x08000734        0xc 
 .text.chCoreAllocFromTop
                0x08000740       0x3c C:\Users\Ridwane\AppData\Local\Temp\ccbHz2Im.ltrans0.ltrans.o
                0x08000740                chCoreAllocFromTop
 *fill*         0x0800077c        0x4 
 .text.__ch_delegate_fn0
                0x08000780        0xc C:\Users\Ridwane\AppData\Local\Temp\ccbHz2Im.ltrans0.ltrans.o
 *fill*         0x0800078c        0x4 
 .text.__ch_delegate_fn1
                0x08000790       0x1c C:\Users\Ridwane\AppData\Local\Temp\ccbHz2Im.ltrans0.ltrans.o
 *fill*         0x080007ac        0x4 
 .text.__ch_delegate_fn2
                0x080007b0       0x1c C:\Users\Ridwane\AppData\Local\Temp\ccbHz2Im.ltrans0.ltrans.o
 *fill*         0x080007cc        0x4 
 .text.__ch_delegate_fn3
                0x080007d0       0x20 C:\Users\Ridwane\AppData\Local\Temp\ccbHz2Im.ltrans0.ltrans.o
 .text.__ch_delegate_fn4
                0x080007f0       0x24 C:\Users\Ridwane\AppData\Local\Temp\ccbHz2Im.ltrans0.ltrans.o
 *fill*         0x08000814        0xc 
 .text.chCoreAllocAlignedI.lto_priv.0
                0x08000820       0x20 C:\Users\Ridwane\AppData\Local\Temp\ccbHz2Im.ltrans0.ltrans.o
                0x08000820                chCoreAllocAlignedI.lto_priv.0
 .text.test_stream_putchar.lto_priv.0
                0x08000840       0x18 C:\Users\Ridwane\AppData\Local\Temp\ccbHz2Im.ltrans0.ltrans.o
                0x08000840                test_stream_putchar.lto_priv.0
 *fill*         0x08000858        0x8 
 .text.__test_assert_sequence
                0x08000860       0x3c C:\Users\Ridwane\AppData\Local\Temp\ccbHz2Im.ltrans0.ltrans.o
 *fill*         0x0800089c        0x4 
 .text.rt_test_002_001_execute.lto_priv.0
                0x080008a0      0x128 C:\Users\Ridwane\AppData\Local\Temp\ccbHz2Im.ltrans0.ltrans.o
                0x080008a0                rt_test_002_001_execute.lto_priv.0
 *fill*         0x080009c8        0x8 
 .text.rt_test_002_003_execute.lto_priv.0
                0x080009d0       0x24 C:\Users\Ridwane\AppData\Local\Temp\ccbHz2Im.ltrans0.ltrans.o
                0x080009d0                rt_test_002_003_execute.lto_priv.0
 *fill*         0x080009f4        0xc 
 .text.rt_test_003_001_execute.lto_priv.0
                0x08000a00       0x18 C:\Users\Ridwane\AppData\Local\Temp\ccbHz2Im.ltrans0.ltrans.o
                0x08000a00                rt_test_003_001_execute.lto_priv.0
 *fill*         0x08000a18        0x8 
 .text.rt_test_003_002_execute.lto_priv.0
                0x08000a20        0xc C:\Users\Ridwane\AppData\Local\Temp\ccbHz2Im.ltrans0.ltrans.o
                0x08000a20                rt_test_003_002_execute.lto_priv.0
 *fill*         0x08000a2c        0x4 
 .text.thread   0x08000a30       0x1c C:\Users\Ridwane\AppData\Local\Temp\ccbHz2Im.ltrans0.ltrans.o
 *fill*         0x08000a4c        0x4 
 .text.rt_test_006_001_setup.lto_priv.0
                0x08000a50        0xc C:\Users\Ridwane\AppData\Local\Temp\ccbHz2Im.ltrans0.ltrans.o
                0x08000a50                rt_test_006_001_setup.lto_priv.0
 *fill*         0x08000a5c        0x4 
 .text.rt_test_007_001_setup.lto_priv.0
                0x08000a60       0x10 C:\Users\Ridwane\AppData\Local\Temp\ccbHz2Im.ltrans0.ltrans.o
                0x08000a60                rt_test_007_001_setup.lto_priv.0
 .text.rt_test_007_005_setup.lto_priv.0
                0x08000a70       0x10 C:\Users\Ridwane\AppData\Local\Temp\ccbHz2Im.ltrans0.ltrans.o
                0x08000a70                rt_test_007_005_setup.lto_priv.0
 .text.rt_test_007_002_setup
                0x08000a80       0x10 C:\Users\Ridwane\AppData\Local\Temp\ccbHz2Im.ltrans0.ltrans.o
                0x08000a80                rt_test_007_002_setup.lto_priv.0
 .text.rt_test_007_003_setup
                0x08000a90       0x10 C:\Users\Ridwane\AppData\Local\Temp\ccbHz2Im.ltrans0.ltrans.o
                0x08000a90                rt_test_007_003_setup.lto_priv.0
 .text.rt_test_007_004_setup
                0x08000aa0       0x10 C:\Users\Ridwane\AppData\Local\Temp\ccbHz2Im.ltrans0.ltrans.o
                0x08000aa0                rt_test_007_004_setup.lto_priv.0
 .text.rt_test_008_005_setup.lto_priv.0
                0x08000ab0       0x10 C:\Users\Ridwane\AppData\Local\Temp\ccbHz2Im.ltrans0.ltrans.o
                0x08000ab0                rt_test_008_005_setup.lto_priv.0
 .text.rt_test_008_001_setup
                0x08000ac0       0x10 C:\Users\Ridwane\AppData\Local\Temp\ccbHz2Im.ltrans0.ltrans.o
                0x08000ac0                rt_test_008_001_setup.lto_priv.0
 .text.rt_test_008_004_setup.lto_priv.0
                0x08000ad0       0x1c C:\Users\Ridwane\AppData\Local\Temp\ccbHz2Im.ltrans0.ltrans.o
                0x08000ad0                rt_test_008_004_setup.lto_priv.0
 *fill*         0x08000aec        0x4 
 .text.rt_test_008_008_setup.lto_priv.0
                0x08000af0       0x1c C:\Users\Ridwane\AppData\Local\Temp\ccbHz2Im.ltrans0.ltrans.o
                0x08000af0                rt_test_008_008_setup.lto_priv.0
 *fill*         0x08000b0c        0x4 
 .text.rt_test_008_007_setup
                0x08000b10       0x1c C:\Users\Ridwane\AppData\Local\Temp\ccbHz2Im.ltrans0.ltrans.o
                0x08000b10                rt_test_008_007_setup.lto_priv.0
 *fill*         0x08000b2c        0x4 
 .text.rt_test_008_009_setup.lto_priv.0
                0x08000b30       0x28 C:\Users\Ridwane\AppData\Local\Temp\ccbHz2Im.ltrans0.ltrans.o
                0x08000b30                rt_test_008_009_setup.lto_priv.0
 *fill*         0x08000b58        0x8 
 .text.h1       0x08000b60       0x1c C:\Users\Ridwane\AppData\Local\Temp\ccbHz2Im.ltrans0.ltrans.o
 *fill*         0x08000b7c        0x4 
 .text.h2       0x08000b80       0x1c C:\Users\Ridwane\AppData\Local\Temp\ccbHz2Im.ltrans0.ltrans.o
 *fill*         0x08000b9c        0x4 
 .text.h3       0x08000ba0       0x1c C:\Users\Ridwane\AppData\Local\Temp\ccbHz2Im.ltrans0.ltrans.o
 *fill*         0x08000bbc        0x4 
 .text.rt_test_010_001_execute.lto_priv.0
                0x08000bc0       0xfc C:\Users\Ridwane\AppData\Local\Temp\ccbHz2Im.ltrans0.ltrans.o
                0x08000bc0                rt_test_010_001_execute.lto_priv.0
 *fill*         0x08000cbc        0x4 
 .text.rt_test_010_002_setup
                0x08000cc0       0x18 C:\Users\Ridwane\AppData\Local\Temp\ccbHz2Im.ltrans0.ltrans.o
                0x08000cc0                rt_test_010_002_setup.lto_priv.0
 *fill*         0x08000cd8        0x8 
 .text.rt_test_010_002_execute.lto_priv.0
                0x08000ce0       0x50 C:\Users\Ridwane\AppData\Local\Temp\ccbHz2Im.ltrans0.ltrans.o
                0x08000ce0                rt_test_010_002_execute.lto_priv.0
 .text.rt_test_010_003_setup
                0x08000d30       0x18 C:\Users\Ridwane\AppData\Local\Temp\ccbHz2Im.ltrans0.ltrans.o
                0x08000d30                rt_test_010_003_setup.lto_priv.0
 *fill*         0x08000d48        0x8 
 .text.rt_test_010_004_setup
                0x08000d50       0x18 C:\Users\Ridwane\AppData\Local\Temp\ccbHz2Im.ltrans0.ltrans.o
                0x08000d50                rt_test_010_004_setup.lto_priv.0
 *fill*         0x08000d68        0x8 
 .text.rt_test_010_005_setup
                0x08000d70       0x18 C:\Users\Ridwane\AppData\Local\Temp\ccbHz2Im.ltrans0.ltrans.o
                0x08000d70                rt_test_010_005_setup.lto_priv.0
 *fill*         0x08000d88        0x8 
 .text.rt_test_010_006_setup.lto_priv.0
                0x08000d90       0x18 C:\Users\Ridwane\AppData\Local\Temp\ccbHz2Im.ltrans0.ltrans.o
                0x08000d90                rt_test_010_006_setup.lto_priv.0
 *fill*         0x08000da8        0x8 
 .text.rt_test_010_007_setup.lto_priv.0
                0x08000db0       0x28 C:\Users\Ridwane\AppData\Local\Temp\ccbHz2Im.ltrans0.ltrans.o
                0x08000db0                rt_test_010_007_setup.lto_priv.0
 *fill*         0x08000dd8        0x8 
 .text.dyn_thread1
                0x08000de0       0x1c C:\Users\Ridwane\AppData\Local\Temp\ccbHz2Im.ltrans0.ltrans.o
                0x08000de0                dyn_thread1.lto_priv.0
 *fill*         0x08000dfc        0x4 
 .text.rt_test_011_001_setup.lto_priv.0
                0x08000e00       0x34 C:\Users\Ridwane\AppData\Local\Temp\ccbHz2Im.ltrans0.ltrans.o
                0x08000e00                rt_test_011_001_setup.lto_priv.0
 *fill*         0x08000e34        0xc 
 .text.rt_test_011_002_setup.lto_priv.0
                0x08000e40       0x18 C:\Users\Ridwane\AppData\Local\Temp\ccbHz2Im.ltrans0.ltrans.o
                0x08000e40                rt_test_011_002_setup.lto_priv.0
 *fill*         0x08000e58        0x8 
 .text.tmo      0x08000e60        0x4 C:\Users\Ridwane\AppData\Local\Temp\ccbHz2Im.ltrans0.ltrans.o
 *fill*         0x08000e64        0xc 
 .text.rt_test_012_007_setup.lto_priv.0
                0x08000e70       0x10 C:\Users\Ridwane\AppData\Local\Temp\ccbHz2Im.ltrans0.ltrans.o
                0x08000e70                rt_test_012_007_setup.lto_priv.0
 .text.rt_test_012_010_setup.lto_priv.0
                0x08000e80       0x10 C:\Users\Ridwane\AppData\Local\Temp\ccbHz2Im.ltrans0.ltrans.o
                0x08000e80                rt_test_012_010_setup.lto_priv.0
 .text.rt_test_012_011_setup.lto_priv.0
                0x08000e90       0x10 C:\Users\Ridwane\AppData\Local\Temp\ccbHz2Im.ltrans0.ltrans.o
                0x08000e90                rt_test_012_011_setup.lto_priv.0
 .text.oslib_test_002_003_setup.lto_priv.0
                0x08000ea0       0x34 C:\Users\Ridwane\AppData\Local\Temp\ccbHz2Im.ltrans0.ltrans.o
                0x08000ea0                oslib_test_002_003_setup.lto_priv.0
 *fill*         0x08000ed4        0xc 
 .text.oslib_test_002_001_setup
                0x08000ee0       0x34 C:\Users\Ridwane\AppData\Local\Temp\ccbHz2Im.ltrans0.ltrans.o
                0x08000ee0                oslib_test_002_001_setup.lto_priv.0
 *fill*         0x08000f14        0xc 
 .text.oslib_test_002_002_setup
                0x08000f20       0x34 C:\Users\Ridwane\AppData\Local\Temp\ccbHz2Im.ltrans0.ltrans.o
                0x08000f20                oslib_test_002_002_setup.lto_priv.0
 *fill*         0x08000f54        0xc 
 .text.oslib_test_003_001_setup.lto_priv.0
                0x08000f60       0x48 C:\Users\Ridwane\AppData\Local\Temp\ccbHz2Im.ltrans0.ltrans.o
                0x08000f60                oslib_test_003_001_setup.lto_priv.0
 *fill*         0x08000fa8        0x8 
 .text.oslib_test_003_002_setup.lto_priv.0
                0x08000fb0       0x48 C:\Users\Ridwane\AppData\Local\Temp\ccbHz2Im.ltrans0.ltrans.o
                0x08000fb0                oslib_test_003_002_setup.lto_priv.0
 *fill*         0x08000ff8        0x8 
 .text.dis_func0
                0x08001000       0x20 C:\Users\Ridwane\AppData\Local\Temp\ccbHz2Im.ltrans0.ltrans.o
 .text.dis_func1
                0x08001020       0x18 C:\Users\Ridwane\AppData\Local\Temp\ccbHz2Im.ltrans0.ltrans.o
 *fill*         0x08001038        0x8 
 .text.dis_func2
                0x08001040       0x2c C:\Users\Ridwane\AppData\Local\Temp\ccbHz2Im.ltrans0.ltrans.o
 *fill*         0x0800106c        0x4 
 .text.dis_func3
                0x08001070       0x38 C:\Users\Ridwane\AppData\Local\Temp\ccbHz2Im.ltrans0.ltrans.o
 *fill*         0x080010a8        0x8 
 .text.dis_func4
                0x080010b0       0x48 C:\Users\Ridwane\AppData\Local\Temp\ccbHz2Im.ltrans0.ltrans.o
 *fill*         0x080010f8        0x8 
 .text.dis_func_end
                0x08001100       0x28 C:\Users\Ridwane\AppData\Local\Temp\ccbHz2Im.ltrans0.ltrans.o
 *fill*         0x08001128        0x8 
 .text.obj_write
                0x08001130       0x20 C:\Users\Ridwane\AppData\Local\Temp\ccbHz2Im.ltrans0.ltrans.o
 .text.null_provider
                0x08001150        0x4 C:\Users\Ridwane\AppData\Local\Temp\ccbHz2Im.ltrans0.ltrans.o
 *fill*         0x08001154        0xc 
 .text.oslib_test_007_001_setup.lto_priv.0
                0x08001160       0x14 C:\Users\Ridwane\AppData\Local\Temp\ccbHz2Im.ltrans0.ltrans.o
                0x08001160                oslib_test_007_001_setup.lto_priv.0
 *fill*         0x08001174        0xc 
 .text.oslib_test_007_001_execute.lto_priv.0
                0x08001180      0x198 C:\Users\Ridwane\AppData\Local\Temp\ccbHz2Im.ltrans0.ltrans.o
                0x08001180                oslib_test_007_001_execute.lto_priv.0
 *fill*         0x08001318        0x8 
 .text.oslib_test_007_003_setup.lto_priv.0
                0x08001320       0x1c C:\Users\Ridwane\AppData\Local\Temp\ccbHz2Im.ltrans0.ltrans.o
                0x08001320                oslib_test_007_003_setup.lto_priv.0
 *fill*         0x0800133c        0x4 
 .text.oslib_test_007_002_setup
                0x08001340       0x1c C:\Users\Ridwane\AppData\Local\Temp\ccbHz2Im.ltrans0.ltrans.o
                0x08001340                oslib_test_007_002_setup.lto_priv.0
 *fill*         0x0800135c        0x4 
 .text.oslib_test_008_001_setup.lto_priv.0
                0x08001360       0x34 C:\Users\Ridwane\AppData\Local\Temp\ccbHz2Im.ltrans0.ltrans.o
                0x08001360                oslib_test_008_001_setup.lto_priv.0
 *fill*         0x08001394        0xc 
 .text.__sch_wakeup.lto_priv.0
                0x080013a0       0x70 C:\Users\Ridwane\AppData\Local\Temp\ccbHz2Im.ltrans0.ltrans.o
                0x080013a0                __sch_wakeup.lto_priv.0
 .text.chSemSignalI
                0x08001410       0x38 C:\Users\Ridwane\AppData\Local\Temp\ccbHz2Im.ltrans0.ltrans.o
                0x08001410                chSemSignalI
 *fill*         0x08001448        0x8 
 .text.chMtxUnlockS
                0x08001450       0x68 C:\Users\Ridwane\AppData\Local\Temp\ccbHz2Im.ltrans0.ltrans.o
 *fill*         0x080014b8        0x8 
 .text.chEvtBroadcastFlagsI
                0x080014c0       0x74 C:\Users\Ridwane\AppData\Local\Temp\ccbHz2Im.ltrans0.ltrans.o
 *fill*         0x08001534        0xc 
 .text.chThdYield
                0x08001540       0x50 C:\Users\Ridwane\AppData\Local\Temp\ccbHz2Im.ltrans0.ltrans.o
 .text.chMsgSend
                0x08001590       0x6c C:\Users\Ridwane\AppData\Local\Temp\ccbHz2Im.ltrans0.ltrans.o
 *fill*         0x080015fc        0x4 
 .text.msg_thread1
                0x08001600       0x28 C:\Users\Ridwane\AppData\Local\Temp\ccbHz2Im.ltrans0.ltrans.o
 *fill*         0x08001628        0x8 
 .text.thread1.lto_priv.1
                0x08001630       0x6c C:\Users\Ridwane\AppData\Local\Temp\ccbHz2Im.ltrans0.ltrans.o
 *fill*         0x0800169c        0x4 
 .text.bmk_thread3
                0x080016a0       0x88 C:\Users\Ridwane\AppData\Local\Temp\ccbHz2Im.ltrans0.ltrans.o
 *fill*         0x08001728        0x8 
 .text.bmk_thread4
                0x08001730       0x3c C:\Users\Ridwane\AppData\Local\Temp\ccbHz2Im.ltrans0.ltrans.o
 *fill*         0x0800176c        0x4 
 .text.bmk_thread7
                0x08001770       0x6c C:\Users\Ridwane\AppData\Local\Temp\ccbHz2Im.ltrans0.ltrans.o
 *fill*         0x080017dc        0x4 
 .text.bmk_thread8
                0x080017e0       0x74 C:\Users\Ridwane\AppData\Local\Temp\ccbHz2Im.ltrans0.ltrans.o
 *fill*         0x08001854        0xc 
 .text.chDelegateCallVeneer
                0x08001860       0x24 C:\Users\Ridwane\AppData\Local\Temp\ccbHz2Im.ltrans0.ltrans.o
 *fill*         0x08001884        0xc 
 .text.rt_test_007_001_teardown.lto_priv.0
                0x08001890        0xc C:\Users\Ridwane\AppData\Local\Temp\ccbHz2Im.ltrans0.ltrans.o
                0x08001890                rt_test_007_001_teardown.lto_priv.0
 *fill*         0x0800189c        0x4 
 .text.oslib_test_002_003_teardown.lto_priv.0
                0x080018a0        0x4 C:\Users\Ridwane\AppData\Local\Temp\ccbHz2Im.ltrans0.ltrans.o
                0x080018a0                oslib_test_002_003_teardown.lto_priv.0
 *fill*         0x080018a4        0xc 
 .text.oslib_test_002_001_teardown
                0x080018b0        0x4 C:\Users\Ridwane\AppData\Local\Temp\ccbHz2Im.ltrans0.ltrans.o
                0x080018b0                oslib_test_002_001_teardown.lto_priv.0
 *fill*         0x080018b4        0xc 
 .text.oslib_test_002_002_teardown
                0x080018c0        0x4 C:\Users\Ridwane\AppData\Local\Temp\ccbHz2Im.ltrans0.ltrans.o
                0x080018c0                oslib_test_002_002_teardown.lto_priv.0
 *fill*         0x080018c4        0xc 
 .text.oslib_test_003_002_execute.lto_priv.0
                0x080018d0       0x88 C:\Users\Ridwane\AppData\Local\Temp\ccbHz2Im.ltrans0.ltrans.o
                0x080018d0                oslib_test_003_002_execute.lto_priv.0
 *fill*         0x08001958        0x8 
 .text.__cpu_init
                0x08001960        0x4 C:\Users\Ridwane\AppData\Local\Temp\ccbHz2Im.ltrans0.ltrans.o
                0x08001960                __cpu_init
 *fill*         0x08001964        0xc 
 .text.__late_init
                0x08001970        0x4 C:\Users\Ridwane\AppData\Local\Temp\ccbHz2Im.ltrans0.ltrans.o
                0x08001970                __late_init
 *fill*         0x08001974        0xc 
 .text.__default_exit
                0x08001980        0x4 C:\Users\Ridwane\AppData\Local\Temp\ccbHz2Im.ltrans0.ltrans.o
                0x08001980                __default_exit
 *fill*         0x08001984        0xc 
 .text.__init_ram_areas
                0x08001990       0x6c C:\Users\Ridwane\AppData\Local\Temp\ccbHz2Im.ltrans0.ltrans.o
                0x08001990                __init_ram_areas
 *fill*         0x080019fc        0x4 
 .text.VectorD8
                0x08001a00      0x22c C:\Users\Ridwane\AppData\Local\Temp\ccbHz2Im.ltrans0.ltrans.o
                0x08001a00                VectorD8
 *fill*         0x08001c2c        0x4 
 .text.VectorB0
                0x08001c30      0x168 C:\Users\Ridwane\AppData\Local\Temp\ccbHz2Im.ltrans0.ltrans.o
                0x08001c30                VectorB0
 *fill*         0x08001d98        0x8 
 .text.__early_init
                0x08001da0      0x290 C:\Users\Ridwane\AppData\Local\Temp\ccbHz2Im.ltrans0.ltrans.o
                0x08001da0                __early_init
 .text.chVTDoResetI
                0x08002030       0xa4 C:\Users\Ridwane\AppData\Local\Temp\ccbHz2Im.ltrans0.ltrans.o
                0x08002030                chVTDoResetI
 *fill*         0x080020d4        0xc 
 .text.test_wait_tick
                0x080020e0       0x68 C:\Users\Ridwane\AppData\Local\Temp\ccbHz2Im.ltrans0.ltrans.o
 *fill*         0x08002148        0x8 
 .text.job_slow
                0x08002150       0x70 C:\Users\Ridwane\AppData\Local\Temp\ccbHz2Im.ltrans0.ltrans.o
 .text.__sch_reschedule_ahead.lto_priv.0
                0x080021c0       0x3c C:\Users\Ridwane\AppData\Local\Temp\ccbHz2Im.ltrans0.ltrans.o
                0x080021c0                __sch_reschedule_ahead.lto_priv.0
                0x080021c0                chSchDoPreemption
 *fill*         0x080021fc        0x4 
 .text.vtcb     0x08002200       0x50 C:\Users\Ridwane\AppData\Local\Temp\ccbHz2Im.ltrans0.ltrans.o
 .text.rt_test_005_003_execute.lto_priv.0
                0x08002250       0xbc C:\Users\Ridwane\AppData\Local\Temp\ccbHz2Im.ltrans0.ltrans.o
                0x08002250                rt_test_005_003_execute.lto_priv.0
 *fill*         0x0800230c        0x4 
 .text.rt_test_005_004_execute.lto_priv.0
                0x08002310      0x108 C:\Users\Ridwane\AppData\Local\Temp\ccbHz2Im.ltrans0.ltrans.o
                0x08002310                rt_test_005_004_execute.lto_priv.0
 *fill*         0x08002418        0x8 
 .text.thread1.lto_priv.0
                0x08002420       0x6c C:\Users\Ridwane\AppData\Local\Temp\ccbHz2Im.ltrans0.ltrans.o
 *fill*         0x0800248c        0x4 
 .text.thread4  0x08002490       0x34 C:\Users\Ridwane\AppData\Local\Temp\ccbHz2Im.ltrans0.ltrans.o
 *fill*         0x080024c4        0xc 
 .text.obj_read
                0x080024d0       0xc8 C:\Users\Ridwane\AppData\Local\Temp\ccbHz2Im.ltrans0.ltrans.o
 *fill*         0x08002598        0x8 
 .text.oslib_test_006_001_execute.lto_priv.0
                0x080025a0      0x5e8 C:\Users\Ridwane\AppData\Local\Temp\ccbHz2Im.ltrans0.ltrans.o
                0x080025a0                oslib_test_006_001_execute.lto_priv.0
 *fill*         0x08002b88        0x8 
 .text.chSchGoSleepTimeoutS
                0x08002b90       0x70 C:\Users\Ridwane\AppData\Local\Temp\ccbHz2Im.ltrans0.ltrans.o
                0x08002b90                chSchGoSleepTimeoutS
 .text.iqReadTimeout
                0x08002c00       0xe0 C:\Users\Ridwane\AppData\Local\Temp\ccbHz2Im.ltrans0.ltrans.o
 .text._read.lto_priv.0
                0x08002ce0        0xc C:\Users\Ridwane\AppData\Local\Temp\ccbHz2Im.ltrans0.ltrans.o
                0x08002ce0                _read.lto_priv.0
 *fill*         0x08002cec        0x4 
 .text._readt.lto_priv.0
                0x08002cf0        0x8 C:\Users\Ridwane\AppData\Local\Temp\ccbHz2Im.ltrans0.ltrans.o
                0x08002cf0                _readt.lto_priv.0
 *fill*         0x08002cf8        0x8 
 .text.iqGetTimeout
                0x08002d00       0x6c C:\Users\Ridwane\AppData\Local\Temp\ccbHz2Im.ltrans0.ltrans.o
 *fill*         0x08002d6c        0x4 
 .text._get.lto_priv.0
                0x08002d70        0xc C:\Users\Ridwane\AppData\Local\Temp\ccbHz2Im.ltrans0.ltrans.o
                0x08002d70                _get.lto_priv.0
 *fill*         0x08002d7c        0x4 
 .text._gett.lto_priv.0
                0x08002d80        0x8 C:\Users\Ridwane\AppData\Local\Temp\ccbHz2Im.ltrans0.ltrans.o
                0x08002d80                _gett.lto_priv.0
 *fill*         0x08002d88        0x8 
 .text.oqPutTimeout
                0x08002d90       0x78 C:\Users\Ridwane\AppData\Local\Temp\ccbHz2Im.ltrans0.ltrans.o
 *fill*         0x08002e08        0x8 
 .text._put.lto_priv.0
                0x08002e10        0xc C:\Users\Ridwane\AppData\Local\Temp\ccbHz2Im.ltrans0.ltrans.o
                0x08002e10                _put.lto_priv.0
 *fill*         0x08002e1c        0x4 
 .text._putt.lto_priv.0
                0x08002e20        0x8 C:\Users\Ridwane\AppData\Local\Temp\ccbHz2Im.ltrans0.ltrans.o
                0x08002e20                _putt.lto_priv.0
 *fill*         0x08002e28        0x8 
 .text.oqWriteTimeout
                0x08002e30       0xd8 C:\Users\Ridwane\AppData\Local\Temp\ccbHz2Im.ltrans0.ltrans.o
 *fill*         0x08002f08        0x8 
 .text._write.lto_priv.0
                0x08002f10        0xc C:\Users\Ridwane\AppData\Local\Temp\ccbHz2Im.ltrans0.ltrans.o
                0x08002f10                _write.lto_priv.0
 *fill*         0x08002f1c        0x4 
 .text._writet.lto_priv.0
                0x08002f20        0x8 C:\Users\Ridwane\AppData\Local\Temp\ccbHz2Im.ltrans0.ltrans.o
                0x08002f20                _writet.lto_priv.0
 *fill*         0x08002f28        0x8 
 .text.chMBPostTimeout
                0x08002f30       0xd0 C:\Users\Ridwane\AppData\Local\Temp\ccbHz2Im.ltrans0.ltrans.o
 .text.chMBFetchTimeoutS
                0x08003000       0xa4 C:\Users\Ridwane\AppData\Local\Temp\ccbHz2Im.ltrans0.ltrans.o
 *fill*         0x080030a4        0xc 
 .text.oslib_test_002_003_execute.lto_priv.0
                0x080030b0      0x170 C:\Users\Ridwane\AppData\Local\Temp\ccbHz2Im.ltrans0.ltrans.o
                0x080030b0                oslib_test_002_003_execute.lto_priv.0
 .text.Thread1.lto_priv.0
                0x08003220       0x9c C:\Users\Ridwane\AppData\Local\Temp\ccbHz2Im.ltrans0.ltrans.o
 *fill*         0x080032bc        0x4 
 .text.chGuardedPoolAllocTimeout
                0x080032c0       0x68 C:\Users\Ridwane\AppData\Local\Temp\ccbHz2Im.ltrans0.ltrans.o
 *fill*         0x08003328        0x8 
 .text.oslib_test_007_002_execute.lto_priv.0
                0x08003330      0x160 C:\Users\Ridwane\AppData\Local\Temp\ccbHz2Im.ltrans0.ltrans.o
                0x08003330                oslib_test_007_002_execute.lto_priv.0
 .text.oslib_test_007_003_execute.lto_priv.0
                0x08003490       0x30 C:\Users\Ridwane\AppData\Local\Temp\ccbHz2Im.ltrans0.ltrans.o
                0x08003490                oslib_test_007_003_execute.lto_priv.0
 .text.rt_test_002_002_execute.lto_priv.0
                0x080034c0      0x134 C:\Users\Ridwane\AppData\Local\Temp\ccbHz2Im.ltrans0.ltrans.o
                0x080034c0                rt_test_002_002_execute.lto_priv.0
 *fill*         0x080035f4        0xc 
 .text.rt_test_004_001_execute.lto_priv.0
                0x08003600       0xa8 C:\Users\Ridwane\AppData\Local\Temp\ccbHz2Im.ltrans0.ltrans.o
                0x08003600                rt_test_004_001_execute.lto_priv.0
 *fill*         0x080036a8        0x8 
 .text.rt_test_005_001_execute.lto_priv.0
                0x080036b0       0xec C:\Users\Ridwane\AppData\Local\Temp\ccbHz2Im.ltrans0.ltrans.o
                0x080036b0                rt_test_005_001_execute.lto_priv.0
 *fill*         0x0800379c        0x4 
 .text.thread2  0x080037a0       0x70 C:\Users\Ridwane\AppData\Local\Temp\ccbHz2Im.ltrans0.ltrans.o
 .text.evt_thread3
                0x08003810       0x80 C:\Users\Ridwane\AppData\Local\Temp\ccbHz2Im.ltrans0.ltrans.o
 .text.evt_thread7
                0x08003890       0x6c C:\Users\Ridwane\AppData\Local\Temp\ccbHz2Im.ltrans0.ltrans.o
 *fill*         0x080038fc        0x4 
 .text.rt_test_010_006_execute.lto_priv.0
                0x08003900      0x128 C:\Users\Ridwane\AppData\Local\Temp\ccbHz2Im.ltrans0.ltrans.o
                0x08003900                rt_test_010_006_execute.lto_priv.0
 *fill*         0x08003a28        0x8 
 .text.msg_loop_test
                0x08003a30       0xb8 C:\Users\Ridwane\AppData\Local\Temp\ccbHz2Im.ltrans0.ltrans.o
 *fill*         0x08003ae8        0x8 
 .text.chSchWakeupS
                0x08003af0       0x60 C:\Users\Ridwane\AppData\Local\Temp\ccbHz2Im.ltrans0.ltrans.o
                0x08003af0                chSchWakeupS
 .text.rt_test_007_001_execute.lto_priv.0
                0x08003b50      0x108 C:\Users\Ridwane\AppData\Local\Temp\ccbHz2Im.ltrans0.ltrans.o
                0x08003b50                rt_test_007_001_execute.lto_priv.0
 *fill*         0x08003c58        0x8 
 .text.thread3  0x08003c60       0x7c C:\Users\Ridwane\AppData\Local\Temp\ccbHz2Im.ltrans0.ltrans.o
 *fill*         0x08003cdc        0x4 
 .text.bmk_thread1
                0x08003ce0       0x6c C:\Users\Ridwane\AppData\Local\Temp\ccbHz2Im.ltrans0.ltrans.o
 *fill*         0x08003d4c        0x4 
 .text.chThdCreateSuspendedI
                0x08003d50       0x88 C:\Users\Ridwane\AppData\Local\Temp\ccbHz2Im.ltrans0.ltrans.o
                0x08003d50                chThdCreateSuspendedI
 *fill*         0x08003dd8        0x8 
 .text.chThdCreateStatic
                0x08003de0       0x7c C:\Users\Ridwane\AppData\Local\Temp\ccbHz2Im.ltrans0.ltrans.o
                0x08003de0                chThdCreateStatic
 *fill*         0x08003e5c        0x4 
 .text.rt_test_007_005_execute.lto_priv.0
                0x08003e60       0x88 C:\Users\Ridwane\AppData\Local\Temp\ccbHz2Im.ltrans0.ltrans.o
                0x08003e60                rt_test_007_005_execute.lto_priv.0
 *fill*         0x08003ee8        0x8 
 .text.rt_test_007_006_execute.lto_priv.0
                0x08003ef0      0x214 C:\Users\Ridwane\AppData\Local\Temp\ccbHz2Im.ltrans0.ltrans.o
                0x08003ef0                rt_test_007_006_execute.lto_priv.0
 *fill*         0x08004104        0xc 
 .text.chThdExit
                0x08004110       0x88 C:\Users\Ridwane\AppData\Local\Temp\ccbHz2Im.ltrans0.ltrans.o
                0x08004110                chThdExit
 *fill*         0x08004198        0x8 
 .text.Thread1.lto_priv.1
                0x080041a0       0x94 C:\Users\Ridwane\AppData\Local\Temp\ccbHz2Im.ltrans0.ltrans.o
 *fill*         0x08004234        0xc 
 .text.chTMStartMeasurementX
                0x08004240        0xc C:\Users\Ridwane\AppData\Local\Temp\ccbHz2Im.ltrans0.ltrans.o
                0x08004240                chTMStartMeasurementX
 *fill*         0x0800424c        0x4 
 .text.chTMStopMeasurementX
                0x08004250       0x44 C:\Users\Ridwane\AppData\Local\Temp\ccbHz2Im.ltrans0.ltrans.o
                0x08004250                chTMStopMeasurementX
 *fill*         0x08004294        0xc 
 .text.chMtxLockS
                0x080042a0       0xe4 C:\Users\Ridwane\AppData\Local\Temp\ccbHz2Im.ltrans0.ltrans.o
                0x080042a0                chMtxLockS
 *fill*         0x08004384        0xc 
 .text.thread4B
                0x08004390       0x4c C:\Users\Ridwane\AppData\Local\Temp\ccbHz2Im.ltrans0.ltrans.o
 *fill*         0x080043dc        0x4 
 .text.chMtxUnlock
                0x080043e0       0x84 C:\Users\Ridwane\AppData\Local\Temp\ccbHz2Im.ltrans0.ltrans.o
                0x080043e0                chMtxUnlock
 *fill*         0x08004464        0xc 
 .text.chHeapStatus
                0x08004470       0x6c C:\Users\Ridwane\AppData\Local\Temp\ccbHz2Im.ltrans0.ltrans.o
                0x08004470                chHeapStatus
 *fill*         0x080044dc        0x4 
 .text.thread1.lto_priv.2
                0x080044e0       0x3c C:\Users\Ridwane\AppData\Local\Temp\ccbHz2Im.ltrans0.ltrans.o
 *fill*         0x0800451c        0x4 
 .text.thread4A
                0x08004520       0x78 C:\Users\Ridwane\AppData\Local\Temp\ccbHz2Im.ltrans0.ltrans.o
 *fill*         0x08004598        0x8 
 .text.thread6  0x080045a0       0xa0 C:\Users\Ridwane\AppData\Local\Temp\ccbHz2Im.ltrans0.ltrans.o
 .text.thread8  0x08004640       0xc0 C:\Users\Ridwane\AppData\Local\Temp\ccbHz2Im.ltrans0.ltrans.o
 .text.thread9  0x08004700       0x3c C:\Users\Ridwane\AppData\Local\Temp\ccbHz2Im.ltrans0.ltrans.o
 *fill*         0x0800473c        0x4 
 .text.rt_test_008_004_execute.lto_priv.0
                0x08004740      0x120 C:\Users\Ridwane\AppData\Local\Temp\ccbHz2Im.ltrans0.ltrans.o
                0x08004740                rt_test_008_004_execute.lto_priv.0
 .text.rt_test_008_005_execute.lto_priv.0
                0x08004860      0x190 C:\Users\Ridwane\AppData\Local\Temp\ccbHz2Im.ltrans0.ltrans.o
                0x08004860                rt_test_008_005_execute.lto_priv.0
 .text.chHeapAllocAligned
                0x080049f0       0xfc C:\Users\Ridwane\AppData\Local\Temp\ccbHz2Im.ltrans0.ltrans.o
                0x080049f0                chHeapAllocAligned
 *fill*         0x08004aec        0x4 
 .text.chHeapFree
                0x08004af0       0xa0 C:\Users\Ridwane\AppData\Local\Temp\ccbHz2Im.ltrans0.ltrans.o
                0x08004af0                chHeapFree
 .text.chThdRelease.part.0
                0x08004b90       0x3c C:\Users\Ridwane\AppData\Local\Temp\ccbHz2Im.ltrans0.ltrans.o
 *fill*         0x08004bcc        0x4 
 .text.chThdWait
                0x08004bd0       0x70 C:\Users\Ridwane\AppData\Local\Temp\ccbHz2Im.ltrans0.ltrans.o
 .text.rt_test_010_003_execute.lto_priv.0
                0x08004c40      0x11c C:\Users\Ridwane\AppData\Local\Temp\ccbHz2Im.ltrans0.ltrans.o
                0x08004c40                rt_test_010_003_execute.lto_priv.0
 *fill*         0x08004d5c        0x4 
 .text.rt_test_005_002_execute.lto_priv.0
                0x08004d60      0x250 C:\Users\Ridwane\AppData\Local\Temp\ccbHz2Im.ltrans0.ltrans.o
                0x08004d60                rt_test_005_002_execute.lto_priv.0
 .text.rt_test_006_001_execute.lto_priv.0
                0x08004fb0      0x114 C:\Users\Ridwane\AppData\Local\Temp\ccbHz2Im.ltrans0.ltrans.o
                0x08004fb0                rt_test_006_001_execute.lto_priv.0
 *fill*         0x080050c4        0xc 
 .text.rt_test_007_002_execute.lto_priv.0
                0x080050d0      0x1ac C:\Users\Ridwane\AppData\Local\Temp\ccbHz2Im.ltrans0.ltrans.o
                0x080050d0                rt_test_007_002_execute.lto_priv.0
 *fill*         0x0800527c        0x4 
 .text.rt_test_007_003_execute.lto_priv.0
                0x08005280      0x1bc C:\Users\Ridwane\AppData\Local\Temp\ccbHz2Im.ltrans0.ltrans.o
                0x08005280                rt_test_007_003_execute.lto_priv.0
 *fill*         0x0800543c        0x4 
 .text.rt_test_007_004_execute.lto_priv.0
                0x08005440      0x100 C:\Users\Ridwane\AppData\Local\Temp\ccbHz2Im.ltrans0.ltrans.o
                0x08005440                rt_test_007_004_execute.lto_priv.0
 .text.rt_test_007_005_teardown
                0x08005540       0x24 C:\Users\Ridwane\AppData\Local\Temp\ccbHz2Im.ltrans0.ltrans.o
                0x08005540                rt_test_007_005_teardown.lto_priv.0
 *fill*         0x08005564        0xc 
 .text.rt_test_007_006_teardown.lto_priv.0
                0x08005570       0x24 C:\Users\Ridwane\AppData\Local\Temp\ccbHz2Im.ltrans0.ltrans.o
                0x08005570                rt_test_007_006_teardown.lto_priv.0
 *fill*         0x08005594        0xc 
 .text.rt_test_008_001_execute.lto_priv.0
                0x080055a0      0x130 C:\Users\Ridwane\AppData\Local\Temp\ccbHz2Im.ltrans0.ltrans.o
                0x080055a0                rt_test_008_001_execute.lto_priv.0
 .text.rt_test_008_004_teardown
                0x080056d0       0x24 C:\Users\Ridwane\AppData\Local\Temp\ccbHz2Im.ltrans0.ltrans.o
                0x080056d0                rt_test_008_004_teardown.lto_priv.0
 *fill*         0x080056f4        0xc 
 .text.rt_test_008_007_execute.lto_priv.0
                0x08005700      0x1cc C:\Users\Ridwane\AppData\Local\Temp\ccbHz2Im.ltrans0.ltrans.o
                0x08005700                rt_test_008_007_execute.lto_priv.0
 *fill*         0x080058cc        0x4 
 .text.rt_test_008_008_execute.lto_priv.0
                0x080058d0      0x138 C:\Users\Ridwane\AppData\Local\Temp\ccbHz2Im.ltrans0.ltrans.o
                0x080058d0                rt_test_008_008_execute.lto_priv.0
 *fill*         0x08005a08        0x8 
 .text.rt_test_008_009_execute.lto_priv.0
                0x08005a10      0x100 C:\Users\Ridwane\AppData\Local\Temp\ccbHz2Im.ltrans0.ltrans.o
                0x08005a10                rt_test_008_009_execute.lto_priv.0
 .text.rt_test_009_001_execute.lto_priv.0
                0x08005b10       0xe8 C:\Users\Ridwane\AppData\Local\Temp\ccbHz2Im.ltrans0.ltrans.o
                0x08005b10                rt_test_009_001_execute.lto_priv.0
 *fill*         0x08005bf8        0x8 
 .text.rt_test_010_004_execute.lto_priv.0
                0x08005c00      0x180 C:\Users\Ridwane\AppData\Local\Temp\ccbHz2Im.ltrans0.ltrans.o
                0x08005c00                rt_test_010_004_execute.lto_priv.0
 .text.rt_test_010_005_execute.lto_priv.0
                0x08005d80      0x174 C:\Users\Ridwane\AppData\Local\Temp\ccbHz2Im.ltrans0.ltrans.o
                0x08005d80                rt_test_010_005_execute.lto_priv.0
 *fill*         0x08005ef4        0xc 
 .text.rt_test_010_007_execute.lto_priv.0
                0x08005f00      0x1f0 C:\Users\Ridwane\AppData\Local\Temp\ccbHz2Im.ltrans0.ltrans.o
                0x08005f00                rt_test_010_007_execute.lto_priv.0
 .text.rt_test_011_001_execute.lto_priv.0
                0x080060f0      0x1e8 C:\Users\Ridwane\AppData\Local\Temp\ccbHz2Im.ltrans0.ltrans.o
                0x080060f0                rt_test_011_001_execute.lto_priv.0
 *fill*         0x080062d8        0x8 
 .text.rt_test_011_002_execute.lto_priv.0
                0x080062e0      0x1a4 C:\Users\Ridwane\AppData\Local\Temp\ccbHz2Im.ltrans0.ltrans.o
                0x080062e0                rt_test_011_002_execute.lto_priv.0
 *fill*         0x08006484        0xc 
 .text.oslib_test_004_001_execute.lto_priv.0
                0x08006490      0x1e4 C:\Users\Ridwane\AppData\Local\Temp\ccbHz2Im.ltrans0.ltrans.o
                0x08006490                oslib_test_004_001_execute.lto_priv.0
 *fill*         0x08006674        0xc 
 .text.oslib_test_005_001_execute.lto_priv.0
                0x08006680      0x148 C:\Users\Ridwane\AppData\Local\Temp\ccbHz2Im.ltrans0.ltrans.o
                0x08006680                oslib_test_005_001_execute.lto_priv.0
 *fill*         0x080067c8        0x8 
 .text.dyn_create_object_heap.lto_priv.0
                0x080067d0       0x64 C:\Users\Ridwane\AppData\Local\Temp\ccbHz2Im.ltrans0.ltrans.o
                0x080067d0                dyn_create_object_heap.lto_priv.0
 *fill*         0x08006834        0xc 
 .text.chFactoryReleaseObject
                0x08006840       0x64 C:\Users\Ridwane\AppData\Local\Temp\ccbHz2Im.ltrans0.ltrans.o
                0x08006840                chFactoryReleaseObject
 *fill*         0x080068a4        0xc 
 .text.chFactoryReleaseBuffer
                0x080068b0       0x50 C:\Users\Ridwane\AppData\Local\Temp\ccbHz2Im.ltrans0.ltrans.o
                0x080068b0                chFactoryReleaseBuffer
 .text.chFactoryReleaseSemaphore
                0x08006900       0x64 C:\Users\Ridwane\AppData\Local\Temp\ccbHz2Im.ltrans0.ltrans.o
                0x08006900                chFactoryReleaseSemaphore
 *fill*         0x08006964        0xc 
 .text.chFactoryReleaseMailbox
                0x08006970       0x50 C:\Users\Ridwane\AppData\Local\Temp\ccbHz2Im.ltrans0.ltrans.o
                0x08006970                chFactoryReleaseMailbox
 .text.chFactoryReleaseObjectsFIFO
                0x080069c0       0x50 C:\Users\Ridwane\AppData\Local\Temp\ccbHz2Im.ltrans0.ltrans.o
                0x080069c0                chFactoryReleaseObjectsFIFO
 .text.chFactoryReleasePipe
                0x08006a10       0x50 C:\Users\Ridwane\AppData\Local\Temp\ccbHz2Im.ltrans0.ltrans.o
                0x08006a10                chFactoryReleasePipe
 .text.SVC_Handler
                0x08006a60       0x14 C:\Users\Ridwane\AppData\Local\Temp\ccbHz2Im.ltrans0.ltrans.o
                0x08006a60                SVC_Handler
 *fill*         0x08006a74        0xc 
 .text.__test_assert
                0x08006a80       0x18 C:\Users\Ridwane\AppData\Local\Temp\ccbHz2Im.ltrans0.ltrans.o
                0x08006a80                __test_assert
 *fill*         0x08006a98        0x8 
 .text.oslib_test_002_001_execute.lto_priv.0
                0x08006aa0      0x320 C:\Users\Ridwane\AppData\Local\Temp\ccbHz2Im.ltrans0.ltrans.o
                0x08006aa0                oslib_test_002_001_execute.lto_priv.0
 .text.oslib_test_002_002_execute.lto_priv.0
                0x08006dc0      0x424 C:\Users\Ridwane\AppData\Local\Temp\ccbHz2Im.ltrans0.ltrans.o
                0x08006dc0                oslib_test_002_002_execute.lto_priv.0
 *fill*         0x080071e4        0xc 
 .text.oslib_test_003_001_execute.lto_priv.0
                0x080071f0      0x48c C:\Users\Ridwane\AppData\Local\Temp\ccbHz2Im.ltrans0.ltrans.o
                0x080071f0                oslib_test_003_001_execute.lto_priv.0
 *fill*         0x0800767c        0x4 
 .text.oslib_test_008_001_execute.lto_priv.0
                0x08007680      0x43c C:\Users\Ridwane\AppData\Local\Temp\ccbHz2Im.ltrans0.ltrans.o
                0x08007680                oslib_test_008_001_execute.lto_priv.0
 *fill*         0x08007abc        0x4 
 .text.test_printf
                0x08007ac0      0x430 C:\Users\Ridwane\AppData\Local\Temp\ccbHz2Im.ltrans0.ltrans.o
                0x08007ac0                test_printf
 .text.rt_test_001_001_execute.lto_priv.0
                0x08007ef0       0xdc C:\Users\Ridwane\AppData\Local\Temp\ccbHz2Im.ltrans0.ltrans.o
                0x08007ef0                rt_test_001_001_execute.lto_priv.0
 *fill*         0x08007fcc        0x4 
 .text.oslib_test_001_001_execute
                0x08007fd0        0x4 C:\Users\Ridwane\AppData\Local\Temp\ccbHz2Im.ltrans0.ltrans.o
                0x08007fd0                oslib_test_001_001_execute.lto_priv.0
 *fill*         0x08007fd4        0xc 
 .text.rt_test_001_002_execute.lto_priv.0
                0x08007fe0       0xbc C:\Users\Ridwane\AppData\Local\Temp\ccbHz2Im.ltrans0.ltrans.o
                0x08007fe0                rt_test_001_002_execute.lto_priv.0
 *fill*         0x0800809c        0x4 
 .text.rt_test_001_003_execute.lto_priv.0
                0x080080a0      0x3b0 C:\Users\Ridwane\AppData\Local\Temp\ccbHz2Im.ltrans0.ltrans.o
                0x080080a0                rt_test_001_003_execute.lto_priv.0
 .text.rt_test_012_001_execute.lto_priv.0
                0x08008450       0xb0 C:\Users\Ridwane\AppData\Local\Temp\ccbHz2Im.ltrans0.ltrans.o
                0x08008450                rt_test_012_001_execute.lto_priv.0
 .text.rt_test_012_002_execute.lto_priv.0
                0x08008500       0xb0 C:\Users\Ridwane\AppData\Local\Temp\ccbHz2Im.ltrans0.ltrans.o
                0x08008500                rt_test_012_002_execute.lto_priv.0
 .text.rt_test_012_003_execute.lto_priv.0
                0x080085b0      0x124 C:\Users\Ridwane\AppData\Local\Temp\ccbHz2Im.ltrans0.ltrans.o
                0x080085b0                rt_test_012_003_execute.lto_priv.0
 *fill*         0x080086d4        0xc 
 .text.rt_test_012_004_execute.lto_priv.0
                0x080086e0      0x114 C:\Users\Ridwane\AppData\Local\Temp\ccbHz2Im.ltrans0.ltrans.o
                0x080086e0                rt_test_012_004_execute.lto_priv.0
 *fill*         0x080087f4        0xc 
 .text.rt_test_012_005_execute.lto_priv.0
                0x08008800       0xb4 C:\Users\Ridwane\AppData\Local\Temp\ccbHz2Im.ltrans0.ltrans.o
                0x08008800                rt_test_012_005_execute.lto_priv.0
 *fill*         0x080088b4        0xc 
 .text.rt_test_012_006_execute.lto_priv.0
                0x080088c0       0xd8 C:\Users\Ridwane\AppData\Local\Temp\ccbHz2Im.ltrans0.ltrans.o
                0x080088c0                rt_test_012_006_execute.lto_priv.0
 *fill*         0x08008998        0x8 
 .text.rt_test_012_007_execute.lto_priv.0
                0x080089a0      0x18c C:\Users\Ridwane\AppData\Local\Temp\ccbHz2Im.ltrans0.ltrans.o
                0x080089a0                rt_test_012_007_execute.lto_priv.0
 *fill*         0x08008b2c        0x4 
 .text.rt_test_012_008_execute.lto_priv.0
                0x08008b30      0x144 C:\Users\Ridwane\AppData\Local\Temp\ccbHz2Im.ltrans0.ltrans.o
                0x08008b30                rt_test_012_008_execute.lto_priv.0
 *fill*         0x08008c74        0xc 
 .text.rt_test_012_009_execute.lto_priv.0
                0x08008c80       0xcc C:\Users\Ridwane\AppData\Local\Temp\ccbHz2Im.ltrans0.ltrans.o
                0x08008c80                rt_test_012_009_execute.lto_priv.0
 *fill*         0x08008d4c        0x4 
 .text.rt_test_012_010_execute.lto_priv.0
                0x08008d50      0x1f8 C:\Users\Ridwane\AppData\Local\Temp\ccbHz2Im.ltrans0.ltrans.o
                0x08008d50                rt_test_012_010_execute.lto_priv.0
 *fill*         0x08008f48        0x8 
 .text.rt_test_012_011_execute.lto_priv.0
                0x08008f50       0xd8 C:\Users\Ridwane\AppData\Local\Temp\ccbHz2Im.ltrans0.ltrans.o
                0x08008f50                rt_test_012_011_execute.lto_priv.0
 *fill*         0x08009028        0x8 
 .text.rt_test_012_012_execute.lto_priv.0
                0x08009030      0x14c C:\Users\Ridwane\AppData\Local\Temp\ccbHz2Im.ltrans0.ltrans.o
                0x08009030                rt_test_012_012_execute.lto_priv.0
 *fill*         0x0800917c        0x4 
 .text.oslib_test_001_002_execute.lto_priv.0
                0x08009180       0xc4 C:\Users\Ridwane\AppData\Local\Temp\ccbHz2Im.ltrans0.ltrans.o
                0x08009180                oslib_test_001_002_execute.lto_priv.0
 *fill*         0x08009244        0xc 
 .text.oslib_test_001_003_execute.lto_priv.0
                0x08009250      0x1ec C:\Users\Ridwane\AppData\Local\Temp\ccbHz2Im.ltrans0.ltrans.o
                0x08009250                oslib_test_001_003_execute.lto_priv.0
 *fill*         0x0800943c        0x4 
 .text.modp_R2  0x08009440       0xd4 C:\Users\Ridwane\AppData\Local\Temp\ccbHz2Im.ltrans1.ltrans.o
 *fill*         0x08009514        0xc 
 .text.modp_mkgm2
                0x08009520      0x1ac C:\Users\Ridwane\AppData\Local\Temp\ccbHz2Im.ltrans1.ltrans.o
 *fill*         0x080096cc        0x4 
 .text.modp_poly_rec_res
                0x080096d0       0x7c C:\Users\Ridwane\AppData\Local\Temp\ccbHz2Im.ltrans1.ltrans.o
 *fill*         0x0800974c        0x4 
 .text.zint_mod_small_unsigned
                0x08009750       0x54 C:\Users\Ridwane\AppData\Local\Temp\ccbHz2Im.ltrans1.ltrans.o
 *fill*         0x080097a4        0xc 
 .text.zint_finish_mod
                0x080097b0       0x58 C:\Users\Ridwane\AppData\Local\Temp\ccbHz2Im.ltrans1.ltrans.o
 *fill*         0x08009808        0x8 
 .text.zint_co_reduce_mod
                0x08009810      0x150 C:\Users\Ridwane\AppData\Local\Temp\ccbHz2Im.ltrans1.ltrans.o
 .text.poly_sub_scaled
                0x08009960      0x140 C:\Users\Ridwane\AppData\Local\Temp\ccbHz2Im.ltrans1.ltrans.o
 .text.modp_NTT2_ext.part.0
                0x08009aa0       0xdc C:\Users\Ridwane\AppData\Local\Temp\ccbHz2Im.ltrans1.ltrans.o
 *fill*         0x08009b7c        0x4 
 .text.modp_iNTT2_ext.part.0
                0x08009b80      0x124 C:\Users\Ridwane\AppData\Local\Temp\ccbHz2Im.ltrans1.ltrans.o
 *fill*         0x08009ca4        0xc 
 .text.process_block
                0x08009cb0      0x8b4 C:\Users\Ridwane\AppData\Local\Temp\ccbHz2Im.ltrans1.ltrans.o
 *fill*         0x0800a564        0xc 
 .text.mq_NTT.constprop.0
                0x0800a570       0xd4 C:\Users\Ridwane\AppData\Local\Temp\ccbHz2Im.ltrans1.ltrans.o
 *fill*         0x0800a644        0xc 
 .text.zint_rebuild_CRT.constprop.0
                0x0800a650      0x214 C:\Users\Ridwane\AppData\Local\Temp\ccbHz2Im.ltrans1.ltrans.o
 *fill*         0x0800a864        0xc 
 .text.poly_sub_scaled_ntt
                0x0800a870      0x368 C:\Users\Ridwane\AppData\Local\Temp\ccbHz2Im.ltrans1.ltrans.o
 *fill*         0x0800abd8        0x8 
 .text.falcon_inner_trim_i8_encode.constprop.0
                0x0800abe0       0x98 C:\Users\Ridwane\AppData\Local\Temp\ccbHz2Im.ltrans1.ltrans.o
 *fill*         0x0800ac78        0x8 
 .text._pal_lld_setgroupmode.constprop.0
                0x0800ac80       0x90 C:\Users\Ridwane\AppData\Local\Temp\ccbHz2Im.ltrans1.ltrans.o
 .text.oslib_test_008_002_execute
                0x0800ad10       0x7c C:\Users\Ridwane\AppData\Local\Temp\ccbHz2Im.ltrans1.ltrans.o
 *fill*         0x0800ad8c        0x4 
 .text.chFactoryCreateSemaphore.constprop.0
                0x0800ad90       0xc0 C:\Users\Ridwane\AppData\Local\Temp\ccbHz2Im.ltrans1.ltrans.o
 .text.oslib_test_009_004_teardown
                0x0800ae50       0xac C:\Users\Ridwane\AppData\Local\Temp\ccbHz2Im.ltrans1.ltrans.o
 *fill*         0x0800aefc        0x4 
 .text.oslib_test_009_001_teardown
                0x0800af00       0x68 C:\Users\Ridwane\AppData\Local\Temp\ccbHz2Im.ltrans1.ltrans.o
 *fill*         0x0800af68        0x8 
 .text.oslib_test_009_002_teardown
                0x0800af70       0xac C:\Users\Ridwane\AppData\Local\Temp\ccbHz2Im.ltrans1.ltrans.o
 *fill*         0x0800b01c        0x4 
 .text.oslib_test_009_005_teardown
                0x0800b020       0xac C:\Users\Ridwane\AppData\Local\Temp\ccbHz2Im.ltrans1.ltrans.o
 *fill*         0x0800b0cc        0x4 
 .text.oslib_test_009_006_teardown
                0x0800b0d0       0xac C:\Users\Ridwane\AppData\Local\Temp\ccbHz2Im.ltrans1.ltrans.o
 *fill*         0x0800b17c        0x4 
 .text.chFactoryFindPipe.constprop.0
                0x0800b180       0x60 C:\Users\Ridwane\AppData\Local\Temp\ccbHz2Im.ltrans1.ltrans.o
 .text.chFactoryFindObjectsFIFO.constprop.0
                0x0800b1e0       0x60 C:\Users\Ridwane\AppData\Local\Temp\ccbHz2Im.ltrans1.ltrans.o
 .text.chFactoryFindMailbox.constprop.0
                0x0800b240       0x60 C:\Users\Ridwane\AppData\Local\Temp\ccbHz2Im.ltrans1.ltrans.o
 .text.chFactoryFindSemaphore.constprop.0
                0x0800b2a0       0x60 C:\Users\Ridwane\AppData\Local\Temp\ccbHz2Im.ltrans1.ltrans.o
 .text.chFactoryFindBuffer.constprop.0
                0x0800b300       0x60 C:\Users\Ridwane\AppData\Local\Temp\ccbHz2Im.ltrans1.ltrans.o
 .text.chFactoryFindObject.constprop.0
                0x0800b360       0x60 C:\Users\Ridwane\AppData\Local\Temp\ccbHz2Im.ltrans1.ltrans.o
 .text.chFactoryRegisterObject.constprop.0
                0x0800b3c0       0xc4 C:\Users\Ridwane\AppData\Local\Temp\ccbHz2Im.ltrans1.ltrans.o
 *fill*         0x0800b484        0xc 
 .text.oslib_test_009_001_execute
                0x0800b490      0x160 C:\Users\Ridwane\AppData\Local\Temp\ccbHz2Im.ltrans1.ltrans.o
 .text.chFactoryCreatePipe.constprop.0
                0x0800b5f0       0x70 C:\Users\Ridwane\AppData\Local\Temp\ccbHz2Im.ltrans1.ltrans.o
 .text.oslib_test_009_006_execute
                0x0800b660      0x120 C:\Users\Ridwane\AppData\Local\Temp\ccbHz2Im.ltrans1.ltrans.o
 .text.chFactoryCreateMailbox.constprop.0
                0x0800b780       0x60 C:\Users\Ridwane\AppData\Local\Temp\ccbHz2Im.ltrans1.ltrans.o
 .text.oslib_test_009_004_execute
                0x0800b7e0      0x120 C:\Users\Ridwane\AppData\Local\Temp\ccbHz2Im.ltrans1.ltrans.o
 .text.oslib_test_009_002_execute
                0x0800b900      0x194 C:\Users\Ridwane\AppData\Local\Temp\ccbHz2Im.ltrans1.ltrans.o
 *fill*         0x0800ba94        0xc 
 .text.oslib_test_009_003_teardown
                0x0800baa0       0x68 C:\Users\Ridwane\AppData\Local\Temp\ccbHz2Im.ltrans1.ltrans.o
 *fill*         0x0800bb08        0x8 
 .text.oslib_test_009_003_execute
                0x0800bb10      0x120 C:\Users\Ridwane\AppData\Local\Temp\ccbHz2Im.ltrans1.ltrans.o
 .text.make_fg_step
                0x0800bc30      0x604 C:\Users\Ridwane\AppData\Local\Temp\ccbHz2Im.ltrans1.ltrans.o
 *fill*         0x0800c234        0xc 
 .text.poly_small_mkgauss.constprop.0
                0x0800c240      0x174 C:\Users\Ridwane\AppData\Local\Temp\ccbHz2Im.ltrans1.ltrans.o
 *fill*         0x0800c3b4        0xc 
 .text.zint_bezout.constprop.0
                0x0800c3c0      0x590 C:\Users\Ridwane\AppData\Local\Temp\ccbHz2Im.ltrans1.ltrans.o
 .text.chFactoryCreateObjectsFIFO.constprop.0
                0x0800c950       0xfc C:\Users\Ridwane\AppData\Local\Temp\ccbHz2Im.ltrans1.ltrans.o
 *fill*         0x0800ca4c        0x4 
 .text.oslib_test_009_005_execute
                0x0800ca50      0x120 C:\Users\Ridwane\AppData\Local\Temp\ccbHz2Im.ltrans1.ltrans.o
 .text.falcon_inner_fpr_scaled
                0x0800cb70       0x84 C:\Users\Ridwane\AppData\Local\Temp\ccbHz2Im.ltrans1.ltrans.o
                0x0800cb70                falcon_inner_fpr_scaled
 *fill*         0x0800cbf4        0xc 
 .text.falcon_inner_fpr_add
                0x0800cc00      0x13c C:\Users\Ridwane\AppData\Local\Temp\ccbHz2Im.ltrans1.ltrans.o
                0x0800cc00                falcon_inner_fpr_add
 *fill*         0x0800cd3c        0x4 
 .text.falcon_inner_poly_sub.constprop.0
                0x0800cd40       0x2c C:\Users\Ridwane\AppData\Local\Temp\ccbHz2Im.ltrans1.ltrans.o
 *fill*         0x0800cd6c        0x4 
 .text.falcon_inner_fpr_mul
                0x0800cd70       0xe8 C:\Users\Ridwane\AppData\Local\Temp\ccbHz2Im.ltrans1.ltrans.o
                0x0800cd70                falcon_inner_fpr_mul
 *fill*         0x0800ce58        0x8 
 .text.falcon_inner_FFT
                0x0800ce60      0x1b4 C:\Users\Ridwane\AppData\Local\Temp\ccbHz2Im.ltrans1.ltrans.o
 *fill*         0x0800d014        0xc 
 .text.falcon_inner_iFFT
                0x0800d020      0x200 C:\Users\Ridwane\AppData\Local\Temp\ccbHz2Im.ltrans1.ltrans.o
 .text.falcon_inner_poly_mul_fft
                0x0800d220       0xb8 C:\Users\Ridwane\AppData\Local\Temp\ccbHz2Im.ltrans1.ltrans.o
 *fill*         0x0800d2d8        0x8 
 .text.falcon_inner_poly_mul_autoadj_fft
                0x0800d2e0       0x50 C:\Users\Ridwane\AppData\Local\Temp\ccbHz2Im.ltrans1.ltrans.o
 .text.poly_big_to_fp
                0x0800d330       0xf0 C:\Users\Ridwane\AppData\Local\Temp\ccbHz2Im.ltrans1.ltrans.o
 .text.falcon_inner_fpr_div
                0x0800d420      0x640 C:\Users\Ridwane\AppData\Local\Temp\ccbHz2Im.ltrans1.ltrans.o
                0x0800d420                falcon_inner_fpr_div
 .text.falcon_inner_poly_invnorm2_fft
                0x0800da60       0xd4 C:\Users\Ridwane\AppData\Local\Temp\ccbHz2Im.ltrans1.ltrans.o
 *fill*         0x0800db34        0xc 
 .text.solve_NTRU.constprop.0
                0x0800db40     0x2618 C:\Users\Ridwane\AppData\Local\Temp\ccbHz2Im.ltrans1.ltrans.o
 *fill*         0x08010158        0x8 
 .text.chCacheGetObject.constprop.0
                0x08010160      0x168 C:\Users\Ridwane\AppData\Local\Temp\ccbHz2Im.ltrans1.ltrans.o
                0x08010160                chCacheGetObject.constprop.0
 *fill*         0x080102c8        0x8 
 .text.chMBPostAheadI.constprop.0
                0x080102d0       0x78 C:\Users\Ridwane\AppData\Local\Temp\ccbHz2Im.ltrans1.ltrans.o
                0x080102d0                chMBPostAheadI.constprop.0
 *fill*         0x08010348        0x8 
 .text.chMBPostAheadTimeout.constprop.0
                0x08010350       0xc0 C:\Users\Ridwane\AppData\Local\Temp\ccbHz2Im.ltrans1.ltrans.o
                0x08010350                chMBPostAheadTimeout.constprop.0
 .text.chMBReset.constprop.0
                0x08010410       0xb0 C:\Users\Ridwane\AppData\Local\Temp\ccbHz2Im.ltrans1.ltrans.o
                0x08010410                chMBReset.constprop.0
 .text.chThdCreateFromMemoryPool.constprop.0
                0x080104c0       0x88 C:\Users\Ridwane\AppData\Local\Temp\ccbHz2Im.ltrans1.ltrans.o
                0x080104c0                chThdCreateFromMemoryPool.constprop.0
 *fill*         0x08010548        0x8 
 .text.chThdCreateFromHeap.constprop.0
                0x08010550       0x60 C:\Users\Ridwane\AppData\Local\Temp\ccbHz2Im.ltrans1.ltrans.o
                0x08010550                chThdCreateFromHeap.constprop.0
 .text.chEvtWaitOne.constprop.0
                0x080105b0       0x4c C:\Users\Ridwane\AppData\Local\Temp\ccbHz2Im.ltrans1.ltrans.o
                0x080105b0                chEvtWaitOne.constprop.0
 *fill*         0x080105fc        0x4 
 .text.chSemResetWithMessage.constprop.0
                0x08010600       0x60 C:\Users\Ridwane\AppData\Local\Temp\ccbHz2Im.ltrans1.ltrans.o
                0x08010600                chSemResetWithMessage.constprop.0
 .text.vt_insert_first.constprop.0
                0x08010660       0x60 C:\Users\Ridwane\AppData\Local\Temp\ccbHz2Im.ltrans1.ltrans.o
                0x08010660                vt_insert_first.constprop.0
 .text.vt_enqueue.constprop.0
                0x080106c0       0x9c C:\Users\Ridwane\AppData\Local\Temp\ccbHz2Im.ltrans1.ltrans.o
                0x080106c0                vt_enqueue.constprop.0
 *fill*         0x0801075c        0x4 
 .text.Thread1  0x08010760       0xbc C:\Users\Ridwane\AppData\Local\Temp\ccbHz2Im.ltrans1.ltrans.o
 *fill*         0x0801081c        0x4 
 .text.chPipeReadTimeout.part.0.constprop.0
                0x08010820       0xe0 C:\Users\Ridwane\AppData\Local\Temp\ccbHz2Im.ltrans1.ltrans.o
                0x08010820                chPipeReadTimeout.part.0.constprop.0
 .text.chPipeWriteTimeout.part.0.constprop.0
                0x08010900       0xe4 C:\Users\Ridwane\AppData\Local\Temp\ccbHz2Im.ltrans1.ltrans.o
                0x08010900                chPipeWriteTimeout.part.0.constprop.0
 *fill*         0x080109e4        0xc 
 .text.test_execute_inner.isra.0
                0x080109f0      0x2f0 C:\Users\Ridwane\AppData\Local\Temp\ccbHz2Im.ltrans1.ltrans.o
 .text.startup.main
                0x08010ce0      0xbd4 C:\Users\Ridwane\AppData\Local\Temp\ccbHz2Im.ltrans1.ltrans.o
                0x08010ce0                main
 *fill*         0x080118b4        0xc 
 .text.chSemSignalWait.constprop.0.isra.0
                0x080118c0       0x98 C:\Users\Ridwane\AppData\Local\Temp\ccbHz2Im.ltrans1.ltrans.o
                0x080118c0                chSemSignalWait.constprop.0.isra.0
 .text.malloc   0x08011958       0x10 c:/chibistudio/tools/gnu tools arm embedded/11.3 2022.08/bin/../lib/gcc/arm-none-eabi/11.3.1/thumb/v7e-m/nofp\libg.a(libc_a-malloc.o)
                0x08011958                malloc
 .text._malloc_r
                0x08011968      0x560 c:/chibistudio/tools/gnu tools arm embedded/11.3 2022.08/bin/../lib/gcc/arm-none-eabi/11.3.1/thumb/v7e-m/nofp\libg.a(libc_a-mallocr.o)
                0x08011968                _malloc_r
 .text.__malloc_lock
                0x08011ec8        0xc c:/chibistudio/tools/gnu tools arm embedded/11.3 2022.08/bin/../lib/gcc/arm-none-eabi/11.3.1/thumb/v7e-m/nofp\libg.a(libc_a-mlock.o)
                0x08011ec8                __malloc_lock
 .text.__malloc_unlock
                0x08011ed4        0xc c:/chibistudio/tools/gnu tools arm embedded/11.3 2022.08/bin/../lib/gcc/arm-none-eabi/11.3.1/thumb/v7e-m/nofp\libg.a(libc_a-mlock.o)
                0x08011ed4                __malloc_unlock
 .text.memcmp   0x08011ee0       0x64 c:/chibistudio/tools/gnu tools arm embedded/11.3 2022.08/bin/../lib/gcc/arm-none-eabi/11.3.1/thumb/v7e-m/nofp\libg.a(libc_a-memcmp.o)
                0x08011ee0                memcmp
 .text.memmove  0x08011f44       0xf8 c:/chibistudio/tools/gnu tools arm embedded/11.3 2022.08/bin/../lib/gcc/arm-none-eabi/11.3.1/thumb/v7e-m/nofp\libg.a(libc_a-memmove.o)
                0x08011f44                memmove
 .text.memset   0x0801203c       0xa4 c:/chibistudio/tools/gnu tools arm embedded/11.3 2022.08/bin/../lib/gcc/arm-none-eabi/11.3.1/thumb/v7e-m/nofp\libg.a(libc_a-memset.o)
                0x0801203c                memset
 .text.strncmp  0x080120e0       0x8c c:/chibistudio/tools/gnu tools arm embedded/11.3 2022.08/bin/../lib/gcc/arm-none-eabi/11.3.1/thumb/v7e-m/nofp\libg.a(libc_a-strncmp.o)
                0x080120e0                strncmp
 .text._sbrk_r  0x0801216c       0x24 c:/chibistudio/tools/gnu tools arm embedded/11.3 2022.08/bin/../lib/gcc/arm-none-eabi/11.3.1/thumb/v7e-m/nofp\libg.a(libc_a-sbrkr.o)
                0x0801216c                _sbrk_r
 .text.__retarget_lock_acquire_recursive
                0x08012190        0x4 c:/chibistudio/tools/gnu tools arm embedded/11.3 2022.08/bin/../lib/gcc/arm-none-eabi/11.3.1/thumb/v7e-m/nofp\libg.a(libc_a-lock.o)
                0x08012190                __retarget_lock_acquire_recursive
 .text.__retarget_lock_release_recursive
                0x08012194        0x4 c:/chibistudio/tools/gnu tools arm embedded/11.3 2022.08/bin/../lib/gcc/arm-none-eabi/11.3.1/thumb/v7e-m/nofp\libg.a(libc_a-lock.o)
                0x08012194                __retarget_lock_release_recursive
 .text._malloc_trim_r
                0x08012198       0xa0 c:/chibistudio/tools/gnu tools arm embedded/11.3 2022.08/bin/../lib/gcc/arm-none-eabi/11.3.1/thumb/v7e-m/nofp\libg.a(libc_a-freer.o)
                0x08012198                _malloc_trim_r
 .text._free_r  0x08012238      0x20c c:/chibistudio/tools/gnu tools arm embedded/11.3 2022.08/bin/../lib/gcc/arm-none-eabi/11.3.1/thumb/v7e-m/nofp\libg.a(libc_a-freer.o)
                0x08012238                _free_r
 *(.glue_7t)
 .glue_7t       0x08012444        0x0 linker stubs
 *(.glue_7)
 .glue_7        0x08012444        0x0 linker stubs
 *(.gcc*)
                0x08012444                __text_end__ = .

.vfp11_veneer   0x08012444        0x0
 .vfp11_veneer  0x08012444        0x0 linker stubs

.v4_bx          0x08012444        0x0
 .v4_bx         0x08012444        0x0 linker stubs

.iplt           0x08012444        0x0
 .iplt          0x08012444        0x0 ./build/obj/crt0_v7m.o

.rodata         0x08012448     0x9968
                0x08012448                __rodata_base__ = .
 *(.rodata)
 *(.rodata.*)
 .rodata.rt_test_002_001_execute.lto_priv.0.str1.4
                0x08012448       0x57 C:\Users\Ridwane\AppData\Local\Temp\ccbHz2Im.ltrans0.ltrans.o
 *fill*         0x0801249f        0x1 
 .rodata.rt_test_010_001_execute.lto_priv.0.str1.4
                0x080124a0       0x1b C:\Users\Ridwane\AppData\Local\Temp\ccbHz2Im.ltrans0.ltrans.o
 *fill*         0x080124bb        0x1 
 .rodata.rt_test_010_002_execute.lto_priv.0.str1.4
                0x080124bc       0x18 C:\Users\Ridwane\AppData\Local\Temp\ccbHz2Im.ltrans0.ltrans.o
 .rodata.oslib_test_007_001_execute.lto_priv.0.str1.4
                0x080124d4       0x35 C:\Users\Ridwane\AppData\Local\Temp\ccbHz2Im.ltrans0.ltrans.o
 *fill*         0x08012509        0x3 
 .rodata.oslib_test_003_002_execute.lto_priv.0.str1.4
                0x0801250c       0x1f C:\Users\Ridwane\AppData\Local\Temp\ccbHz2Im.ltrans0.ltrans.o
 *fill*         0x0801252b        0x1 
 .rodata.rt_test_005_003_execute.lto_priv.0.str1.4
                0x0801252c       0x3e C:\Users\Ridwane\AppData\Local\Temp\ccbHz2Im.ltrans0.ltrans.o
 *fill*         0x0801256a        0x2 
 .rodata.rt_test_005_004_execute.lto_priv.0.str1.4
                0x0801256c       0x47 C:\Users\Ridwane\AppData\Local\Temp\ccbHz2Im.ltrans0.ltrans.o
 *fill*         0x080125b3        0x1 
 .rodata.oslib_test_006_001_execute.lto_priv.0.str1.4
                0x080125b4       0x5d C:\Users\Ridwane\AppData\Local\Temp\ccbHz2Im.ltrans0.ltrans.o
                                 0x69 (size before relaxing)
 *fill*         0x08012611        0x3 
 .rodata.oslib_test_002_003_execute.lto_priv.0.str1.4
                0x08012614       0x16 C:\Users\Ridwane\AppData\Local\Temp\ccbHz2Im.ltrans0.ltrans.o
 *fill*         0x0801262a        0x2 
 .rodata.rt_test_002_002_execute.lto_priv.0.str1.4
                0x0801262c       0x12 C:\Users\Ridwane\AppData\Local\Temp\ccbHz2Im.ltrans0.ltrans.o
 *fill*         0x0801263e        0x2 
 .rodata.rt_test_004_001_execute.lto_priv.0.str1.4
                0x08012640        0xe C:\Users\Ridwane\AppData\Local\Temp\ccbHz2Im.ltrans0.ltrans.o
 *fill*         0x0801264e        0x2 
 .rodata.rt_test_005_001_execute.lto_priv.0.str1.4
                0x08012650       0x13 C:\Users\Ridwane\AppData\Local\Temp\ccbHz2Im.ltrans0.ltrans.o
 *fill*         0x08012663        0x1 
 .rodata.rt_test_010_006_execute.lto_priv.0.str1.4
                0x08012664        0xf C:\Users\Ridwane\AppData\Local\Temp\ccbHz2Im.ltrans0.ltrans.o
 *fill*         0x08012673        0x1 
 .rodata.rt_test_007_001_execute.lto_priv.0.str1.4
                0x08012674       0x2b C:\Users\Ridwane\AppData\Local\Temp\ccbHz2Im.ltrans0.ltrans.o
 *fill*         0x0801269f        0x1 
 .rodata.chThdCreateStatic.str1.4
                0x080126a0        0x7 C:\Users\Ridwane\AppData\Local\Temp\ccbHz2Im.ltrans0.ltrans.o
 *fill*         0x080126a7        0x1 
 .rodata.rt_test_007_005_execute.lto_priv.0.str1.4
                0x080126a8       0x21 C:\Users\Ridwane\AppData\Local\Temp\ccbHz2Im.ltrans0.ltrans.o
 *fill*         0x080126c9        0x3 
 .rodata.rt_test_007_006_execute.lto_priv.0.str1.4
                0x080126cc       0x3f C:\Users\Ridwane\AppData\Local\Temp\ccbHz2Im.ltrans0.ltrans.o
                                 0x46 (size before relaxing)
 *fill*         0x0801270b        0x1 
 .rodata.rt_test_008_004_execute.lto_priv.0.str1.4
                0x0801270c       0x1d C:\Users\Ridwane\AppData\Local\Temp\ccbHz2Im.ltrans0.ltrans.o
 *fill*         0x08012729        0x3 
 .rodata.rt_test_008_005_execute.lto_priv.0.str1.4
                0x0801272c       0x28 C:\Users\Ridwane\AppData\Local\Temp\ccbHz2Im.ltrans0.ltrans.o
 .rodata.rt_test_010_003_execute.lto_priv.0.str1.4
                0x08012754       0x31 C:\Users\Ridwane\AppData\Local\Temp\ccbHz2Im.ltrans0.ltrans.o
 *fill*         0x08012785        0x3 
 .rodata.rt_test_005_002_execute.lto_priv.0.str1.4
                0x08012788        0xe C:\Users\Ridwane\AppData\Local\Temp\ccbHz2Im.ltrans0.ltrans.o
                                 0x12 (size before relaxing)
 *fill*         0x08012796        0x2 
 .rodata.rt_test_006_001_execute.lto_priv.0.str1.4
                0x08012798        0x9 C:\Users\Ridwane\AppData\Local\Temp\ccbHz2Im.ltrans0.ltrans.o
 *fill*         0x080127a1        0x3 
 .rodata.rt_test_007_004_execute.lto_priv.0.str1.4
                0x080127a4       0x10 C:\Users\Ridwane\AppData\Local\Temp\ccbHz2Im.ltrans0.ltrans.o
 .rodata.rt_test_009_001_execute.lto_priv.0.str1.4
                0x080127b4        0x5 C:\Users\Ridwane\AppData\Local\Temp\ccbHz2Im.ltrans0.ltrans.o
 *fill*         0x080127b9        0x3 
 .rodata.rt_test_010_004_execute.lto_priv.0.str1.4
                0x080127bc       0x17 C:\Users\Ridwane\AppData\Local\Temp\ccbHz2Im.ltrans0.ltrans.o
 *fill*         0x080127d3        0x1 
 .rodata.rt_test_011_001_execute.lto_priv.0.str1.4
                0x080127d4       0xb2 C:\Users\Ridwane\AppData\Local\Temp\ccbHz2Im.ltrans0.ltrans.o
 *fill*         0x08012886        0x2 
 .rodata.rt_test_011_002_execute.lto_priv.0.str1.4
                0x08012888       0x34 C:\Users\Ridwane\AppData\Local\Temp\ccbHz2Im.ltrans0.ltrans.o
 .rodata.oslib_test_004_001_execute.lto_priv.0.str1.4
                0x080128bc       0x18 C:\Users\Ridwane\AppData\Local\Temp\ccbHz2Im.ltrans0.ltrans.o
 .rodata.oslib_test_005_001_execute.lto_priv.0.str1.4
                0x080128d4       0x46 C:\Users\Ridwane\AppData\Local\Temp\ccbHz2Im.ltrans0.ltrans.o
 *fill*         0x0801291a        0x2 
 .rodata.oslib_test_002_001_execute.lto_priv.0.str1.4
                0x0801291c       0xb7 C:\Users\Ridwane\AppData\Local\Temp\ccbHz2Im.ltrans0.ltrans.o
 *fill*         0x080129d3        0x1 
 .rodata.oslib_test_003_001_execute.lto_priv.0.str1.4
                0x080129d4       0x1d C:\Users\Ridwane\AppData\Local\Temp\ccbHz2Im.ltrans0.ltrans.o
 *fill*         0x080129f1        0x3 
 .rodata.oslib_test_008_001_execute.lto_priv.0.str1.4
                0x080129f4       0x75 C:\Users\Ridwane\AppData\Local\Temp\ccbHz2Im.ltrans0.ltrans.o
 *fill*         0x08012a69        0x3 
 .rodata.test_printf.str1.4
                0x08012a6c        0x7 C:\Users\Ridwane\AppData\Local\Temp\ccbHz2Im.ltrans0.ltrans.o
 *fill*         0x08012a73        0x1 
 .rodata.rt_test_001_001_execute.lto_priv.0.str1.4
                0x08012a74      0x17d C:\Users\Ridwane\AppData\Local\Temp\ccbHz2Im.ltrans0.ltrans.o
                                0x185 (size before relaxing)
 *fill*         0x08012bf1        0x3 
 .rodata.rt_test_001_002_execute.lto_priv.0.str1.4
                0x08012bf4      0x115 C:\Users\Ridwane\AppData\Local\Temp\ccbHz2Im.ltrans0.ltrans.o
 *fill*         0x08012d09        0x3 
 .rodata.rt_test_001_003_execute.lto_priv.0.str1.4
                0x08012d0c      0x57d C:\Users\Ridwane\AppData\Local\Temp\ccbHz2Im.ltrans0.ltrans.o
 *fill*         0x08013289        0x3 
 .rodata.rt_test_012_001_execute.lto_priv.0.str1.4
                0x0801328c       0x26 C:\Users\Ridwane\AppData\Local\Temp\ccbHz2Im.ltrans0.ltrans.o
 *fill*         0x080132b2        0x2 
 .rodata.rt_test_012_005_execute.lto_priv.0.str1.4
                0x080132b4        0xb C:\Users\Ridwane\AppData\Local\Temp\ccbHz2Im.ltrans0.ltrans.o
 *fill*         0x080132bf        0x1 
 .rodata.rt_test_012_007_execute.lto_priv.0.str1.4
                0x080132c0       0x11 C:\Users\Ridwane\AppData\Local\Temp\ccbHz2Im.ltrans0.ltrans.o
 *fill*         0x080132d1        0x3 
 .rodata.rt_test_012_009_execute.lto_priv.0.str1.4
                0x080132d4        0xa C:\Users\Ridwane\AppData\Local\Temp\ccbHz2Im.ltrans0.ltrans.o
 *fill*         0x080132de        0x2 
 .rodata.rt_test_012_010_execute.lto_priv.0.str1.4
                0x080132e0        0xf C:\Users\Ridwane\AppData\Local\Temp\ccbHz2Im.ltrans0.ltrans.o
 *fill*         0x080132ef        0x1 
 .rodata.rt_test_012_011_execute.lto_priv.0.str1.4
                0x080132f0        0xf C:\Users\Ridwane\AppData\Local\Temp\ccbHz2Im.ltrans0.ltrans.o
 *fill*         0x080132ff        0x1 
 .rodata.rt_test_012_012_execute.lto_priv.0.str1.4
                0x08013300       0x95 C:\Users\Ridwane\AppData\Local\Temp\ccbHz2Im.ltrans0.ltrans.o
 *fill*         0x08013395        0x3 
 .rodata.oslib_test_001_002_execute.lto_priv.0.str1.4
                0x08013398       0x3a C:\Users\Ridwane\AppData\Local\Temp\ccbHz2Im.ltrans0.ltrans.o
 *fill*         0x080133d2        0x2 
 .rodata.oslib_test_001_003_execute.lto_priv.0.str1.4
                0x080133d4      0x2bd C:\Users\Ridwane\AppData\Local\Temp\ccbHz2Im.ltrans0.ltrans.o
 *fill*         0x08013691        0x3 
 .rodata.evhndl
                0x08013694        0xc C:\Users\Ridwane\AppData\Local\Temp\ccbHz2Im.ltrans0.ltrans.o
 .rodata.pipe_pattern.lto_priv.0
                0x080136a0       0x11 C:\Users\Ridwane\AppData\Local\Temp\ccbHz2Im.ltrans0.ltrans.o
                0x080136a0                pipe_pattern.lto_priv.0
 *fill*         0x080136b1        0x3 
 .rodata.ram_areas
                0x080136b4       0x80 C:\Users\Ridwane\AppData\Local\Temp\ccbHz2Im.ltrans0.ltrans.o
 .rodata.wa     0x08013734       0x14 C:\Users\Ridwane\AppData\Local\Temp\ccbHz2Im.ltrans0.ltrans.o
 .rodata.oslib_test_008_002_execute.str1.4
                0x08013748       0x2a C:\Users\Ridwane\AppData\Local\Temp\ccbHz2Im.ltrans1.ltrans.o
 .rodata.chFactoryCreateSemaphore.constprop.0.str1.4
                0x08013748        0x6 C:\Users\Ridwane\AppData\Local\Temp\ccbHz2Im.ltrans1.ltrans.o
 *fill*         0x0801374e        0x2 
 .rodata.oslib_test_009_004_teardown.str1.4
                0x08013750        0x6 C:\Users\Ridwane\AppData\Local\Temp\ccbHz2Im.ltrans1.ltrans.o
 *fill*         0x08013756        0x2 
 .rodata.oslib_test_009_001_teardown.str1.4
                0x08013758        0x6 C:\Users\Ridwane\AppData\Local\Temp\ccbHz2Im.ltrans1.ltrans.o
 *fill*         0x0801375e        0x2 
 .rodata.oslib_test_009_002_teardown.str1.4
                0x08013760        0x6 C:\Users\Ridwane\AppData\Local\Temp\ccbHz2Im.ltrans1.ltrans.o
 *fill*         0x08013766        0x2 
 .rodata.oslib_test_009_005_teardown.str1.4
                0x08013768        0x7 C:\Users\Ridwane\AppData\Local\Temp\ccbHz2Im.ltrans1.ltrans.o
 *fill*         0x0801376f        0x1 
 .rodata.oslib_test_009_006_teardown.str1.4
                0x08013770        0x7 C:\Users\Ridwane\AppData\Local\Temp\ccbHz2Im.ltrans1.ltrans.o
 *fill*         0x08013777        0x1 
 .rodata.oslib_test_009_001_execute.str1.4
                0x08013778       0x6c C:\Users\Ridwane\AppData\Local\Temp\ccbHz2Im.ltrans1.ltrans.o
                                 0x74 (size before relaxing)
 .rodata.oslib_test_009_006_execute.str1.4
                0x080137e4       0x1b C:\Users\Ridwane\AppData\Local\Temp\ccbHz2Im.ltrans1.ltrans.o
 *fill*         0x080137ff        0x1 
 .rodata.Thread1.str1.4
                0x08013800        0x8 C:\Users\Ridwane\AppData\Local\Temp\ccbHz2Im.ltrans1.ltrans.o
 .rodata.test_execute_inner.isra.0.str1.4
                0x08013808      0x1f7 C:\Users\Ridwane\AppData\Local\Temp\ccbHz2Im.ltrans1.ltrans.o
                                0x1ff (size before relaxing)
 *fill*         0x080139ff        0x1 
 .rodata.main.str1.4
                0x08013a00        0x5 C:\Users\Ridwane\AppData\Local\Temp\ccbHz2Im.ltrans1.ltrans.o
 *fill*         0x08013a05        0x3 
 .rodata.str1.4
                0x08013a08      0xa0a C:\Users\Ridwane\AppData\Local\Temp\ccbHz2Im.ltrans1.ltrans.o
 *fill*         0x08014412        0x2 
 .rodata.BITLENGTH
                0x08014414       0x58 C:\Users\Ridwane\AppData\Local\Temp\ccbHz2Im.ltrans1.ltrans.o
 .rodata.GMb    0x0801446c      0x800 C:\Users\Ridwane\AppData\Local\Temp\ccbHz2Im.ltrans1.ltrans.o
 .rodata.MAX_BL_LARGE
                0x08014c6c       0x28 C:\Users\Ridwane\AppData\Local\Temp\ccbHz2Im.ltrans1.ltrans.o
 .rodata.MAX_BL_SMALL
                0x08014c94       0x2c C:\Users\Ridwane\AppData\Local\Temp\ccbHz2Im.ltrans1.ltrans.o
 .rodata.PRIMES
                0x08014cc0     0x1878 C:\Users\Ridwane\AppData\Local\Temp\ccbHz2Im.ltrans1.ltrans.o
 .rodata.REV10  0x08016538      0x800 C:\Users\Ridwane\AppData\Local\Temp\ccbHz2Im.ltrans1.ltrans.o
 .rodata.ch_core0_cfg
                0x08016d38       0x14 C:\Users\Ridwane\AppData\Local\Temp\ccbHz2Im.ltrans1.ltrans.o
 .rodata.ch_debug
                0x08016d4c       0x2c C:\Users\Ridwane\AppData\Local\Temp\ccbHz2Im.ltrans1.ltrans.o
 .rodata.falcon_inner_fpr_gm_tab
                0x08016d78     0x4000 C:\Users\Ridwane\AppData\Local\Temp\ccbHz2Im.ltrans1.ltrans.o
 .rodata.falcon_inner_fpr_p2_tab
                0x0801ad78       0x58 C:\Users\Ridwane\AppData\Local\Temp\ccbHz2Im.ltrans1.ltrans.o
 .rodata.gauss_1024_12289
                0x0801add0       0xd8 C:\Users\Ridwane\AppData\Local\Temp\ccbHz2Im.ltrans1.ltrans.o
 .rodata.iGMb   0x0801aea8      0x800 C:\Users\Ridwane\AppData\Local\Temp\ccbHz2Im.ltrans1.ltrans.o
 .rodata.oslib_test_001_001
                0x0801b6a8       0x10 C:\Users\Ridwane\AppData\Local\Temp\ccbHz2Im.ltrans1.ltrans.o
 .rodata.oslib_test_001_002
                0x0801b6b8       0x10 C:\Users\Ridwane\AppData\Local\Temp\ccbHz2Im.ltrans1.ltrans.o
 .rodata.oslib_test_001_003
                0x0801b6c8       0x10 C:\Users\Ridwane\AppData\Local\Temp\ccbHz2Im.ltrans1.ltrans.o
 .rodata.oslib_test_002_001
                0x0801b6d8       0x10 C:\Users\Ridwane\AppData\Local\Temp\ccbHz2Im.ltrans1.ltrans.o
 .rodata.oslib_test_002_002
                0x0801b6e8       0x10 C:\Users\Ridwane\AppData\Local\Temp\ccbHz2Im.ltrans1.ltrans.o
 .rodata.oslib_test_002_003
                0x0801b6f8       0x10 C:\Users\Ridwane\AppData\Local\Temp\ccbHz2Im.ltrans1.ltrans.o
 .rodata.oslib_test_003_001
                0x0801b708       0x10 C:\Users\Ridwane\AppData\Local\Temp\ccbHz2Im.ltrans1.ltrans.o
 .rodata.oslib_test_003_002
                0x0801b718       0x10 C:\Users\Ridwane\AppData\Local\Temp\ccbHz2Im.ltrans1.ltrans.o
 .rodata.oslib_test_004_001
                0x0801b728       0x10 C:\Users\Ridwane\AppData\Local\Temp\ccbHz2Im.ltrans1.ltrans.o
 .rodata.oslib_test_005_001
                0x0801b738       0x10 C:\Users\Ridwane\AppData\Local\Temp\ccbHz2Im.ltrans1.ltrans.o
 .rodata.oslib_test_006_001
                0x0801b748       0x10 C:\Users\Ridwane\AppData\Local\Temp\ccbHz2Im.ltrans1.ltrans.o
 .rodata.oslib_test_007_001
                0x0801b758       0x10 C:\Users\Ridwane\AppData\Local\Temp\ccbHz2Im.ltrans1.ltrans.o
 .rodata.oslib_test_007_002
                0x0801b768       0x10 C:\Users\Ridwane\AppData\Local\Temp\ccbHz2Im.ltrans1.ltrans.o
 .rodata.oslib_test_007_003
                0x0801b778       0x10 C:\Users\Ridwane\AppData\Local\Temp\ccbHz2Im.ltrans1.ltrans.o
 .rodata.oslib_test_008_001
                0x0801b788       0x10 C:\Users\Ridwane\AppData\Local\Temp\ccbHz2Im.ltrans1.ltrans.o
 .rodata.oslib_test_008_002
                0x0801b798       0x10 C:\Users\Ridwane\AppData\Local\Temp\ccbHz2Im.ltrans1.ltrans.o
 .rodata.oslib_test_009_001
                0x0801b7a8       0x10 C:\Users\Ridwane\AppData\Local\Temp\ccbHz2Im.ltrans1.ltrans.o
 .rodata.oslib_test_009_002
                0x0801b7b8       0x10 C:\Users\Ridwane\AppData\Local\Temp\ccbHz2Im.ltrans1.ltrans.o
 .rodata.oslib_test_009_003
                0x0801b7c8       0x10 C:\Users\Ridwane\AppData\Local\Temp\ccbHz2Im.ltrans1.ltrans.o
 .rodata.oslib_test_009_004
                0x0801b7d8       0x10 C:\Users\Ridwane\AppData\Local\Temp\ccbHz2Im.ltrans1.ltrans.o
 .rodata.oslib_test_009_005
                0x0801b7e8       0x10 C:\Users\Ridwane\AppData\Local\Temp\ccbHz2Im.ltrans1.ltrans.o
 .rodata.oslib_test_009_006
                0x0801b7f8       0x10 C:\Users\Ridwane\AppData\Local\Temp\ccbHz2Im.ltrans1.ltrans.o
 .rodata.oslib_test_sequence_001
                0x0801b808        0x8 C:\Users\Ridwane\AppData\Local\Temp\ccbHz2Im.ltrans1.ltrans.o
 .rodata.oslib_test_sequence_001_array
                0x0801b810       0x10 C:\Users\Ridwane\AppData\Local\Temp\ccbHz2Im.ltrans1.ltrans.o
 .rodata.oslib_test_sequence_002
                0x0801b820        0x8 C:\Users\Ridwane\AppData\Local\Temp\ccbHz2Im.ltrans1.ltrans.o
 .rodata.oslib_test_sequence_002_array
                0x0801b828       0x10 C:\Users\Ridwane\AppData\Local\Temp\ccbHz2Im.ltrans1.ltrans.o
 .rodata.oslib_test_sequence_003
                0x0801b838        0x8 C:\Users\Ridwane\AppData\Local\Temp\ccbHz2Im.ltrans1.ltrans.o
 .rodata.oslib_test_sequence_003_array
                0x0801b840        0xc C:\Users\Ridwane\AppData\Local\Temp\ccbHz2Im.ltrans1.ltrans.o
 .rodata.oslib_test_sequence_004
                0x0801b84c        0x8 C:\Users\Ridwane\AppData\Local\Temp\ccbHz2Im.ltrans1.ltrans.o
 .rodata.oslib_test_sequence_004_array
                0x0801b854        0x8 C:\Users\Ridwane\AppData\Local\Temp\ccbHz2Im.ltrans1.ltrans.o
 .rodata.oslib_test_sequence_005
                0x0801b85c        0x8 C:\Users\Ridwane\AppData\Local\Temp\ccbHz2Im.ltrans1.ltrans.o
 .rodata.oslib_test_sequence_005_array
                0x0801b864        0x8 C:\Users\Ridwane\AppData\Local\Temp\ccbHz2Im.ltrans1.ltrans.o
 .rodata.oslib_test_sequence_006
                0x0801b86c        0x8 C:\Users\Ridwane\AppData\Local\Temp\ccbHz2Im.ltrans1.ltrans.o
 .rodata.oslib_test_sequence_006_array
                0x0801b874        0x8 C:\Users\Ridwane\AppData\Local\Temp\ccbHz2Im.ltrans1.ltrans.o
 .rodata.oslib_test_sequence_007
                0x0801b87c        0x8 C:\Users\Ridwane\AppData\Local\Temp\ccbHz2Im.ltrans1.ltrans.o
 .rodata.oslib_test_sequence_007_array
                0x0801b884       0x10 C:\Users\Ridwane\AppData\Local\Temp\ccbHz2Im.ltrans1.ltrans.o
 .rodata.oslib_test_sequence_008
                0x0801b894        0x8 C:\Users\Ridwane\AppData\Local\Temp\ccbHz2Im.ltrans1.ltrans.o
 .rodata.oslib_test_sequence_008_array
                0x0801b89c        0xc C:\Users\Ridwane\AppData\Local\Temp\ccbHz2Im.ltrans1.ltrans.o
 .rodata.oslib_test_sequence_009
                0x0801b8a8        0x8 C:\Users\Ridwane\AppData\Local\Temp\ccbHz2Im.ltrans1.ltrans.o
 .rodata.oslib_test_sequence_009_array
                0x0801b8b0       0x1c C:\Users\Ridwane\AppData\Local\Temp\ccbHz2Im.ltrans1.ltrans.o
 .rodata.oslib_test_suite
                0x0801b8cc        0x8 C:\Users\Ridwane\AppData\Local\Temp\ccbHz2Im.ltrans1.ltrans.o
 .rodata.oslib_test_suite_array
                0x0801b8d4       0x28 C:\Users\Ridwane\AppData\Local\Temp\ccbHz2Im.ltrans1.ltrans.o
 .rodata.rt_test_001_001
                0x0801b8fc       0x10 C:\Users\Ridwane\AppData\Local\Temp\ccbHz2Im.ltrans1.ltrans.o
 .rodata.rt_test_001_002
                0x0801b90c       0x10 C:\Users\Ridwane\AppData\Local\Temp\ccbHz2Im.ltrans1.ltrans.o
 .rodata.rt_test_001_003
                0x0801b91c       0x10 C:\Users\Ridwane\AppData\Local\Temp\ccbHz2Im.ltrans1.ltrans.o
 .rodata.rt_test_002_001
                0x0801b92c       0x10 C:\Users\Ridwane\AppData\Local\Temp\ccbHz2Im.ltrans1.ltrans.o
 .rodata.rt_test_002_002
                0x0801b93c       0x10 C:\Users\Ridwane\AppData\Local\Temp\ccbHz2Im.ltrans1.ltrans.o
 .rodata.rt_test_002_003
                0x0801b94c       0x10 C:\Users\Ridwane\AppData\Local\Temp\ccbHz2Im.ltrans1.ltrans.o
 .rodata.rt_test_003_001
                0x0801b95c       0x10 C:\Users\Ridwane\AppData\Local\Temp\ccbHz2Im.ltrans1.ltrans.o
 .rodata.rt_test_003_002
                0x0801b96c       0x10 C:\Users\Ridwane\AppData\Local\Temp\ccbHz2Im.ltrans1.ltrans.o
 .rodata.rt_test_004_001
                0x0801b97c       0x10 C:\Users\Ridwane\AppData\Local\Temp\ccbHz2Im.ltrans1.ltrans.o
 .rodata.rt_test_005_001
                0x0801b98c       0x10 C:\Users\Ridwane\AppData\Local\Temp\ccbHz2Im.ltrans1.ltrans.o
 .rodata.rt_test_005_002
                0x0801b99c       0x10 C:\Users\Ridwane\AppData\Local\Temp\ccbHz2Im.ltrans1.ltrans.o
 .rodata.rt_test_005_003
                0x0801b9ac       0x10 C:\Users\Ridwane\AppData\Local\Temp\ccbHz2Im.ltrans1.ltrans.o
 .rodata.rt_test_005_004
                0x0801b9bc       0x10 C:\Users\Ridwane\AppData\Local\Temp\ccbHz2Im.ltrans1.ltrans.o
 .rodata.rt_test_006_001
                0x0801b9cc       0x10 C:\Users\Ridwane\AppData\Local\Temp\ccbHz2Im.ltrans1.ltrans.o
 .rodata.rt_test_007_001
                0x0801b9dc       0x10 C:\Users\Ridwane\AppData\Local\Temp\ccbHz2Im.ltrans1.ltrans.o
 .rodata.rt_test_007_002
                0x0801b9ec       0x10 C:\Users\Ridwane\AppData\Local\Temp\ccbHz2Im.ltrans1.ltrans.o
 .rodata.rt_test_007_003
                0x0801b9fc       0x10 C:\Users\Ridwane\AppData\Local\Temp\ccbHz2Im.ltrans1.ltrans.o
 .rodata.rt_test_007_004
                0x0801ba0c       0x10 C:\Users\Ridwane\AppData\Local\Temp\ccbHz2Im.ltrans1.ltrans.o
 .rodata.rt_test_007_005
                0x0801ba1c       0x10 C:\Users\Ridwane\AppData\Local\Temp\ccbHz2Im.ltrans1.ltrans.o
 .rodata.rt_test_007_006
                0x0801ba2c       0x10 C:\Users\Ridwane\AppData\Local\Temp\ccbHz2Im.ltrans1.ltrans.o
 .rodata.rt_test_008_001
                0x0801ba3c       0x10 C:\Users\Ridwane\AppData\Local\Temp\ccbHz2Im.ltrans1.ltrans.o
 .rodata.rt_test_008_004
                0x0801ba4c       0x10 C:\Users\Ridwane\AppData\Local\Temp\ccbHz2Im.ltrans1.ltrans.o
 .rodata.rt_test_008_005
                0x0801ba5c       0x10 C:\Users\Ridwane\AppData\Local\Temp\ccbHz2Im.ltrans1.ltrans.o
 .rodata.rt_test_008_007
                0x0801ba6c       0x10 C:\Users\Ridwane\AppData\Local\Temp\ccbHz2Im.ltrans1.ltrans.o
 .rodata.rt_test_008_008
                0x0801ba7c       0x10 C:\Users\Ridwane\AppData\Local\Temp\ccbHz2Im.ltrans1.ltrans.o
 .rodata.rt_test_008_009
                0x0801ba8c       0x10 C:\Users\Ridwane\AppData\Local\Temp\ccbHz2Im.ltrans1.ltrans.o
 .rodata.rt_test_009_001
                0x0801ba9c       0x10 C:\Users\Ridwane\AppData\Local\Temp\ccbHz2Im.ltrans1.ltrans.o
 .rodata.rt_test_010_001
                0x0801baac       0x10 C:\Users\Ridwane\AppData\Local\Temp\ccbHz2Im.ltrans1.ltrans.o
 .rodata.rt_test_010_002
                0x0801babc       0x10 C:\Users\Ridwane\AppData\Local\Temp\ccbHz2Im.ltrans1.ltrans.o
 .rodata.rt_test_010_003
                0x0801bacc       0x10 C:\Users\Ridwane\AppData\Local\Temp\ccbHz2Im.ltrans1.ltrans.o
 .rodata.rt_test_010_004
                0x0801badc       0x10 C:\Users\Ridwane\AppData\Local\Temp\ccbHz2Im.ltrans1.ltrans.o
 .rodata.rt_test_010_005
                0x0801baec       0x10 C:\Users\Ridwane\AppData\Local\Temp\ccbHz2Im.ltrans1.ltrans.o
 .rodata.rt_test_010_006
                0x0801bafc       0x10 C:\Users\Ridwane\AppData\Local\Temp\ccbHz2Im.ltrans1.ltrans.o
 .rodata.rt_test_010_007
                0x0801bb0c       0x10 C:\Users\Ridwane\AppData\Local\Temp\ccbHz2Im.ltrans1.ltrans.o
 .rodata.rt_test_011_001
                0x0801bb1c       0x10 C:\Users\Ridwane\AppData\Local\Temp\ccbHz2Im.ltrans1.ltrans.o
 .rodata.rt_test_011_002
                0x0801bb2c       0x10 C:\Users\Ridwane\AppData\Local\Temp\ccbHz2Im.ltrans1.ltrans.o
 .rodata.rt_test_012_001
                0x0801bb3c       0x10 C:\Users\Ridwane\AppData\Local\Temp\ccbHz2Im.ltrans1.ltrans.o
 .rodata.rt_test_012_002
                0x0801bb4c       0x10 C:\Users\Ridwane\AppData\Local\Temp\ccbHz2Im.ltrans1.ltrans.o
 .rodata.rt_test_012_003
                0x0801bb5c       0x10 C:\Users\Ridwane\AppData\Local\Temp\ccbHz2Im.ltrans1.ltrans.o
 .rodata.rt_test_012_004
                0x0801bb6c       0x10 C:\Users\Ridwane\AppData\Local\Temp\ccbHz2Im.ltrans1.ltrans.o
 .rodata.rt_test_012_005
                0x0801bb7c       0x10 C:\Users\Ridwane\AppData\Local\Temp\ccbHz2Im.ltrans1.ltrans.o
 .rodata.rt_test_012_006
                0x0801bb8c       0x10 C:\Users\Ridwane\AppData\Local\Temp\ccbHz2Im.ltrans1.ltrans.o
 .rodata.rt_test_012_007
                0x0801bb9c       0x10 C:\Users\Ridwane\AppData\Local\Temp\ccbHz2Im.ltrans1.ltrans.o
 .rodata.rt_test_012_008
                0x0801bbac       0x10 C:\Users\Ridwane\AppData\Local\Temp\ccbHz2Im.ltrans1.ltrans.o
 .rodata.rt_test_012_009
                0x0801bbbc       0x10 C:\Users\Ridwane\AppData\Local\Temp\ccbHz2Im.ltrans1.ltrans.o
 .rodata.rt_test_012_010
                0x0801bbcc       0x10 C:\Users\Ridwane\AppData\Local\Temp\ccbHz2Im.ltrans1.ltrans.o
 .rodata.rt_test_012_011
                0x0801bbdc       0x10 C:\Users\Ridwane\AppData\Local\Temp\ccbHz2Im.ltrans1.ltrans.o
 .rodata.rt_test_012_012
                0x0801bbec       0x10 C:\Users\Ridwane\AppData\Local\Temp\ccbHz2Im.ltrans1.ltrans.o
 .rodata.rt_test_sequence_001
                0x0801bbfc        0x8 C:\Users\Ridwane\AppData\Local\Temp\ccbHz2Im.ltrans1.ltrans.o
 .rodata.rt_test_sequence_001_array
                0x0801bc04       0x10 C:\Users\Ridwane\AppData\Local\Temp\ccbHz2Im.ltrans1.ltrans.o
 .rodata.rt_test_sequence_002
                0x0801bc14        0x8 C:\Users\Ridwane\AppData\Local\Temp\ccbHz2Im.ltrans1.ltrans.o
 .rodata.rt_test_sequence_002_array
                0x0801bc1c       0x10 C:\Users\Ridwane\AppData\Local\Temp\ccbHz2Im.ltrans1.ltrans.o
 .rodata.rt_test_sequence_003
                0x0801bc2c        0x8 C:\Users\Ridwane\AppData\Local\Temp\ccbHz2Im.ltrans1.ltrans.o
 .rodata.rt_test_sequence_003_array
                0x0801bc34        0xc C:\Users\Ridwane\AppData\Local\Temp\ccbHz2Im.ltrans1.ltrans.o
 .rodata.rt_test_sequence_004
                0x0801bc40        0x8 C:\Users\Ridwane\AppData\Local\Temp\ccbHz2Im.ltrans1.ltrans.o
 .rodata.rt_test_sequence_004_array
                0x0801bc48        0x8 C:\Users\Ridwane\AppData\Local\Temp\ccbHz2Im.ltrans1.ltrans.o
 .rodata.rt_test_sequence_005
                0x0801bc50        0x8 C:\Users\Ridwane\AppData\Local\Temp\ccbHz2Im.ltrans1.ltrans.o
 .rodata.rt_test_sequence_005_array
                0x0801bc58       0x14 C:\Users\Ridwane\AppData\Local\Temp\ccbHz2Im.ltrans1.ltrans.o
 .rodata.rt_test_sequence_006
                0x0801bc6c        0x8 C:\Users\Ridwane\AppData\Local\Temp\ccbHz2Im.ltrans1.ltrans.o
 .rodata.rt_test_sequence_006_array
                0x0801bc74        0x8 C:\Users\Ridwane\AppData\Local\Temp\ccbHz2Im.ltrans1.ltrans.o
 .rodata.rt_test_sequence_007
                0x0801bc7c        0x8 C:\Users\Ridwane\AppData\Local\Temp\ccbHz2Im.ltrans1.ltrans.o
 .rodata.rt_test_sequence_007_array
                0x0801bc84       0x1c C:\Users\Ridwane\AppData\Local\Temp\ccbHz2Im.ltrans1.ltrans.o
 .rodata.rt_test_sequence_008
                0x0801bca0        0x8 C:\Users\Ridwane\AppData\Local\Temp\ccbHz2Im.ltrans1.ltrans.o
 .rodata.rt_test_sequence_008_array
                0x0801bca8       0x1c C:\Users\Ridwane\AppData\Local\Temp\ccbHz2Im.ltrans1.ltrans.o
 .rodata.rt_test_sequence_009
                0x0801bcc4        0x8 C:\Users\Ridwane\AppData\Local\Temp\ccbHz2Im.ltrans1.ltrans.o
 .rodata.rt_test_sequence_009_array
                0x0801bccc        0x8 C:\Users\Ridwane\AppData\Local\Temp\ccbHz2Im.ltrans1.ltrans.o
 .rodata.rt_test_sequence_010
                0x0801bcd4        0x8 C:\Users\Ridwane\AppData\Local\Temp\ccbHz2Im.ltrans1.ltrans.o
 .rodata.rt_test_sequence_010_array
                0x0801bcdc       0x20 C:\Users\Ridwane\AppData\Local\Temp\ccbHz2Im.ltrans1.ltrans.o
 .rodata.rt_test_sequence_011
                0x0801bcfc        0x8 C:\Users\Ridwane\AppData\Local\Temp\ccbHz2Im.ltrans1.ltrans.o
 .rodata.rt_test_sequence_011_array
                0x0801bd04        0xc C:\Users\Ridwane\AppData\Local\Temp\ccbHz2Im.ltrans1.ltrans.o
 .rodata.rt_test_sequence_012
                0x0801bd10        0x8 C:\Users\Ridwane\AppData\Local\Temp\ccbHz2Im.ltrans1.ltrans.o
 .rodata.rt_test_sequence_012_array
                0x0801bd18       0x34 C:\Users\Ridwane\AppData\Local\Temp\ccbHz2Im.ltrans1.ltrans.o
 .rodata.rt_test_suite
                0x0801bd4c        0x8 C:\Users\Ridwane\AppData\Local\Temp\ccbHz2Im.ltrans1.ltrans.o
 .rodata.rt_test_suite_array
                0x0801bd54       0x34 C:\Users\Ridwane\AppData\Local\Temp\ccbHz2Im.ltrans1.ltrans.o
 .rodata.vmt    0x0801bd88       0x28 C:\Users\Ridwane\AppData\Local\Temp\ccbHz2Im.ltrans1.ltrans.o
                0x0801bdb0                . = ALIGN (0x4)
                0x0801bdb0                __rodata_end__ = .

.rel.dyn        0x0801bdb0        0x0
 .rel.iplt      0x0801bdb0        0x0 ./build/obj/crt0_v7m.o

.ARM.extab
 *(.ARM.extab* .gnu.linkonce.armextab.*)

.ARM.exidx      0x0801bdb0        0x0
                0x0801bdb0                __exidx_base__ = .
                0x0801bdb0                __exidx_start = .
 *(.ARM.exidx* .gnu.linkonce.armexidx.*)
                0x0801bdb0                __exidx_end__ = .
                0x0801bdb0                __exidx_end = .

.eh_frame_hdr
 *(.eh_frame_hdr)

.eh_frame
 *(.eh_frame)

.data           0x20000800      0x614 load address 0x0801bdb0
                [!provide]                PROVIDE (_textdata = LOADADDR (.data))
                [!provide]                PROVIDE (_data = .)
                0x0801bdb0                __textdata_base__ = LOADADDR (.data)
                0x20000800                __data_base__ = .
 *(.data)
 *(.data.*)
 .data.c1       0x20000800        0x8 C:\Users\Ridwane\AppData\Local\Temp\ccbHz2Im.ltrans0.ltrans.o
 .data.es1      0x20000808        0x4 C:\Users\Ridwane\AppData\Local\Temp\ccbHz2Im.ltrans0.ltrans.o
 .data.es2      0x2000080c        0x4 C:\Users\Ridwane\AppData\Local\Temp\ccbHz2Im.ltrans0.ltrans.o
 .data.gmp1     0x20000810       0x1c C:\Users\Ridwane\AppData\Local\Temp\ccbHz2Im.ltrans0.ltrans.o
 .data.m1       0x2000082c       0x10 C:\Users\Ridwane\AppData\Local\Temp\ccbHz2Im.ltrans0.ltrans.o
 .data.m2       0x2000083c       0x10 C:\Users\Ridwane\AppData\Local\Temp\ccbHz2Im.ltrans0.ltrans.o
 .data.mb1.lto_priv.0
                0x2000084c       0x28 C:\Users\Ridwane\AppData\Local\Temp\ccbHz2Im.ltrans0.ltrans.o
                0x2000084c                mb1.lto_priv.0
 .data.mp1.lto_priv.1
                0x20000874       0x10 C:\Users\Ridwane\AppData\Local\Temp\ccbHz2Im.ltrans0.ltrans.o
 .data.pipe1.lto_priv.0
                0x20000884       0x50 C:\Users\Ridwane\AppData\Local\Temp\ccbHz2Im.ltrans0.ltrans.o
                0x20000884                pipe1.lto_priv.0
 .data.myobj.0  0x200008d4        0x4 C:\Users\Ridwane\AppData\Local\Temp\ccbHz2Im.ltrans1.ltrans.o
 .data.myobj.1  0x200008d8        0x4 C:\Users\Ridwane\AppData\Local\Temp\ccbHz2Im.ltrans1.ltrans.o
 .data.__malloc_av_
                0x200008dc      0x408 c:/chibistudio/tools/gnu tools arm embedded/11.3 2022.08/bin/../lib/gcc/arm-none-eabi/11.3.1/thumb/v7e-m/nofp\libg.a(libc_a-mallocr.o)
                0x200008dc                __malloc_av_
 .data.__malloc_sbrk_base
                0x20000ce4        0x4 c:/chibistudio/tools/gnu tools arm embedded/11.3 2022.08/bin/../lib/gcc/arm-none-eabi/11.3.1/thumb/v7e-m/nofp\libg.a(libc_a-mallocr.o)
                0x20000ce4                __malloc_sbrk_base
 .data.__malloc_trim_threshold
                0x20000ce8        0x4 c:/chibistudio/tools/gnu tools arm embedded/11.3 2022.08/bin/../lib/gcc/arm-none-eabi/11.3.1/thumb/v7e-m/nofp\libg.a(libc_a-mallocr.o)
                0x20000ce8                __malloc_trim_threshold
 *fill*         0x20000cec        0x4 
 .data._impure_data
                0x20000cf0      0x120 c:/chibistudio/tools/gnu tools arm embedded/11.3 2022.08/bin/../lib/gcc/arm-none-eabi/11.3.1/thumb/v7e-m/nofp\libg.a(libc_a-impure.o)
                0x20000cf0                _impure_data
 .data._impure_ptr
                0x20000e10        0x4 c:/chibistudio/tools/gnu tools arm embedded/11.3 2022.08/bin/../lib/gcc/arm-none-eabi/11.3.1/thumb/v7e-m/nofp\libg.a(libc_a-impure.o)
                0x20000e10                _impure_ptr
 *(.ramtext)
                0x20000e14                . = ALIGN (0x4)
                [!provide]                PROVIDE (_edata = .)
                0x20000e14                __data_end__ = .

.igot.plt       0x20000e14        0x0 load address 0x0801c3c4
 .igot.plt      0x20000e14        0x0 ./build/obj/crt0_v7m.o

.bss            0x20000e18     0x5a5c load address 0x0801c3c4
                0x20000e18                __bss_base__ = .
 *(.bss)
 *(.bss.*)
 .bss.SD2       0x20000e18       0x80 C:\Users\Ridwane\AppData\Local\Temp\ccbHz2Im.ltrans0.ltrans.o
                0x20000e18                SD2
 .bss.buffer    0x20000e98       0x10 C:\Users\Ridwane\AppData\Local\Temp\ccbHz2Im.ltrans0.ltrans.o
 .bss.cache1.lto_priv.0
                0x20000ea8       0x44 C:\Users\Ridwane\AppData\Local\Temp\ccbHz2Im.ltrans0.ltrans.o
                0x20000ea8                cache1.lto_priv.0
 *fill*         0x20000eec        0x4 
 .bss.ch0       0x20000ef0       0x88 C:\Users\Ridwane\AppData\Local\Temp\ccbHz2Im.ltrans0.ltrans.o
                0x20000ef0                ch0
 .bss.ch_factory
                0x20000f78       0x48 C:\Users\Ridwane\AppData\Local\Temp\ccbHz2Im.ltrans0.ltrans.o
                0x20000f78                ch_factory
 .bss.ch_memcore
                0x20000fc0        0x8 C:\Users\Ridwane\AppData\Local\Temp\ccbHz2Im.ltrans0.ltrans.o
                0x20000fc0                ch_memcore
 .bss.ch_system
                0x20000fc8        0xc C:\Users\Ridwane\AppData\Local\Temp\ccbHz2Im.ltrans0.ltrans.o
                0x20000fc8                ch_system
 .bss.chtest    0x20000fd4       0x28 C:\Users\Ridwane\AppData\Local\Temp\ccbHz2Im.ltrans0.ltrans.o
                0x20000fd4                chtest
 .bss.default_heap.lto_priv.0
                0x20000ffc       0x1c C:\Users\Ridwane\AppData\Local\Temp\ccbHz2Im.ltrans0.ltrans.o
                0x20000ffc                default_heap.lto_priv.0
 .bss.exit_flag
                0x20001018        0x1 C:\Users\Ridwane\AppData\Local\Temp\ccbHz2Im.ltrans0.ltrans.o
 *fill*         0x20001019        0x3 
 .bss.hash_headers
                0x2000101c       0x40 C:\Users\Ridwane\AppData\Local\Temp\ccbHz2Im.ltrans0.ltrans.o
 .bss.heap1.lto_priv.0
                0x2000105c       0x1c C:\Users\Ridwane\AppData\Local\Temp\ccbHz2Im.ltrans0.ltrans.o
                0x2000105c                heap1.lto_priv.0
 .bss.jobs      0x20001078       0x20 C:\Users\Ridwane\AppData\Local\Temp\ccbHz2Im.ltrans0.ltrans.o
 .bss.jq        0x20001098       0x44 C:\Users\Ridwane\AppData\Local\Temp\ccbHz2Im.ltrans0.ltrans.o
 .bss.mb_buffer
                0x200010dc       0x10 C:\Users\Ridwane\AppData\Local\Temp\ccbHz2Im.ltrans0.ltrans.o
 .bss.mp1.lto_priv.0
                0x200010ec       0x10 C:\Users\Ridwane\AppData\Local\Temp\ccbHz2Im.ltrans0.ltrans.o
                0x200010ec                mp1.lto_priv.0
 .bss.msg_queue
                0x200010fc       0x10 C:\Users\Ridwane\AppData\Local\Temp\ccbHz2Im.ltrans0.ltrans.o
 .bss.mtx1      0x2000110c       0x10 C:\Users\Ridwane\AppData\Local\Temp\ccbHz2Im.ltrans0.ltrans.o
 .bss.objects.lto_priv.0
                0x2000111c       0xf0 C:\Users\Ridwane\AppData\Local\Temp\ccbHz2Im.ltrans0.ltrans.o
 .bss.objects.lto_priv.1
                0x2000120c       0x10 C:\Users\Ridwane\AppData\Local\Temp\ccbHz2Im.ltrans0.ltrans.o
 .bss.sem1.lto_priv.0
                0x2000121c        0xc C:\Users\Ridwane\AppData\Local\Temp\ccbHz2Im.ltrans0.ltrans.o
                0x2000121c                sem1.lto_priv.0
 .bss.sem1.lto_priv.1
                0x20001228        0xc C:\Users\Ridwane\AppData\Local\Temp\ccbHz2Im.ltrans0.ltrans.o
 *fill*         0x20001234        0x4 
 .bss.test_buffer
                0x20001238      0x870 C:\Users\Ridwane\AppData\Local\Temp\ccbHz2Im.ltrans0.ltrans.o
 .bss.test_heap.lto_priv.0
                0x20001aa8       0x1c C:\Users\Ridwane\AppData\Local\Temp\ccbHz2Im.ltrans0.ltrans.o
                0x20001aa8                test_heap.lto_priv.0
 .bss.test_heap_buffer
                0x20001ac4       0x80 C:\Users\Ridwane\AppData\Local\Temp\ccbHz2Im.ltrans0.ltrans.o
 .bss.threads   0x20001b44       0x14 C:\Users\Ridwane\AppData\Local\Temp\ccbHz2Im.ltrans0.ltrans.o
 .bss.tr1       0x20001b58        0x4 C:\Users\Ridwane\AppData\Local\Temp\ccbHz2Im.ltrans0.ltrans.o
 .bss.vt1.1     0x20001b5c       0x18 C:\Users\Ridwane\AppData\Local\Temp\ccbHz2Im.ltrans0.ltrans.o
 .bss.vt2.0     0x20001b74       0x18 C:\Users\Ridwane\AppData\Local\Temp\ccbHz2Im.ltrans0.ltrans.o
 *fill*         0x20001b8c        0x4 
 .bss.wa1Thread1
                0x20001b90      0x1f0 C:\Users\Ridwane\AppData\Local\Temp\ccbHz2Im.ltrans0.ltrans.o
 .bss.wa2Thread1
                0x20001d80      0x1f0 C:\Users\Ridwane\AppData\Local\Temp\ccbHz2Im.ltrans0.ltrans.o
 .bss.waThread1
                0x20001f70      0x1f0 C:\Users\Ridwane\AppData\Local\Temp\ccbHz2Im.ltrans0.ltrans.o
 .bss.F.17      0x20002160      0x200 C:\Users\Ridwane\AppData\Local\Temp\ccbHz2Im.ltrans1.ltrans.o
 .bss.ch_c0_idle_thread_wa
                0x20002360      0x130 C:\Users\Ridwane\AppData\Local\Temp\ccbHz2Im.ltrans1.ltrans.o
 .bss.f.19      0x20002490      0x200 C:\Users\Ridwane\AppData\Local\Temp\ccbHz2Im.ltrans1.ltrans.o
 .bss.g.18      0x20002690      0x200 C:\Users\Ridwane\AppData\Local\Temp\ccbHz2Im.ltrans1.ltrans.o
 .bss.h.16      0x20002890      0x400 C:\Users\Ridwane\AppData\Local\Temp\ccbHz2Im.ltrans1.ltrans.o
 .bss.rng.20    0x20002c90       0xd0 C:\Users\Ridwane\AppData\Local\Temp\ccbHz2Im.ltrans1.ltrans.o
 .bss.seed.21   0x20002d60       0x30 C:\Users\Ridwane\AppData\Local\Temp\ccbHz2Im.ltrans1.ltrans.o
 .bss.tmp.15    0x20002d90     0x3800 C:\Users\Ridwane\AppData\Local\Temp\ccbHz2Im.ltrans1.ltrans.o
 .bss.waThread1
                0x20006590      0x170 C:\Users\Ridwane\AppData\Local\Temp\ccbHz2Im.ltrans1.ltrans.o
 .bss.__malloc_current_mallinfo
                0x20006700       0x28 c:/chibistudio/tools/gnu tools arm embedded/11.3 2022.08/bin/../lib/gcc/arm-none-eabi/11.3.1/thumb/v7e-m/nofp\libg.a(libc_a-mallocr.o)
                0x20006700                __malloc_current_mallinfo
 .bss.__malloc_max_sbrked_mem
                0x20006728        0x4 c:/chibistudio/tools/gnu tools arm embedded/11.3 2022.08/bin/../lib/gcc/arm-none-eabi/11.3.1/thumb/v7e-m/nofp\libg.a(libc_a-mallocr.o)
                0x20006728                __malloc_max_sbrked_mem
 .bss.__malloc_max_total_mem
                0x2000672c        0x4 c:/chibistudio/tools/gnu tools arm embedded/11.3 2022.08/bin/../lib/gcc/arm-none-eabi/11.3.1/thumb/v7e-m/nofp\libg.a(libc_a-mallocr.o)
                0x2000672c                __malloc_max_total_mem
 .bss.__malloc_top_pad
                0x20006730        0x4 c:/chibistudio/tools/gnu tools arm embedded/11.3 2022.08/bin/../lib/gcc/arm-none-eabi/11.3.1/thumb/v7e-m/nofp\libg.a(libc_a-mallocr.o)
                0x20006730                __malloc_top_pad
 .bss.__lock___malloc_recursive_mutex
                0x20006734        0x1 c:/chibistudio/tools/gnu tools arm embedded/11.3 2022.08/bin/../lib/gcc/arm-none-eabi/11.3.1/thumb/v7e-m/nofp\libg.a(libc_a-lock.o)
                0x20006734                __lock___malloc_recursive_mutex
 *fill*         0x20006735        0x3 
 .bss.__sf      0x20006738      0x138 c:/chibistudio/tools/gnu tools arm embedded/11.3 2022.08/bin/../lib/gcc/arm-none-eabi/11.3.1/thumb/v7e-m/nofp\libg.a(libc_a-findfp.o)
                0x20006738                __sf
 .bss.errno     0x20006870        0x4 c:/chibistudio/tools/gnu tools arm embedded/11.3 2022.08/bin/../lib/gcc/arm-none-eabi/11.3.1/thumb/v7e-m/nofp\libg.a(libc_a-reent.o)
                0x20006870                errno
 *(COMMON)
                0x20006874                . = ALIGN (0x4)
                0x20006874                __bss_end__ = .
                [!provide]                PROVIDE (end = .)
                0x20000000                __ram0_base__ = ORIGIN (ram0)
                0x00020000                __ram0_size__ = LENGTH (ram0)
                0x20020000                __ram0_end__ = (__ram0_base__ + __ram0_size__)
                0x20000000                __ram1_base__ = ORIGIN (ram1)
                0x0001c000                __ram1_size__ = LENGTH (ram1)
                0x2001c000                __ram1_end__ = (__ram1_base__ + __ram1_size__)
                0x2001c000                __ram2_base__ = ORIGIN (ram2)
                0x00004000                __ram2_size__ = LENGTH (ram2)
                0x20020000                __ram2_end__ = (__ram2_base__ + __ram2_size__)
                0x00000000                __ram3_base__ = ORIGIN (ram3)
                0x00000000                __ram3_size__ = LENGTH (ram3)
                0x00000000                __ram3_end__ = (__ram3_base__ + __ram3_size__)
                0x10000000                __ram4_base__ = ORIGIN (ram4)
                0x00010000                __ram4_size__ = LENGTH (ram4)
                0x10010000                __ram4_end__ = (__ram4_base__ + __ram4_size__)
                0x40024000                __ram5_base__ = ORIGIN (ram5)
                0x00001000                __ram5_size__ = LENGTH (ram5)
                0x40025000                __ram5_end__ = (__ram5_base__ + __ram5_size__)
                0x00000000                __ram6_base__ = ORIGIN (ram6)
                0x00000000                __ram6_size__ = LENGTH (ram6)
                0x00000000                __ram6_end__ = (__ram6_base__ + __ram6_size__)
                0x00000000                __ram7_base__ = ORIGIN (ram7)
                0x00000000                __ram7_size__ = LENGTH (ram7)
                0x00000000                __ram7_end__ = (__ram7_base__ + __ram7_size__)
                0x08000000                __flash0_base__ = ORIGIN (flash0)
                0x00100000                __flash0_size__ = LENGTH (flash0)
                0x08100000                __flash0_end__ = (__flash0_base__ + __flash0_size__)
                0x00000000                __flash1_base__ = ORIGIN (flash1)
                0x00000000                __flash1_size__ = LENGTH (flash1)
                0x00000000                __flash1_end__ = (__flash1_base__ + __flash1_size__)
                0x00000000                __flash2_base__ = ORIGIN (flash2)
                0x00000000                __flash2_size__ = LENGTH (flash2)
                0x00000000                __flash2_end__ = (__flash2_base__ + __flash2_size__)
                0x00000000                __flash3_base__ = ORIGIN (flash3)
                0x00000000                __flash3_size__ = LENGTH (flash3)
                0x00000000                __flash3_end__ = (__flash3_base__ + __flash3_size__)
                0x00000000                __flash4_base__ = ORIGIN (flash4)
                0x00000000                __flash4_size__ = LENGTH (flash4)
                0x00000000                __flash4_end__ = (__flash4_base__ + __flash4_size__)
                0x00000000                __flash5_base__ = ORIGIN (flash5)
                0x00000000                __flash5_size__ = LENGTH (flash5)
                0x00000000                __flash5_end__ = (__flash5_base__ + __flash5_size__)
                0x00000000                __flash6_base__ = ORIGIN (flash6)
                0x00000000                __flash6_size__ = LENGTH (flash6)
                0x00000000                __flash6_end__ = (__flash6_base__ + __flash6_size__)
                0x00000000                __flash7_base__ = ORIGIN (flash7)
                0x00000000                __flash7_size__ = LENGTH (flash7)
                0x00000000                __flash7_end__ = (__flash7_base__ + __flash7_size__)

.ram0_init      0x20006874        0x0 load address 0x0801c3c4
                0x0801c3c4                __ram0_init_text__ = LOADADDR (.ram0_init)
                0x20006874                __ram0_init__ = .
 *(.ram0_init)
 *(.ram0_init.*)
                0x20006874                . = ALIGN (0x4)

.ram0           0x20006874        0x0 load address 0x0801c3c4
                0x20006874                __ram0_clear__ = .
 *(.ram0_clear)
 *(.ram0_clear.*)
                0x20006874                . = ALIGN (0x4)
                0x20006874                __ram0_noinit__ = .
 *(.ram0)
 *(.ram0.*)
                0x20006874                . = ALIGN (0x4)
                0x20006874                __ram0_free__ = .

.ram1_init      0x20000000        0x0 load address 0x0801c3c4
                0x0801c3c4                __ram1_init_text__ = LOADADDR (.ram1_init)
                0x20000000                __ram1_init__ = .
 *(.ram1_init)
 *(.ram1_init.*)
                0x20000000                . = ALIGN (0x4)

.ram1           0x20000000        0x0 load address 0x0801c3c4
                0x20000000                __ram1_clear__ = .
 *(.ram1_clear)
 *(.ram1_clear.*)
                0x20000000                . = ALIGN (0x4)
                0x20000000                __ram1_noinit__ = .
 *(.ram1)
 *(.ram1.*)
                0x20000000                . = ALIGN (0x4)
                0x20000000                __ram1_free__ = .

.ram2_init      0x2001c000        0x0 load address 0x0801c3c4
                0x0801c3c4                __ram2_init_text__ = LOADADDR (.ram2_init)
                0x2001c000                __ram2_init__ = .
 *(.ram2_init)
 *(.ram2_init.*)
                0x2001c000                . = ALIGN (0x4)

.ram2           0x2001c000        0x0 load address 0x0801c3c4
                0x2001c000                __ram2_clear__ = .
 *(.ram2_clear)
 *(.ram2_clear.*)
                0x2001c000                . = ALIGN (0x4)
                0x2001c000                __ram2_noinit__ = .
 *(.ram2)
 *(.ram2.*)
                0x2001c000                . = ALIGN (0x4)
                0x2001c000                __ram2_free__ = .

.ram3_init      0x00000000        0x0 load address 0x0801c3c4
                0x0801c3c4                __ram3_init_text__ = LOADADDR (.ram3_init)
                0x00000000                __ram3_init__ = .
 *(.ram3_init)
 *(.ram3_init.*)
                0x00000000                . = ALIGN (0x4)

.ram3           0x00000000        0x0 load address 0x0801c3c4
                0x00000000                __ram3_clear__ = .
 *(.ram3_clear)
 *(.ram3_clear.*)
                0x00000000                . = ALIGN (0x4)
                0x00000000                __ram3_noinit__ = .
 *(.ram3)
 *(.ram3.*)
                0x00000000                . = ALIGN (0x4)
                0x00000000                __ram3_free__ = .

.ram4_init      0x10000000        0x0 load address 0x0801c3c4
                0x0801c3c4                __ram4_init_text__ = LOADADDR (.ram4_init)
                0x10000000                __ram4_init__ = .
 *(.ram4_init)
 *(.ram4_init.*)
                0x10000000                . = ALIGN (0x4)

.ram4           0x10000000        0x0 load address 0x0801c3c4
                0x10000000                __ram4_clear__ = .
 *(.ram4_clear)
 *(.ram4_clear.*)
                0x10000000                . = ALIGN (0x4)
                0x10000000                __ram4_noinit__ = .
 *(.ram4)
 *(.ram4.*)
                0x10000000                . = ALIGN (0x4)
                0x10000000                __ram4_free__ = .

.ram5_init      0x40024000        0x0 load address 0x0801c3c4
                0x0801c3c4                __ram5_init_text__ = LOADADDR (.ram5_init)
                0x40024000                __ram5_init__ = .
 *(.ram5_init)
 *(.ram5_init.*)
                0x40024000                . = ALIGN (0x4)

.ram5           0x40024000        0x0 load address 0x0801c3c4
                0x40024000                __ram5_clear__ = .
 *(.ram5_clear)
 *(.ram5_clear.*)
                0x40024000                . = ALIGN (0x4)
                0x40024000                __ram5_noinit__ = .
 *(.ram5)
 *(.ram5.*)
                0x40024000                . = ALIGN (0x4)
                0x40024000                __ram5_free__ = .

.ram6_init      0x00000000        0x0 load address 0x0801c3c4
                0x0801c3c4                __ram6_init_text__ = LOADADDR (.ram6_init)
                0x00000000                __ram6_init__ = .
 *(.ram6_init)
 *(.ram6_init.*)
                0x00000000                . = ALIGN (0x4)

.ram6           0x00000000        0x0 load address 0x0801c3c4
                0x00000000                __ram6_clear__ = .
 *(.ram6_clear)
 *(.ram6_clear.*)
                0x00000000                . = ALIGN (0x4)
                0x00000000                __ram6_noinit__ = .
 *(.ram6)
 *(.ram6.*)
                0x00000000                . = ALIGN (0x4)
                0x00000000                __ram6_free__ = .

.ram7_init      0x00000000        0x0 load address 0x0801c3c4
                0x0801c3c4                __ram7_init_text__ = LOADADDR (.ram7_init)
                0x00000000                __ram7_init__ = .
 *(.ram7_init)
 *(.ram7_init.*)
                0x00000000                . = ALIGN (0x4)

.ram7           0x00000000        0x0 load address 0x0801c3c4
                0x00000000                __ram7_clear__ = .
 *(.ram7_clear)
 *(.ram7_clear.*)
                0x00000000                . = ALIGN (0x4)
                0x00000000                __ram7_noinit__ = .
 *(.ram7)
 *(.ram7.*)
                0x00000000                . = ALIGN (0x4)
                0x00000000                __ram7_free__ = .

.flash0         0x0801c3c4        0x0
                0x0801c3c4                __flash0_init__ = .
 *(.flash0_init)
 *(.flash0_init.*)
                0x0801c3c4                __flash0_free__ = .

.flash1         0x00000000        0x0
                0x00000000                __flash1_init__ = .
 *(.flash1_init)
 *(.flash1_init.*)
                0x00000000                __flash1_free__ = .

.flash2         0x00000000        0x0
                0x00000000                __flash2_init__ = .
 *(.flash2_init)
 *(.flash2_init.*)
                0x00000000                __flash2_free__ = .

.flash3         0x00000000        0x0
                0x00000000                __flash3_init__ = .
 *(.flash3_init)
 *(.flash3_init.*)
                0x00000000                __flash3_free__ = .

.flash4         0x00000000        0x0
                0x00000000                __flash4_init__ = .
 *(.flash4_init)
 *(.flash4_init.*)
                0x00000000                __flash4_free__ = .

.flash5         0x00000000        0x0
                0x00000000                __flash5_init__ = .
 *(.flash5_init)
 *(.flash5_init.*)
                0x00000000                __flash5_free__ = .

.flash6         0x00000000        0x0
                0x00000000                __flash6_init__ = .
 *(.flash6_init)
 *(.flash6_init.*)
                0x00000000                __flash6_free__ = .

.flash7         0x00000000        0x0
                0x00000000                __flash7_init__ = .
 *(.flash7_init)
 *(.flash7_init.*)
                0x00000000                __flash7_free__ = .

.heap           0x20006874    0x1978c
                0x20006878                . = ALIGN (0x8)
 *fill*         0x20006874        0x4 
                0x20006878                __heap_base__ = .
                0x20020000                . = (ORIGIN (HEAP_RAM) + LENGTH (HEAP_RAM))
 *fill*         0x20006878    0x19788 
                0x20020000                __heap_end__ = .
                0x00000400                __process_stack_size__ = 0x400
                0x00000400                __main_stack_size__ = 0x400
START GROUP
LOAD c:/chibistudio/tools/gnu tools arm embedded/11.3 2022.08/bin/../lib/gcc/arm-none-eabi/11.3.1/thumb/v7e-m/nofp\libgcc.a
LOAD c:/chibistudio/tools/gnu tools arm embedded/11.3 2022.08/bin/../lib/gcc/arm-none-eabi/11.3.1/thumb/v7e-m/nofp\libg.a
LOAD c:/chibistudio/tools/gnu tools arm embedded/11.3 2022.08/bin/../lib/gcc/arm-none-eabi/11.3.1/thumb/v7e-m/nofp\libc.a
END GROUP
OUTPUT(build/ch.elf elf32-littlearm)
LOAD linker stubs

.ARM.attributes
                0x00000000       0x2f
 .ARM.attributes
                0x00000000       0x21 ./build/obj/crt0_v7m.o
 .ARM.attributes
                0x00000021       0x21 ./build/obj/vectors.o
 .ARM.attributes
                0x00000042       0x21 ./build/obj/chcoreasm.o
 .ARM.attributes
                0x00000063       0x2c C:\Users\Ridwane\AppData\Local\Temp\ccbHz2Im.ltrans0.ltrans.o
 .ARM.attributes
                0x0000008f       0x2c C:\Users\Ridwane\AppData\Local\Temp\ccbHz2Im.ltrans1.ltrans.o
 .ARM.attributes
                0x000000bb       0x2e c:/chibistudio/tools/gnu tools arm embedded/11.3 2022.08/bin/../lib/gcc/arm-none-eabi/11.3.1/thumb/v7e-m/nofp\libg.a(libc_a-malloc.o)
 .ARM.attributes
                0x000000e9       0x2e c:/chibistudio/tools/gnu tools arm embedded/11.3 2022.08/bin/../lib/gcc/arm-none-eabi/11.3.1/thumb/v7e-m/nofp\libg.a(libc_a-mallocr.o)
 .ARM.attributes
                0x00000117       0x2e c:/chibistudio/tools/gnu tools arm embedded/11.3 2022.08/bin/../lib/gcc/arm-none-eabi/11.3.1/thumb/v7e-m/nofp\libg.a(libc_a-mlock.o)
 .ARM.attributes
                0x00000145       0x2e c:/chibistudio/tools/gnu tools arm embedded/11.3 2022.08/bin/../lib/gcc/arm-none-eabi/11.3.1/thumb/v7e-m/nofp\libg.a(libc_a-memcmp.o)
 .ARM.attributes
                0x00000173       0x2e c:/chibistudio/tools/gnu tools arm embedded/11.3 2022.08/bin/../lib/gcc/arm-none-eabi/11.3.1/thumb/v7e-m/nofp\libg.a(libc_a-memmove.o)
 .ARM.attributes
                0x000001a1       0x2e c:/chibistudio/tools/gnu tools arm embedded/11.3 2022.08/bin/../lib/gcc/arm-none-eabi/11.3.1/thumb/v7e-m/nofp\libg.a(libc_a-memset.o)
 .ARM.attributes
                0x000001cf       0x2e c:/chibistudio/tools/gnu tools arm embedded/11.3 2022.08/bin/../lib/gcc/arm-none-eabi/11.3.1/thumb/v7e-m/nofp\libg.a(libc_a-strncmp.o)
 .ARM.attributes
                0x000001fd       0x2e c:/chibistudio/tools/gnu tools arm embedded/11.3 2022.08/bin/../lib/gcc/arm-none-eabi/11.3.1/thumb/v7e-m/nofp\libg.a(libc_a-impure.o)
 .ARM.attributes
                0x0000022b       0x2e c:/chibistudio/tools/gnu tools arm embedded/11.3 2022.08/bin/../lib/gcc/arm-none-eabi/11.3.1/thumb/v7e-m/nofp\libg.a(libc_a-sbrkr.o)
 .ARM.attributes
                0x00000259       0x2e c:/chibistudio/tools/gnu tools arm embedded/11.3 2022.08/bin/../lib/gcc/arm-none-eabi/11.3.1/thumb/v7e-m/nofp\libg.a(libc_a-lock.o)
 .ARM.attributes
                0x00000287       0x1c c:/chibistudio/tools/gnu tools arm embedded/11.3 2022.08/bin/../lib/gcc/arm-none-eabi/11.3.1/thumb/v7e-m/nofp\libg.a(libc_a-strcmp.o)
 .ARM.attributes
                0x000002a3       0x1c c:/chibistudio/tools/gnu tools arm embedded/11.3 2022.08/bin/../lib/gcc/arm-none-eabi/11.3.1/thumb/v7e-m/nofp\libg.a(libc_a-memcpy.o)
 .ARM.attributes
                0x000002bf       0x2e c:/chibistudio/tools/gnu tools arm embedded/11.3 2022.08/bin/../lib/gcc/arm-none-eabi/11.3.1/thumb/v7e-m/nofp\libg.a(libc_a-freer.o)
 .ARM.attributes
                0x000002ed       0x2e c:/chibistudio/tools/gnu tools arm embedded/11.3 2022.08/bin/../lib/gcc/arm-none-eabi/11.3.1/thumb/v7e-m/nofp\libg.a(libc_a-findfp.o)
 .ARM.attributes
                0x0000031b       0x2e c:/chibistudio/tools/gnu tools arm embedded/11.3 2022.08/bin/../lib/gcc/arm-none-eabi/11.3.1/thumb/v7e-m/nofp\libg.a(libc_a-reent.o)

.comment        0x00000000       0x33
 .comment       0x00000000       0x33 C:\Users\Ridwane\AppData\Local\Temp\ccbHz2Im.ltrans0.ltrans.o
                                 0x34 (size before relaxing)
 .comment       0x00000033       0x34 C:\Users\Ridwane\AppData\Local\Temp\ccbHz2Im.ltrans1.ltrans.o
 .comment       0x00000033       0x34 c:/chibistudio/tools/gnu tools arm embedded/11.3 2022.08/bin/../lib/gcc/arm-none-eabi/11.3.1/thumb/v7e-m/nofp\libg.a(libc_a-malloc.o)
 .comment       0x00000033       0x34 c:/chibistudio/tools/gnu tools arm embedded/11.3 2022.08/bin/../lib/gcc/arm-none-eabi/11.3.1/thumb/v7e-m/nofp\libg.a(libc_a-mallocr.o)
 .comment       0x00000033       0x34 c:/chibistudio/tools/gnu tools arm embedded/11.3 2022.08/bin/../lib/gcc/arm-none-eabi/11.3.1/thumb/v7e-m/nofp\libg.a(libc_a-mlock.o)
 .comment       0x00000033       0x34 c:/chibistudio/tools/gnu tools arm embedded/11.3 2022.08/bin/../lib/gcc/arm-none-eabi/11.3.1/thumb/v7e-m/nofp\libg.a(libc_a-memcmp.o)
 .comment       0x00000033       0x34 c:/chibistudio/tools/gnu tools arm embedded/11.3 2022.08/bin/../lib/gcc/arm-none-eabi/11.3.1/thumb/v7e-m/nofp\libg.a(libc_a-memmove.o)
 .comment       0x00000033       0x34 c:/chibistudio/tools/gnu tools arm embedded/11.3 2022.08/bin/../lib/gcc/arm-none-eabi/11.3.1/thumb/v7e-m/nofp\libg.a(libc_a-memset.o)
 .comment       0x00000033       0x34 c:/chibistudio/tools/gnu tools arm embedded/11.3 2022.08/bin/../lib/gcc/arm-none-eabi/11.3.1/thumb/v7e-m/nofp\libg.a(libc_a-strncmp.o)
 .comment       0x00000033       0x34 c:/chibistudio/tools/gnu tools arm embedded/11.3 2022.08/bin/../lib/gcc/arm-none-eabi/11.3.1/thumb/v7e-m/nofp\libg.a(libc_a-impure.o)
 .comment       0x00000033       0x34 c:/chibistudio/tools/gnu tools arm embedded/11.3 2022.08/bin/../lib/gcc/arm-none-eabi/11.3.1/thumb/v7e-m/nofp\libg.a(libc_a-sbrkr.o)
 .comment       0x00000033       0x34 c:/chibistudio/tools/gnu tools arm embedded/11.3 2022.08/bin/../lib/gcc/arm-none-eabi/11.3.1/thumb/v7e-m/nofp\libg.a(libc_a-lock.o)
 .comment       0x00000033       0x34 c:/chibistudio/tools/gnu tools arm embedded/11.3 2022.08/bin/../lib/gcc/arm-none-eabi/11.3.1/thumb/v7e-m/nofp\libg.a(libc_a-freer.o)
 .comment       0x00000033       0x34 c:/chibistudio/tools/gnu tools arm embedded/11.3 2022.08/bin/../lib/gcc/arm-none-eabi/11.3.1/thumb/v7e-m/nofp\libg.a(libc_a-findfp.o)
 .comment       0x00000033       0x34 c:/chibistudio/tools/gnu tools arm embedded/11.3 2022.08/bin/../lib/gcc/arm-none-eabi/11.3.1/thumb/v7e-m/nofp\libg.a(libc_a-reent.o)

.debug_line     0x00000000    0x2d00f
 .debug_line    0x00000000       0xa6 ./build/obj/crt0_v7m.o
 .debug_line    0x000000a6       0x4f ./build/obj/vectors.o
 .debug_line    0x000000f5       0x62 ./build/obj/chcoreasm.o
 .debug_line    0x00000157    0x1cb02 C:\Users\Ridwane\AppData\Local\Temp\ccbHz2Im.ltrans0.ltrans.o
 .debug_line    0x0001cc59     0xadd6 C:\Users\Ridwane\AppData\Local\Temp\ccbHz2Im.ltrans1.ltrans.o
 .debug_line    0x00027a2f       0x4c C:\Users\Ridwane\AppData\Local\Temp\cc77RtQY.debug.temp.o
 .debug_line    0x00027a7b       0x6c C:\Users\Ridwane\AppData\Local\Temp\ccAV2byo.debug.temp.o
 .debug_line    0x00027ae7       0x67 C:\Users\Ridwane\AppData\Local\Temp\ccHXeggN.debug.temp.o
 .debug_line    0x00027b4e       0xa4 C:\Users\Ridwane\AppData\Local\Temp\ccGCsLxZ.debug.temp.o
 .debug_line    0x00027bf2       0xd4 C:\Users\Ridwane\AppData\Local\Temp\ccmmEpfB.debug.temp.o
 .debug_line    0x00027cc6       0x55 C:\Users\Ridwane\AppData\Local\Temp\ccZssOc0.debug.temp.o
 .debug_line    0x00027d1b      0x176 C:\Users\Ridwane\AppData\Local\Temp\ccWDpJnp.debug.temp.o
 .debug_line    0x00027e91       0x68 C:\Users\Ridwane\AppData\Local\Temp\cc9GMhuO.debug.temp.o
 .debug_line    0x00027ef9       0x56 C:\Users\Ridwane\AppData\Local\Temp\cchVUx4m.debug.temp.o
 .debug_line    0x00027f4f       0x82 C:\Users\Ridwane\AppData\Local\Temp\cccVyttL.debug.temp.o
 .debug_line    0x00027fd1       0xcb C:\Users\Ridwane\AppData\Local\Temp\cc57jBU9.debug.temp.o
 .debug_line    0x0002809c       0x67 C:\Users\Ridwane\AppData\Local\Temp\cc2CpRey.debug.temp.o
 .debug_line    0x00028103       0xd2 C:\Users\Ridwane\AppData\Local\Temp\ccUFKvfl.debug.temp.o
 .debug_line    0x000281d5       0x8f C:\Users\Ridwane\AppData\Local\Temp\ccvXOZKJ.debug.temp.o
 .debug_line    0x00028264       0xa6 C:\Users\Ridwane\AppData\Local\Temp\ccmG8fiS.debug.temp.o
 .debug_line    0x0002830a       0x9d C:\Users\Ridwane\AppData\Local\Temp\cclmng1f.debug.temp.o
 .debug_line    0x000283a7       0xac C:\Users\Ridwane\AppData\Local\Temp\ccSBDSDD.debug.temp.o
 .debug_line    0x00028453       0xcc C:\Users\Ridwane\AppData\Local\Temp\ccXKrUt1.debug.temp.o
 .debug_line    0x0002851f       0x9d C:\Users\Ridwane\AppData\Local\Temp\ccwxYUep.debug.temp.o
 .debug_line    0x000285bc       0xb9 C:\Users\Ridwane\AppData\Local\Temp\ccdMZ81M.debug.temp.o
 .debug_line    0x00028675       0xa2 C:\Users\Ridwane\AppData\Local\Temp\ccidLa3a.debug.temp.o
 .debug_line    0x00028717       0xa2 C:\Users\Ridwane\AppData\Local\Temp\ccvgKgZy.debug.temp.o
 .debug_line    0x000287b9       0xa7 C:\Users\Ridwane\AppData\Local\Temp\ccsPjFC0.debug.temp.o
 .debug_line    0x00028860       0xa7 C:\Users\Ridwane\AppData\Local\Temp\ccFgjHbs.debug.temp.o
 .debug_line    0x00028907       0xa7 C:\Users\Ridwane\AppData\Local\Temp\cc8DQXXT.debug.temp.o
 .debug_line    0x000289ae       0xbe C:\Users\Ridwane\AppData\Local\Temp\ccPCHsMl.debug.temp.o
 .debug_line    0x00028a6c       0x97 C:\Users\Ridwane\AppData\Local\Temp\ccGk9zwN.debug.temp.o
 .debug_line    0x00028b03       0x79 C:\Users\Ridwane\AppData\Local\Temp\ccR6Jduf.debug.temp.o
 .debug_line    0x00028b7c       0xa1 C:\Users\Ridwane\AppData\Local\Temp\ccavyVmH.debug.temp.o
 .debug_line    0x00028c1d       0x97 C:\Users\Ridwane\AppData\Local\Temp\ccR56qt9.debug.temp.o
 .debug_line    0x00028cb4       0xbd C:\Users\Ridwane\AppData\Local\Temp\ccikgVvB.debug.temp.o
 .debug_line    0x00028d71       0x88 C:\Users\Ridwane\AppData\Local\Temp\ccdm1lB2.debug.temp.o
 .debug_line    0x00028df9       0xb4 C:\Users\Ridwane\AppData\Local\Temp\cc6c3pBt.debug.temp.o
 .debug_line    0x00028ead       0xc3 C:\Users\Ridwane\AppData\Local\Temp\cc7x8uMU.debug.temp.o
 .debug_line    0x00028f70       0xa2 C:\Users\Ridwane\AppData\Local\Temp\cckD2VSl.debug.temp.o
 .debug_line    0x00029012       0x92 C:\Users\Ridwane\AppData\Local\Temp\ccVUGadN.debug.temp.o
 .debug_line    0x000290a4       0x7a C:\Users\Ridwane\AppData\Local\Temp\ccIYIyBe.debug.temp.o
 .debug_line    0x0002911e      0x107 C:\Users\Ridwane\AppData\Local\Temp\ccJ94MTF.debug.temp.o
 .debug_line    0x00029225       0x75 C:\Users\Ridwane\AppData\Local\Temp\ccYHb7o7.debug.temp.o
 .debug_line    0x0002929a       0xae C:\Users\Ridwane\AppData\Local\Temp\cclSvvPy.debug.temp.o
 .debug_line    0x00029348       0x8d C:\Users\Ridwane\AppData\Local\Temp\ccG32LiZ.debug.temp.o
 .debug_line    0x000293d5       0xa9 C:\Users\Ridwane\AppData\Local\Temp\ccjYuyOp.debug.temp.o
 .debug_line    0x0002947e       0xd5 C:\Users\Ridwane\AppData\Local\Temp\ccYnoFfQ.debug.temp.o
 .debug_line    0x00029553       0xda C:\Users\Ridwane\AppData\Local\Temp\ccRqaORg.debug.temp.o
 .debug_line    0x0002962d       0xd9 C:\Users\Ridwane\AppData\Local\Temp\ccmVqUpH.debug.temp.o
 .debug_line    0x00029706       0xcc C:\Users\Ridwane\AppData\Local\Temp\ccDC7ab8.debug.temp.o
 .debug_line    0x000297d2       0xc7 C:\Users\Ridwane\AppData\Local\Temp\cc2V1vRy.debug.temp.o
 .debug_line    0x00029899       0xd0 C:\Users\Ridwane\AppData\Local\Temp\ccDP1lAZ.debug.temp.o
 .debug_line    0x00029969       0xd1 C:\Users\Ridwane\AppData\Local\Temp\ccyNaIwq.debug.temp.o
 .debug_line    0x00029a3a       0xdf C:\Users\Ridwane\AppData\Local\Temp\ccbS9apR.debug.temp.o
 .debug_line    0x00029b19       0x75 C:\Users\Ridwane\AppData\Local\Temp\ccwXtwjh.debug.temp.o
 .debug_line    0x00029b8e       0x75 C:\Users\Ridwane\AppData\Local\Temp\ccz3u98G.debug.temp.o
 .debug_line    0x00029c03       0xad C:\Users\Ridwane\AppData\Local\Temp\ccWdFic7.debug.temp.o
 .debug_line    0x00029cb0       0xbc C:\Users\Ridwane\AppData\Local\Temp\cczgf5ax.debug.temp.o
 .debug_line    0x00029d6c       0xcc C:\Users\Ridwane\AppData\Local\Temp\ccuEVRlX.debug.temp.o
 .debug_line    0x00029e38       0xc7 C:\Users\Ridwane\AppData\Local\Temp\cc1Nk6qn.debug.temp.o
 .debug_line    0x00029eff       0xa4 C:\Users\Ridwane\AppData\Local\Temp\ccmhx3JN.debug.temp.o
 .debug_line    0x00029fa3       0x92 C:\Users\Ridwane\AppData\Local\Temp\ccPmX4Xd.debug.temp.o
 .debug_line    0x0002a035       0xb8 C:\Users\Ridwane\AppData\Local\Temp\ccaqsCVH.debug.temp.o
 .debug_line    0x0002a0ed       0xcc C:\Users\Ridwane\AppData\Local\Temp\ccLlnNOb.debug.temp.o
 .debug_line    0x0002a1b9       0xff C:\Users\Ridwane\AppData\Local\Temp\ccy3F7LF.debug.temp.o
 .debug_line    0x0002a2b8       0x64 C:\Users\Ridwane\AppData\Local\Temp\ccJXIfX9.debug.temp.o
 .debug_line    0x0002a31c       0x64 C:\Users\Ridwane\AppData\Local\Temp\ccY95v1D.debug.temp.o
 .debug_line    0x0002a380       0x5b C:\Users\Ridwane\AppData\Local\Temp\ccHFZjj8.debug.temp.o
 .debug_line    0x0002a3db       0x56 C:\Users\Ridwane\AppData\Local\Temp\ccB5H2Y6.debug.temp.o
 .debug_line    0x0002a431       0x4d C:\Users\Ridwane\AppData\Local\Temp\cc8mduwA.debug.temp.o
 .debug_line    0x0002a47e       0x64 C:\Users\Ridwane\AppData\Local\Temp\cc3YCM13.debug.temp.o
 .debug_line    0x0002a4e2       0x64 C:\Users\Ridwane\AppData\Local\Temp\ccB7h9h1.debug.temp.o
 .debug_line    0x0002a546       0x5b C:\Users\Ridwane\AppData\Local\Temp\cciudy9u.debug.temp.o
 .debug_line    0x0002a5a1      0x1fa c:/chibistudio/tools/gnu tools arm embedded/11.3 2022.08/bin/../lib/gcc/arm-none-eabi/11.3.1/thumb/v7e-m/nofp\libg.a(libc_a-malloc.o)
 .debug_line    0x0002a79b      0x949 c:/chibistudio/tools/gnu tools arm embedded/11.3 2022.08/bin/../lib/gcc/arm-none-eabi/11.3.1/thumb/v7e-m/nofp\libg.a(libc_a-mallocr.o)
 .debug_line    0x0002b0e4      0x1e6 c:/chibistudio/tools/gnu tools arm embedded/11.3 2022.08/bin/../lib/gcc/arm-none-eabi/11.3.1/thumb/v7e-m/nofp\libg.a(libc_a-mlock.o)
 .debug_line    0x0002b2ca      0x1e7 c:/chibistudio/tools/gnu tools arm embedded/11.3 2022.08/bin/../lib/gcc/arm-none-eabi/11.3.1/thumb/v7e-m/nofp\libg.a(libc_a-memcmp.o)
 .debug_line    0x0002b4b1      0x265 c:/chibistudio/tools/gnu tools arm embedded/11.3 2022.08/bin/../lib/gcc/arm-none-eabi/11.3.1/thumb/v7e-m/nofp\libg.a(libc_a-memmove.o)
 .debug_line    0x0002b716      0x23d c:/chibistudio/tools/gnu tools arm embedded/11.3 2022.08/bin/../lib/gcc/arm-none-eabi/11.3.1/thumb/v7e-m/nofp\libg.a(libc_a-memset.o)
 .debug_line    0x0002b953      0x261 c:/chibistudio/tools/gnu tools arm embedded/11.3 2022.08/bin/../lib/gcc/arm-none-eabi/11.3.1/thumb/v7e-m/nofp\libg.a(libc_a-strncmp.o)
 .debug_line    0x0002bbb4       0xfe c:/chibistudio/tools/gnu tools arm embedded/11.3 2022.08/bin/../lib/gcc/arm-none-eabi/11.3.1/thumb/v7e-m/nofp\libg.a(libc_a-impure.o)
 .debug_line    0x0002bcb2      0x217 c:/chibistudio/tools/gnu tools arm embedded/11.3 2022.08/bin/../lib/gcc/arm-none-eabi/11.3.1/thumb/v7e-m/nofp\libg.a(libc_a-sbrkr.o)
 .debug_line    0x0002bec9      0x105 c:/chibistudio/tools/gnu tools arm embedded/11.3 2022.08/bin/../lib/gcc/arm-none-eabi/11.3.1/thumb/v7e-m/nofp\libg.a(libc_a-lock.o)
 .debug_line    0x0002bfce      0x10f c:/chibistudio/tools/gnu tools arm embedded/11.3 2022.08/bin/../lib/gcc/arm-none-eabi/11.3.1/thumb/v7e-m/nofp\libg.a(libc_a-strcmp.o)
 .debug_line    0x0002c0dd       0x95 c:/chibistudio/tools/gnu tools arm embedded/11.3 2022.08/bin/../lib/gcc/arm-none-eabi/11.3.1/thumb/v7e-m/nofp\libg.a(libc_a-memcpy.o)
 .debug_line    0x0002c172      0x595 c:/chibistudio/tools/gnu tools arm embedded/11.3 2022.08/bin/../lib/gcc/arm-none-eabi/11.3.1/thumb/v7e-m/nofp\libg.a(libc_a-freer.o)
 .debug_line    0x0002c707      0x6ad c:/chibistudio/tools/gnu tools arm embedded/11.3 2022.08/bin/../lib/gcc/arm-none-eabi/11.3.1/thumb/v7e-m/nofp\libg.a(libc_a-findfp.o)
 .debug_line    0x0002cdb4      0x25b c:/chibistudio/tools/gnu tools arm embedded/11.3 2022.08/bin/../lib/gcc/arm-none-eabi/11.3.1/thumb/v7e-m/nofp\libg.a(libc_a-reent.o)

.debug_line_str
                0x00000000     0x1a21
 .debug_line_str
                0x00000000       0x69 ./build/obj/crt0_v7m.o
                                 0x74 (size before relaxing)
 .debug_line_str
                0x00000069        0xa ./build/obj/vectors.o
                                 0x72 (size before relaxing)
 .debug_line_str
                0x00000073       0x44 ./build/obj/chcoreasm.o
                                 0x75 (size before relaxing)
 .debug_line_str
                0x000000b7      0x105 C:\Users\Ridwane\AppData\Local\Temp\cc77RtQY.debug.temp.o
                                0x16a (size before relaxing)
 .debug_line_str
                0x000001bc      0x15d C:\Users\Ridwane\AppData\Local\Temp\ccAV2byo.debug.temp.o
                                0x188 (size before relaxing)
 .debug_line_str
                0x00000319       0xca C:\Users\Ridwane\AppData\Local\Temp\ccHXeggN.debug.temp.o
                                0x1da (size before relaxing)
 .debug_line_str
                0x000003e3      0x1a0 C:\Users\Ridwane\AppData\Local\Temp\ccGCsLxZ.debug.temp.o
                                0x32a (size before relaxing)
 .debug_line_str
                0x00000583      0x115 C:\Users\Ridwane\AppData\Local\Temp\ccmmEpfB.debug.temp.o
                                0x3be (size before relaxing)
 .debug_line_str
                0x00000698       0x6c C:\Users\Ridwane\AppData\Local\Temp\ccZssOc0.debug.temp.o
                                0x194 (size before relaxing)
 .debug_line_str
                0x00000704      0x2bc C:\Users\Ridwane\AppData\Local\Temp\ccWDpJnp.debug.temp.o
                                0x67d (size before relaxing)
 .debug_line_str
                0x000009c0       0x58 C:\Users\Ridwane\AppData\Local\Temp\cc9GMhuO.debug.temp.o
                                0x1f8 (size before relaxing)
 .debug_line_str
                0x00000a18       0x4b C:\Users\Ridwane\AppData\Local\Temp\cchVUx4m.debug.temp.o
                                0x181 (size before relaxing)
 .debug_line_str
                0x00000a63       0x40 C:\Users\Ridwane\AppData\Local\Temp\cccVyttL.debug.temp.o
                                0x2aa (size before relaxing)
 .debug_line_str
                0x00000aa3       0x42 C:\Users\Ridwane\AppData\Local\Temp\cc57jBU9.debug.temp.o
                                0x3b4 (size before relaxing)
 .debug_line_str
                0x00000ae5       0x3d C:\Users\Ridwane\AppData\Local\Temp\cc2CpRey.debug.temp.o
                                0x21b (size before relaxing)
 .debug_line_str
                0x00000b22       0xac C:\Users\Ridwane\AppData\Local\Temp\ccUFKvfl.debug.temp.o
                                0x33a (size before relaxing)
 .debug_line_str
                0x00000bce       0x25 C:\Users\Ridwane\AppData\Local\Temp\ccvXOZKJ.debug.temp.o
                                0x212 (size before relaxing)
 .debug_line_str
                0x00000bf3       0x32 C:\Users\Ridwane\AppData\Local\Temp\ccmG8fiS.debug.temp.o
                                0x28c (size before relaxing)
 .debug_line_str
                0x00000c25       0x25 C:\Users\Ridwane\AppData\Local\Temp\cclmng1f.debug.temp.o
                                0x25c (size before relaxing)
 .debug_line_str
                0x00000c4a       0x37 C:\Users\Ridwane\AppData\Local\Temp\ccSBDSDD.debug.temp.o
                                0x277 (size before relaxing)
 .debug_line_str
                0x00000c81       0x35 C:\Users\Ridwane\AppData\Local\Temp\ccXKrUt1.debug.temp.o
                                0x35b (size before relaxing)
 .debug_line_str
                0x00000cb6       0x23 C:\Users\Ridwane\AppData\Local\Temp\ccwxYUep.debug.temp.o
                                0x257 (size before relaxing)
 .debug_line_str
                0x00000cd9       0x29 C:\Users\Ridwane\AppData\Local\Temp\ccdMZ81M.debug.temp.o
                                0x33c (size before relaxing)
 .debug_line_str
                0x00000d02       0x24 C:\Users\Ridwane\AppData\Local\Temp\ccidLa3a.debug.temp.o
                                0x268 (size before relaxing)
 .debug_line_str
                0x00000d26       0x24 C:\Users\Ridwane\AppData\Local\Temp\ccvgKgZy.debug.temp.o
                                0x268 (size before relaxing)
 .debug_line_str
                0x00000d4a       0x2e C:\Users\Ridwane\AppData\Local\Temp\ccsPjFC0.debug.temp.o
                                0x273 (size before relaxing)
 .debug_line_str
                0x00000d78       0x27 C:\Users\Ridwane\AppData\Local\Temp\ccFgjHbs.debug.temp.o
                                0x279 (size before relaxing)
 .debug_line_str
                0x00000d9f       0x2c C:\Users\Ridwane\AppData\Local\Temp\cc8DQXXT.debug.temp.o
                                0x270 (size before relaxing)
 .debug_line_str
                0x00000dcb       0x28 C:\Users\Ridwane\AppData\Local\Temp\ccPCHsMl.debug.temp.o
                                0x320 (size before relaxing)
 .debug_line_str
                0x00000df3       0x54 C:\Users\Ridwane\AppData\Local\Temp\ccGk9zwN.debug.temp.o
                                0x2af (size before relaxing)
 .debug_line_str
                0x00000e47       0x2b C:\Users\Ridwane\AppData\Local\Temp\ccR6Jduf.debug.temp.o
                                0x274 (size before relaxing)
 .debug_line_str
                0x00000e72       0x2c C:\Users\Ridwane\AppData\Local\Temp\ccavyVmH.debug.temp.o
                                0x2bb (size before relaxing)
 .debug_line_str
                0x00000e9e       0x2c C:\Users\Ridwane\AppData\Local\Temp\ccR56qt9.debug.temp.o
                                0x2b1 (size before relaxing)
 .debug_line_str
                0x00000eca       0x33 C:\Users\Ridwane\AppData\Local\Temp\ccikgVvB.debug.temp.o
                                0x35e (size before relaxing)
 .debug_line_str
                0x00000efd       0x3b C:\Users\Ridwane\AppData\Local\Temp\ccdm1lB2.debug.temp.o
                                0x296 (size before relaxing)
 .debug_line_str
                0x00000f38       0x4f C:\Users\Ridwane\AppData\Local\Temp\cc6c3pBt.debug.temp.o
                                0x310 (size before relaxing)
 .debug_line_str
                0x00000f87       0x38 C:\Users\Ridwane\AppData\Local\Temp\cc7x8uMU.debug.temp.o
                                0x34c (size before relaxing)
 .debug_line_str
                0x00000fbf       0x33 C:\Users\Ridwane\AppData\Local\Temp\cckD2VSl.debug.temp.o
                                0x28e (size before relaxing)
 .debug_line_str
                0x00000ff2       0x80 C:\Users\Ridwane\AppData\Local\Temp\ccVUGadN.debug.temp.o
                                0x286 (size before relaxing)
 .debug_line_str
                0x00001072       0x2f C:\Users\Ridwane\AppData\Local\Temp\ccIYIyBe.debug.temp.o
                                0x248 (size before relaxing)
 .debug_line_str
                0x000010a1      0x17e C:\Users\Ridwane\AppData\Local\Temp\ccJ94MTF.debug.temp.o
                                0x49c (size before relaxing)
 .debug_line_str
                0x0000121f       0x3d C:\Users\Ridwane\AppData\Local\Temp\ccYHb7o7.debug.temp.o
                                0x267 (size before relaxing)
 .debug_line_str
                0x0000125c       0x3d C:\Users\Ridwane\AppData\Local\Temp\cclSvvPy.debug.temp.o
                                0x34e (size before relaxing)
 .debug_line_str
                0x00001299       0x3d C:\Users\Ridwane\AppData\Local\Temp\ccG32LiZ.debug.temp.o
                                0x2b4 (size before relaxing)
 .debug_line_str
                0x000012d6       0x3d C:\Users\Ridwane\AppData\Local\Temp\ccjYuyOp.debug.temp.o
                                0x341 (size before relaxing)
 .debug_line_str
                0x00001313       0x3d C:\Users\Ridwane\AppData\Local\Temp\ccYnoFfQ.debug.temp.o
                                0x3bd (size before relaxing)
 .debug_line_str
                0x00001350       0x3d C:\Users\Ridwane\AppData\Local\Temp\ccRqaORg.debug.temp.o
                                0x3c6 (size before relaxing)
 .debug_line_str
                0x0000138d       0x46 C:\Users\Ridwane\AppData\Local\Temp\ccmVqUpH.debug.temp.o
                                0x3da (size before relaxing)
 .debug_line_str
                0x000013d3       0x3d C:\Users\Ridwane\AppData\Local\Temp\ccDC7ab8.debug.temp.o
                                0x38b (size before relaxing)
 .debug_line_str
                0x00001410       0x3d C:\Users\Ridwane\AppData\Local\Temp\cc2V1vRy.debug.temp.o
                                0x381 (size before relaxing)
 .debug_line_str
                0x0000144d       0x3d C:\Users\Ridwane\AppData\Local\Temp\ccDP1lAZ.debug.temp.o
                                0x3b0 (size before relaxing)
 .debug_line_str
                0x0000148a       0x49 C:\Users\Ridwane\AppData\Local\Temp\ccyNaIwq.debug.temp.o
                                0x38b (size before relaxing)
 .debug_line_str
                0x000014d3       0x3d C:\Users\Ridwane\AppData\Local\Temp\ccbS9apR.debug.temp.o
                                0x3ce (size before relaxing)
 .debug_line_str
                0x00001510      0x160 C:\Users\Ridwane\AppData\Local\Temp\ccwXtwjh.debug.temp.o
                                0x1c3 (size before relaxing)
 .debug_line_str
                0x00001670       0x43 C:\Users\Ridwane\AppData\Local\Temp\ccz3u98G.debug.temp.o
                                0x276 (size before relaxing)
 .debug_line_str
                0x000016b3       0x43 C:\Users\Ridwane\AppData\Local\Temp\ccWdFic7.debug.temp.o
                                0x36d (size before relaxing)
 .debug_line_str
                0x000016f6       0x43 C:\Users\Ridwane\AppData\Local\Temp\cczgf5ax.debug.temp.o
                                0x3a7 (size before relaxing)
 .debug_line_str
                0x00001739       0x4c C:\Users\Ridwane\AppData\Local\Temp\ccuEVRlX.debug.temp.o
                                0x386 (size before relaxing)
 .debug_line_str
                0x00001785       0x43 C:\Users\Ridwane\AppData\Local\Temp\cc1Nk6qn.debug.temp.o
                                0x37b (size before relaxing)
 .debug_line_str
                0x000017c8       0x43 C:\Users\Ridwane\AppData\Local\Temp\ccmhx3JN.debug.temp.o
                                0x340 (size before relaxing)
 .debug_line_str
                0x0000180b       0x43 C:\Users\Ridwane\AppData\Local\Temp\ccPmX4Xd.debug.temp.o
                                0x2cd (size before relaxing)
 .debug_line_str
                0x0000184e       0x43 C:\Users\Ridwane\AppData\Local\Temp\ccaqsCVH.debug.temp.o
                                0x35e (size before relaxing)
 .debug_line_str
                0x00001891       0x43 C:\Users\Ridwane\AppData\Local\Temp\ccLlnNOb.debug.temp.o
                                0x38c (size before relaxing)
 .debug_line_str
                0x000018d4       0x16 C:\Users\Ridwane\AppData\Local\Temp\ccy3F7LF.debug.temp.o
                                0x465 (size before relaxing)
 .debug_line_str
                0x000018ea       0x15 C:\Users\Ridwane\AppData\Local\Temp\ccJXIfX9.debug.temp.o
                                0x1be (size before relaxing)
 .debug_line_str
                0x000018ff        0x7 C:\Users\Ridwane\AppData\Local\Temp\ccY95v1D.debug.temp.o
                                0x1be (size before relaxing)
 .debug_line_str
                0x00001906        0x8 C:\Users\Ridwane\AppData\Local\Temp\ccHFZjj8.debug.temp.o
                                0x167 (size before relaxing)
 .debug_line_str
                0x0000190e        0x6 C:\Users\Ridwane\AppData\Local\Temp\ccB5H2Y6.debug.temp.o
                                0x15d (size before relaxing)
 .debug_line_str
                0x00001914        0x6 C:\Users\Ridwane\AppData\Local\Temp\cc8mduwA.debug.temp.o
                                 0xf6 (size before relaxing)
 .debug_line_str
                0x0000191a        0x9 C:\Users\Ridwane\AppData\Local\Temp\cc3YCM13.debug.temp.o
                                0x1c0 (size before relaxing)
 .debug_line_str
                0x00001923        0x8 C:\Users\Ridwane\AppData\Local\Temp\ccB7h9h1.debug.temp.o
                                0x1bf (size before relaxing)
 .debug_line_str
                0x0000192b        0x7 C:\Users\Ridwane\AppData\Local\Temp\cciudy9u.debug.temp.o
                                0x166 (size before relaxing)
 .debug_line_str
                0x00001932       0xdf c:/chibistudio/tools/gnu tools arm embedded/11.3 2022.08/bin/../lib/gcc/arm-none-eabi/11.3.1/thumb/v7e-m/nofp\libg.a(libc_a-strcmp.o)
                                 0xee (size before relaxing)
 .debug_line_str
                0x00001a11       0x10 c:/chibistudio/tools/gnu tools arm embedded/11.3 2022.08/bin/../lib/gcc/arm-none-eabi/11.3.1/thumb/v7e-m/nofp\libg.a(libc_a-memcpy.o)
                                 0xf0 (size before relaxing)

.debug_info     0x00000000    0x7298b
 .debug_info    0x00000000       0x25 ./build/obj/crt0_v7m.o
 .debug_info    0x00000025       0x24 ./build/obj/vectors.o
 .debug_info    0x00000049       0x24 ./build/obj/chcoreasm.o
 .debug_info    0x0000006d    0x2aa43 C:\Users\Ridwane\AppData\Local\Temp\ccbHz2Im.ltrans0.ltrans.o
 .debug_info    0x0002aab0    0x14aea C:\Users\Ridwane\AppData\Local\Temp\ccbHz2Im.ltrans1.ltrans.o
 .debug_info    0x0003f59a      0x296 C:\Users\Ridwane\AppData\Local\Temp\cc77RtQY.debug.temp.o
                0x0003f59a                crt1.c.72d01c06
 .debug_info    0x0003f830       0xb3 C:\Users\Ridwane\AppData\Local\Temp\ccAV2byo.debug.temp.o
                0x0003f830                hal.c.66946054
 .debug_info    0x0003f8e3      0x2e2 C:\Users\Ridwane\AppData\Local\Temp\ccHXeggN.debug.temp.o
                0x0003f8e3                hal_st.c.6e0a1a94
 .debug_info    0x0003fbc5      0x83f C:\Users\Ridwane\AppData\Local\Temp\ccGCsLxZ.debug.temp.o
                0x0003fbc5                hal_queues.c.10afee71
 .debug_info    0x00040404     0x120f C:\Users\Ridwane\AppData\Local\Temp\ccmmEpfB.debug.temp.o
                0x00040404                hal_serial.c.5a9d6d57
 .debug_info    0x00041613      0x45b C:\Users\Ridwane\AppData\Local\Temp\ccZssOc0.debug.temp.o
                0x00041613                nvic.c.477ada9e
 .debug_info    0x00041a6e      0xddd C:\Users\Ridwane\AppData\Local\Temp\ccWDpJnp.debug.temp.o
                0x00041a6e                stm32_isr.c.71e3ea8f
 .debug_info    0x0004284b      0x55b C:\Users\Ridwane\AppData\Local\Temp\cc9GMhuO.debug.temp.o
                0x0004284b                hal_lld.c.a7f9c98e
 .debug_info    0x00042da6      0x248 C:\Users\Ridwane\AppData\Local\Temp\cchVUx4m.debug.temp.o
                0x00042da6                hal_pal_lld.c.a9836c19
 .debug_info    0x00042fee      0x4d1 C:\Users\Ridwane\AppData\Local\Temp\cccVyttL.debug.temp.o
                0x00042fee                hal_st_lld.c.ba917bdc
 .debug_info    0x000434bf     0x103a C:\Users\Ridwane\AppData\Local\Temp\cc57jBU9.debug.temp.o
                0x000434bf                hal_serial_lld.c.b4bd9ebe
 .debug_info    0x000444f9      0x478 C:\Users\Ridwane\AppData\Local\Temp\cc2CpRey.debug.temp.o
                0x000444f9                board.c.3d76e6d8
 .debug_info    0x00044971      0xdb5 C:\Users\Ridwane\AppData\Local\Temp\ccUFKvfl.debug.temp.o
                0x00044971                chsys.c.a2cbaf2a
 .debug_info    0x00045726      0x753 C:\Users\Ridwane\AppData\Local\Temp\ccvXOZKJ.debug.temp.o
                0x00045726                chrfcu.c.c895f4e7
 .debug_info    0x00045e79      0xdc4 C:\Users\Ridwane\AppData\Local\Temp\ccmG8fiS.debug.temp.o
                0x00045e79                chvt.c.e41f813f
 .debug_info    0x00046c3d      0xc69 C:\Users\Ridwane\AppData\Local\Temp\cclmng1f.debug.temp.o
                0x00046c3d                chschd.c.7ac4a4b1
 .debug_info    0x000478a6      0xc1d C:\Users\Ridwane\AppData\Local\Temp\ccSBDSDD.debug.temp.o
                0x000478a6                chinstances.c.1ffa5db6
 .debug_info    0x000484c3     0x10ee C:\Users\Ridwane\AppData\Local\Temp\ccXKrUt1.debug.temp.o
                0x000484c3                chthreads.c.5557c4f5
 .debug_info    0x000495b1      0xa75 C:\Users\Ridwane\AppData\Local\Temp\ccwxYUep.debug.temp.o
                0x000495b1                chtm.c.c6d3a226
 .debug_info    0x0004a026      0xba7 C:\Users\Ridwane\AppData\Local\Temp\ccdMZ81M.debug.temp.o
                0x0004a026                chregistry.c.bff1b666
 .debug_info    0x0004abcd      0xb2d C:\Users\Ridwane\AppData\Local\Temp\ccidLa3a.debug.temp.o
                0x0004abcd                chsem.c.1e089c27
 .debug_info    0x0004b6fa      0xa70 C:\Users\Ridwane\AppData\Local\Temp\ccvgKgZy.debug.temp.o
                0x0004b6fa                chmtx.c.08b1d90e
 .debug_info    0x0004c16a      0xab4 C:\Users\Ridwane\AppData\Local\Temp\ccsPjFC0.debug.temp.o
                0x0004c16a                chcond.c.21f5d023
 .debug_info    0x0004cc1e      0xd0d C:\Users\Ridwane\AppData\Local\Temp\ccFgjHbs.debug.temp.o
                0x0004cc1e                chevents.c.39bea8e5
 .debug_info    0x0004d92b      0x95f C:\Users\Ridwane\AppData\Local\Temp\cc8DQXXT.debug.temp.o
                0x0004d92b                chmsg.c.d1d9700c
 .debug_info    0x0004e28a      0xaeb C:\Users\Ridwane\AppData\Local\Temp\ccPCHsMl.debug.temp.o
                0x0004e28a                chdynamic.c.17c75475
 .debug_info    0x0004ed75      0x610 C:\Users\Ridwane\AppData\Local\Temp\ccGk9zwN.debug.temp.o
                0x0004ed75                chmboxes.c.def0f90b
 .debug_info    0x0004f385      0x2ce C:\Users\Ridwane\AppData\Local\Temp\ccR6Jduf.debug.temp.o
                0x0004f385                chmemcore.c.3bc0bea9
 .debug_info    0x0004f653      0xa27 C:\Users\Ridwane\AppData\Local\Temp\ccavyVmH.debug.temp.o
                0x0004f653                chmemheaps.c.fc5833e8
 .debug_info    0x0005007a      0x5ac C:\Users\Ridwane\AppData\Local\Temp\ccR56qt9.debug.temp.o
                0x0005007a                chmempools.c.581737a8
 .debug_info    0x00050626      0xb20 C:\Users\Ridwane\AppData\Local\Temp\ccikgVvB.debug.temp.o
                0x00050626                chpipes.c.1da99460
 .debug_info    0x00051146      0x692 C:\Users\Ridwane\AppData\Local\Temp\ccdm1lB2.debug.temp.o
                0x00051146                chobjcaches.c.8f0852a2
 .debug_info    0x000517d8      0xb58 C:\Users\Ridwane\AppData\Local\Temp\cc6c3pBt.debug.temp.o
                0x000517d8                chdelegates.c.a76d29ec
 .debug_info    0x00052330     0x14cc C:\Users\Ridwane\AppData\Local\Temp\cc7x8uMU.debug.temp.o
                0x00052330                chfactory.c.0fd8b717
 .debug_info    0x000537fc      0xfad C:\Users\Ridwane\AppData\Local\Temp\cckD2VSl.debug.temp.o
                0x000537fc                chcore.c.d0613f85
 .debug_info    0x000547a9      0x6da C:\Users\Ridwane\AppData\Local\Temp\ccVUGadN.debug.temp.o
                0x000547a9                ch_test.c.e409ad5d
 .debug_info    0x00054e83      0x468 C:\Users\Ridwane\AppData\Local\Temp\ccIYIyBe.debug.temp.o
                0x00054e83                ch_test_printf.c.72cbebc9
 .debug_info    0x000552eb      0xa24 C:\Users\Ridwane\AppData\Local\Temp\ccJ94MTF.debug.temp.o
                0x000552eb                rt_test_root.c.0290d465
 .debug_info    0x00055d0f      0x3f8 C:\Users\Ridwane\AppData\Local\Temp\ccYHb7o7.debug.temp.o
                0x00055d0f                rt_test_sequence_001.c.a05e5700
 .debug_info    0x00056107      0x7ab C:\Users\Ridwane\AppData\Local\Temp\cclSvvPy.debug.temp.o
                0x00056107                rt_test_sequence_002.c.7693c634
 .debug_info    0x000568b2      0x440 C:\Users\Ridwane\AppData\Local\Temp\ccG32LiZ.debug.temp.o
                0x000568b2                rt_test_sequence_003.c.e62b3365
 .debug_info    0x00056cf2      0x560 C:\Users\Ridwane\AppData\Local\Temp\ccjYuyOp.debug.temp.o
                0x00056cf2                rt_test_sequence_004.c.af972b59
 .debug_info    0x00057252      0xc51 C:\Users\Ridwane\AppData\Local\Temp\ccYnoFfQ.debug.temp.o
                0x00057252                rt_test_sequence_005.c.f415dd57
 .debug_info    0x00057ea3      0xbde C:\Users\Ridwane\AppData\Local\Temp\ccRqaORg.debug.temp.o
                0x00057ea3                rt_test_sequence_006.c.fb9291de
 .debug_info    0x00058a81      0xf05 C:\Users\Ridwane\AppData\Local\Temp\ccmVqUpH.debug.temp.o
                0x00058a81                rt_test_sequence_007.c.9d832a79
 .debug_info    0x00059986      0xe31 C:\Users\Ridwane\AppData\Local\Temp\ccDC7ab8.debug.temp.o
                0x00059986                rt_test_sequence_008.c.2cfdc47d
 .debug_info    0x0005a7b7      0xbb6 C:\Users\Ridwane\AppData\Local\Temp\cc2V1vRy.debug.temp.o
                0x0005a7b7                rt_test_sequence_009.c.6a20c73f
 .debug_info    0x0005b36d      0xff0 C:\Users\Ridwane\AppData\Local\Temp\ccDP1lAZ.debug.temp.o
                0x0005b36d                rt_test_sequence_010.c.c9f22a43
 .debug_info    0x0005c35d      0xdef C:\Users\Ridwane\AppData\Local\Temp\ccyNaIwq.debug.temp.o
                0x0005c35d                rt_test_sequence_011.c.37d2c6e9
 .debug_info    0x0005d14c     0x1212 C:\Users\Ridwane\AppData\Local\Temp\ccbS9apR.debug.temp.o
                0x0005d14c                rt_test_sequence_012.c.57880f65
 .debug_info    0x0005e35e      0x1ee C:\Users\Ridwane\AppData\Local\Temp\ccwXtwjh.debug.temp.o
                0x0005e35e                oslib_test_root.c.e284c4e2
 .debug_info    0x0005e54c      0x3f3 C:\Users\Ridwane\AppData\Local\Temp\ccz3u98G.debug.temp.o
                0x0005e54c                oslib_test_sequence_001.c.34f8d6b8
 .debug_info    0x0005e93f      0x75e C:\Users\Ridwane\AppData\Local\Temp\ccWdFic7.debug.temp.o
                0x0005e93f                oslib_test_sequence_002.c.ca062983
 .debug_info    0x0005f09d      0xcab C:\Users\Ridwane\AppData\Local\Temp\cczgf5ax.debug.temp.o
                0x0005f09d                oslib_test_sequence_003.c.cca91667
 .debug_info    0x0005fd48      0xfd2 C:\Users\Ridwane\AppData\Local\Temp\ccuEVRlX.debug.temp.o
                0x0005fd48                oslib_test_sequence_004.c.d0439267
 .debug_info    0x00060d1a      0xecc C:\Users\Ridwane\AppData\Local\Temp\cc1Nk6qn.debug.temp.o
                0x00060d1a                oslib_test_sequence_005.c.a888feed
 .debug_info    0x00061be6      0x8e2 C:\Users\Ridwane\AppData\Local\Temp\ccmhx3JN.debug.temp.o
                0x00061be6                oslib_test_sequence_006.c.4bcb378f
 .debug_info    0x000624c8      0x6cd C:\Users\Ridwane\AppData\Local\Temp\ccPmX4Xd.debug.temp.o
                0x000624c8                oslib_test_sequence_007.c.f4b9492f
 .debug_info    0x00062b95      0xc01 C:\Users\Ridwane\AppData\Local\Temp\ccaqsCVH.debug.temp.o
                0x00062b95                oslib_test_sequence_008.c.9a1e4e3f
 .debug_info    0x00063796     0x11fd C:\Users\Ridwane\AppData\Local\Temp\ccLlnNOb.debug.temp.o
                0x00063796                oslib_test_sequence_009.c.2f3d119b
 .debug_info    0x00064993     0x105e C:\Users\Ridwane\AppData\Local\Temp\ccy3F7LF.debug.temp.o
                0x00064993                main.c.b613130d
 .debug_info    0x000659f1     0x1491 C:\Users\Ridwane\AppData\Local\Temp\ccJXIfX9.debug.temp.o
                0x000659f1                sign.c.44f69ee3
 .debug_info    0x00066e82      0x99d C:\Users\Ridwane\AppData\Local\Temp\ccY95v1D.debug.temp.o
                0x00066e82                nist.c.664fad53
 .debug_info    0x0006781f      0x8cd C:\Users\Ridwane\AppData\Local\Temp\ccHFZjj8.debug.temp.o
                0x0006781f                codec.c.97caadc1
 .debug_info    0x000680ec     0x1355 C:\Users\Ridwane\AppData\Local\Temp\ccB5H2Y6.debug.temp.o
                0x000680ec                fft.c.3c76e387
 .debug_info    0x00069441      0x522 C:\Users\Ridwane\AppData\Local\Temp\cc8mduwA.debug.temp.o
                0x00069441                fpr.c.e28e5bc6
 .debug_info    0x00069963     0x2b31 C:\Users\Ridwane\AppData\Local\Temp\cc3YCM13.debug.temp.o
                0x00069963                keygen.c.0fda95b5
 .debug_info    0x0006c494      0x496 C:\Users\Ridwane\AppData\Local\Temp\ccB7h9h1.debug.temp.o
                0x0006c494                shake.c.8b23fe14
 .debug_info    0x0006c92a      0xad3 C:\Users\Ridwane\AppData\Local\Temp\cciudy9u.debug.temp.o
                0x0006c92a                vrfy.c.949e96f3
 .debug_info    0x0006d3fd      0x7b1 c:/chibistudio/tools/gnu tools arm embedded/11.3 2022.08/bin/../lib/gcc/arm-none-eabi/11.3.1/thumb/v7e-m/nofp\libg.a(libc_a-malloc.o)
 .debug_info    0x0006dbae      0xcbd c:/chibistudio/tools/gnu tools arm embedded/11.3 2022.08/bin/../lib/gcc/arm-none-eabi/11.3.1/thumb/v7e-m/nofp\libg.a(libc_a-mallocr.o)
 .debug_info    0x0006e86b      0x788 c:/chibistudio/tools/gnu tools arm embedded/11.3 2022.08/bin/../lib/gcc/arm-none-eabi/11.3.1/thumb/v7e-m/nofp\libg.a(libc_a-mlock.o)
 .debug_info    0x0006eff3      0x12b c:/chibistudio/tools/gnu tools arm embedded/11.3 2022.08/bin/../lib/gcc/arm-none-eabi/11.3.1/thumb/v7e-m/nofp\libg.a(libc_a-memcmp.o)
 .debug_info    0x0006f11e      0x148 c:/chibistudio/tools/gnu tools arm embedded/11.3 2022.08/bin/../lib/gcc/arm-none-eabi/11.3.1/thumb/v7e-m/nofp\libg.a(libc_a-memmove.o)
 .debug_info    0x0006f266      0x135 c:/chibistudio/tools/gnu tools arm embedded/11.3 2022.08/bin/../lib/gcc/arm-none-eabi/11.3.1/thumb/v7e-m/nofp\libg.a(libc_a-memset.o)
 .debug_info    0x0006f39b      0x108 c:/chibistudio/tools/gnu tools arm embedded/11.3 2022.08/bin/../lib/gcc/arm-none-eabi/11.3.1/thumb/v7e-m/nofp\libg.a(libc_a-strncmp.o)
 .debug_info    0x0006f4a3      0x732 c:/chibistudio/tools/gnu tools arm embedded/11.3 2022.08/bin/../lib/gcc/arm-none-eabi/11.3.1/thumb/v7e-m/nofp\libg.a(libc_a-impure.o)
 .debug_info    0x0006fbd5      0x799 c:/chibistudio/tools/gnu tools arm embedded/11.3 2022.08/bin/../lib/gcc/arm-none-eabi/11.3.1/thumb/v7e-m/nofp\libg.a(libc_a-sbrkr.o)
 .debug_info    0x0007036e      0x20a c:/chibistudio/tools/gnu tools arm embedded/11.3 2022.08/bin/../lib/gcc/arm-none-eabi/11.3.1/thumb/v7e-m/nofp\libg.a(libc_a-lock.o)
 .debug_info    0x00070578       0x25 c:/chibistudio/tools/gnu tools arm embedded/11.3 2022.08/bin/../lib/gcc/arm-none-eabi/11.3.1/thumb/v7e-m/nofp\libg.a(libc_a-strcmp.o)
 .debug_info    0x0007059d       0x25 c:/chibistudio/tools/gnu tools arm embedded/11.3 2022.08/bin/../lib/gcc/arm-none-eabi/11.3.1/thumb/v7e-m/nofp\libg.a(libc_a-memcpy.o)
 .debug_info    0x000705c2      0xb39 c:/chibistudio/tools/gnu tools arm embedded/11.3 2022.08/bin/../lib/gcc/arm-none-eabi/11.3.1/thumb/v7e-m/nofp\libg.a(libc_a-freer.o)
 .debug_info    0x000710fb     0x10a2 c:/chibistudio/tools/gnu tools arm embedded/11.3 2022.08/bin/../lib/gcc/arm-none-eabi/11.3.1/thumb/v7e-m/nofp\libg.a(libc_a-findfp.o)
 .debug_info    0x0007219d      0x7ee c:/chibistudio/tools/gnu tools arm embedded/11.3 2022.08/bin/../lib/gcc/arm-none-eabi/11.3.1/thumb/v7e-m/nofp\libg.a(libc_a-reent.o)

.debug_abbrev   0x00000000     0xb39e
 .debug_abbrev  0x00000000       0x14 ./build/obj/crt0_v7m.o
 .debug_abbrev  0x00000014       0x14 ./build/obj/vectors.o
 .debug_abbrev  0x00000028       0x14 ./build/obj/chcoreasm.o
 .debug_abbrev  0x0000003c      0x37d C:\Users\Ridwane\AppData\Local\Temp\ccbHz2Im.ltrans0.ltrans.o
 .debug_abbrev  0x000003b9      0x33a C:\Users\Ridwane\AppData\Local\Temp\ccbHz2Im.ltrans1.ltrans.o
 .debug_abbrev  0x000006f3       0xec C:\Users\Ridwane\AppData\Local\Temp\cc77RtQY.debug.temp.o
 .debug_abbrev  0x000007df       0x6d C:\Users\Ridwane\AppData\Local\Temp\ccAV2byo.debug.temp.o
 .debug_abbrev  0x0000084c      0x15c C:\Users\Ridwane\AppData\Local\Temp\ccHXeggN.debug.temp.o
 .debug_abbrev  0x000009a8      0x20c C:\Users\Ridwane\AppData\Local\Temp\ccGCsLxZ.debug.temp.o
 .debug_abbrev  0x00000bb4      0x2cb C:\Users\Ridwane\AppData\Local\Temp\ccmmEpfB.debug.temp.o
 .debug_abbrev  0x00000e7f      0x13e C:\Users\Ridwane\AppData\Local\Temp\ccZssOc0.debug.temp.o
 .debug_abbrev  0x00000fbd      0x1c8 C:\Users\Ridwane\AppData\Local\Temp\ccWDpJnp.debug.temp.o
 .debug_abbrev  0x00001185       0xeb C:\Users\Ridwane\AppData\Local\Temp\cc9GMhuO.debug.temp.o
 .debug_abbrev  0x00001270       0xf2 C:\Users\Ridwane\AppData\Local\Temp\cchVUx4m.debug.temp.o
 .debug_abbrev  0x00001362      0x11d C:\Users\Ridwane\AppData\Local\Temp\cccVyttL.debug.temp.o
 .debug_abbrev  0x0000147f      0x2a4 C:\Users\Ridwane\AppData\Local\Temp\cc57jBU9.debug.temp.o
 .debug_abbrev  0x00001723      0x168 C:\Users\Ridwane\AppData\Local\Temp\cc2CpRey.debug.temp.o
 .debug_abbrev  0x0000188b      0x330 C:\Users\Ridwane\AppData\Local\Temp\ccUFKvfl.debug.temp.o
 .debug_abbrev  0x00001bbb      0x157 C:\Users\Ridwane\AppData\Local\Temp\ccvXOZKJ.debug.temp.o
 .debug_abbrev  0x00001d12      0x2ae C:\Users\Ridwane\AppData\Local\Temp\ccmG8fiS.debug.temp.o
 .debug_abbrev  0x00001fc0      0x250 C:\Users\Ridwane\AppData\Local\Temp\cclmng1f.debug.temp.o
 .debug_abbrev  0x00002210      0x267 C:\Users\Ridwane\AppData\Local\Temp\ccSBDSDD.debug.temp.o
 .debug_abbrev  0x00002477      0x315 C:\Users\Ridwane\AppData\Local\Temp\ccXKrUt1.debug.temp.o
 .debug_abbrev  0x0000278c      0x1b4 C:\Users\Ridwane\AppData\Local\Temp\ccwxYUep.debug.temp.o
 .debug_abbrev  0x00002940      0x292 C:\Users\Ridwane\AppData\Local\Temp\ccdMZ81M.debug.temp.o
 .debug_abbrev  0x00002bd2      0x2b8 C:\Users\Ridwane\AppData\Local\Temp\ccidLa3a.debug.temp.o
 .debug_abbrev  0x00002e8a      0x2af C:\Users\Ridwane\AppData\Local\Temp\ccvgKgZy.debug.temp.o
 .debug_abbrev  0x00003139      0x2af C:\Users\Ridwane\AppData\Local\Temp\ccsPjFC0.debug.temp.o
 .debug_abbrev  0x000033e8      0x2a6 C:\Users\Ridwane\AppData\Local\Temp\ccFgjHbs.debug.temp.o
 .debug_abbrev  0x0000368e      0x272 C:\Users\Ridwane\AppData\Local\Temp\cc8DQXXT.debug.temp.o
 .debug_abbrev  0x00003900      0x22d C:\Users\Ridwane\AppData\Local\Temp\ccPCHsMl.debug.temp.o
 .debug_abbrev  0x00003b2d      0x1d5 C:\Users\Ridwane\AppData\Local\Temp\ccGk9zwN.debug.temp.o
 .debug_abbrev  0x00003d02      0x15d C:\Users\Ridwane\AppData\Local\Temp\ccR6Jduf.debug.temp.o
 .debug_abbrev  0x00003e5f      0x269 C:\Users\Ridwane\AppData\Local\Temp\ccavyVmH.debug.temp.o
 .debug_abbrev  0x000040c8      0x206 C:\Users\Ridwane\AppData\Local\Temp\ccR56qt9.debug.temp.o
 .debug_abbrev  0x000042ce      0x277 C:\Users\Ridwane\AppData\Local\Temp\ccikgVvB.debug.temp.o
 .debug_abbrev  0x00004545      0x1f2 C:\Users\Ridwane\AppData\Local\Temp\ccdm1lB2.debug.temp.o
 .debug_abbrev  0x00004737      0x260 C:\Users\Ridwane\AppData\Local\Temp\cc6c3pBt.debug.temp.o
 .debug_abbrev  0x00004997      0x28b C:\Users\Ridwane\AppData\Local\Temp\cc7x8uMU.debug.temp.o
 .debug_abbrev  0x00004c22      0x265 C:\Users\Ridwane\AppData\Local\Temp\cckD2VSl.debug.temp.o
 .debug_abbrev  0x00004e87      0x269 C:\Users\Ridwane\AppData\Local\Temp\ccVUGadN.debug.temp.o
 .debug_abbrev  0x000050f0      0x1c9 C:\Users\Ridwane\AppData\Local\Temp\ccIYIyBe.debug.temp.o
 .debug_abbrev  0x000052b9      0x276 C:\Users\Ridwane\AppData\Local\Temp\ccJ94MTF.debug.temp.o
 .debug_abbrev  0x0000552f      0x18e C:\Users\Ridwane\AppData\Local\Temp\ccYHb7o7.debug.temp.o
 .debug_abbrev  0x000056bd      0x23f C:\Users\Ridwane\AppData\Local\Temp\cclSvvPy.debug.temp.o
 .debug_abbrev  0x000058fc      0x1af C:\Users\Ridwane\AppData\Local\Temp\ccG32LiZ.debug.temp.o
 .debug_abbrev  0x00005aab      0x221 C:\Users\Ridwane\AppData\Local\Temp\ccjYuyOp.debug.temp.o
 .debug_abbrev  0x00005ccc      0x2de C:\Users\Ridwane\AppData\Local\Temp\ccYnoFfQ.debug.temp.o
 .debug_abbrev  0x00005faa      0x2c0 C:\Users\Ridwane\AppData\Local\Temp\ccRqaORg.debug.temp.o
 .debug_abbrev  0x0000626a      0x349 C:\Users\Ridwane\AppData\Local\Temp\ccmVqUpH.debug.temp.o
 .debug_abbrev  0x000065b3      0x2df C:\Users\Ridwane\AppData\Local\Temp\ccDC7ab8.debug.temp.o
 .debug_abbrev  0x00006892      0x2df C:\Users\Ridwane\AppData\Local\Temp\cc2V1vRy.debug.temp.o
 .debug_abbrev  0x00006b71      0x334 C:\Users\Ridwane\AppData\Local\Temp\ccDP1lAZ.debug.temp.o
 .debug_abbrev  0x00006ea5      0x2b3 C:\Users\Ridwane\AppData\Local\Temp\ccyNaIwq.debug.temp.o
 .debug_abbrev  0x00007158      0x372 C:\Users\Ridwane\AppData\Local\Temp\ccbS9apR.debug.temp.o
 .debug_abbrev  0x000074ca       0xb5 C:\Users\Ridwane\AppData\Local\Temp\ccwXtwjh.debug.temp.o
 .debug_abbrev  0x0000757f      0x17f C:\Users\Ridwane\AppData\Local\Temp\ccz3u98G.debug.temp.o
 .debug_abbrev  0x000076fe      0x22c C:\Users\Ridwane\AppData\Local\Temp\ccWdFic7.debug.temp.o
 .debug_abbrev  0x0000792a      0x272 C:\Users\Ridwane\AppData\Local\Temp\cczgf5ax.debug.temp.o
 .debug_abbrev  0x00007b9c      0x2d2 C:\Users\Ridwane\AppData\Local\Temp\ccuEVRlX.debug.temp.o
 .debug_abbrev  0x00007e6e      0x2b3 C:\Users\Ridwane\AppData\Local\Temp\cc1Nk6qn.debug.temp.o
 .debug_abbrev  0x00008121      0x220 C:\Users\Ridwane\AppData\Local\Temp\ccmhx3JN.debug.temp.o
 .debug_abbrev  0x00008341      0x1e9 C:\Users\Ridwane\AppData\Local\Temp\ccPmX4Xd.debug.temp.o
 .debug_abbrev  0x0000852a      0x248 C:\Users\Ridwane\AppData\Local\Temp\ccaqsCVH.debug.temp.o
 .debug_abbrev  0x00008772      0x23b C:\Users\Ridwane\AppData\Local\Temp\ccLlnNOb.debug.temp.o
 .debug_abbrev  0x000089ad      0x2ac C:\Users\Ridwane\AppData\Local\Temp\ccy3F7LF.debug.temp.o
 .debug_abbrev  0x00008c59      0x31e C:\Users\Ridwane\AppData\Local\Temp\ccJXIfX9.debug.temp.o
 .debug_abbrev  0x00008f77      0x219 C:\Users\Ridwane\AppData\Local\Temp\ccY95v1D.debug.temp.o
 .debug_abbrev  0x00009190      0x19c C:\Users\Ridwane\AppData\Local\Temp\ccHFZjj8.debug.temp.o
 .debug_abbrev  0x0000932c      0x1cc C:\Users\Ridwane\AppData\Local\Temp\ccB5H2Y6.debug.temp.o
 .debug_abbrev  0x000094f8      0x15f C:\Users\Ridwane\AppData\Local\Temp\cc8mduwA.debug.temp.o
 .debug_abbrev  0x00009657      0x2a0 C:\Users\Ridwane\AppData\Local\Temp\cc3YCM13.debug.temp.o
 .debug_abbrev  0x000098f7      0x1a4 C:\Users\Ridwane\AppData\Local\Temp\ccB7h9h1.debug.temp.o
 .debug_abbrev  0x00009a9b      0x195 C:\Users\Ridwane\AppData\Local\Temp\cciudy9u.debug.temp.o
 .debug_abbrev  0x00009c30      0x20b c:/chibistudio/tools/gnu tools arm embedded/11.3 2022.08/bin/../lib/gcc/arm-none-eabi/11.3.1/thumb/v7e-m/nofp\libg.a(libc_a-malloc.o)
 .debug_abbrev  0x00009e3b      0x2d7 c:/chibistudio/tools/gnu tools arm embedded/11.3 2022.08/bin/../lib/gcc/arm-none-eabi/11.3.1/thumb/v7e-m/nofp\libg.a(libc_a-mallocr.o)
 .debug_abbrev  0x0000a112      0x1fb c:/chibistudio/tools/gnu tools arm embedded/11.3 2022.08/bin/../lib/gcc/arm-none-eabi/11.3.1/thumb/v7e-m/nofp\libg.a(libc_a-mlock.o)
 .debug_abbrev  0x0000a30d       0x90 c:/chibistudio/tools/gnu tools arm embedded/11.3 2022.08/bin/../lib/gcc/arm-none-eabi/11.3.1/thumb/v7e-m/nofp\libg.a(libc_a-memcmp.o)
 .debug_abbrev  0x0000a39d       0xc3 c:/chibistudio/tools/gnu tools arm embedded/11.3 2022.08/bin/../lib/gcc/arm-none-eabi/11.3.1/thumb/v7e-m/nofp\libg.a(libc_a-memmove.o)
 .debug_abbrev  0x0000a460       0xb7 c:/chibistudio/tools/gnu tools arm embedded/11.3 2022.08/bin/../lib/gcc/arm-none-eabi/11.3.1/thumb/v7e-m/nofp\libg.a(libc_a-memset.o)
 .debug_abbrev  0x0000a517       0x92 c:/chibistudio/tools/gnu tools arm embedded/11.3 2022.08/bin/../lib/gcc/arm-none-eabi/11.3.1/thumb/v7e-m/nofp\libg.a(libc_a-strncmp.o)
 .debug_abbrev  0x0000a5a9      0x185 c:/chibistudio/tools/gnu tools arm embedded/11.3 2022.08/bin/../lib/gcc/arm-none-eabi/11.3.1/thumb/v7e-m/nofp\libg.a(libc_a-impure.o)
 .debug_abbrev  0x0000a72e      0x216 c:/chibistudio/tools/gnu tools arm embedded/11.3 2022.08/bin/../lib/gcc/arm-none-eabi/11.3.1/thumb/v7e-m/nofp\libg.a(libc_a-sbrkr.o)
 .debug_abbrev  0x0000a944      0x115 c:/chibistudio/tools/gnu tools arm embedded/11.3 2022.08/bin/../lib/gcc/arm-none-eabi/11.3.1/thumb/v7e-m/nofp\libg.a(libc_a-lock.o)
 .debug_abbrev  0x0000aa59       0x14 c:/chibistudio/tools/gnu tools arm embedded/11.3 2022.08/bin/../lib/gcc/arm-none-eabi/11.3.1/thumb/v7e-m/nofp\libg.a(libc_a-strcmp.o)
 .debug_abbrev  0x0000aa6d       0x14 c:/chibistudio/tools/gnu tools arm embedded/11.3 2022.08/bin/../lib/gcc/arm-none-eabi/11.3.1/thumb/v7e-m/nofp\libg.a(libc_a-memcpy.o)
 .debug_abbrev  0x0000aa81      0x290 c:/chibistudio/tools/gnu tools arm embedded/11.3 2022.08/bin/../lib/gcc/arm-none-eabi/11.3.1/thumb/v7e-m/nofp\libg.a(libc_a-freer.o)
 .debug_abbrev  0x0000ad11      0x462 c:/chibistudio/tools/gnu tools arm embedded/11.3 2022.08/bin/../lib/gcc/arm-none-eabi/11.3.1/thumb/v7e-m/nofp\libg.a(libc_a-findfp.o)
 .debug_abbrev  0x0000b173      0x22b c:/chibistudio/tools/gnu tools arm embedded/11.3 2022.08/bin/../lib/gcc/arm-none-eabi/11.3.1/thumb/v7e-m/nofp\libg.a(libc_a-reent.o)

.debug_aranges  0x00000000      0xb00
 .debug_aranges
                0x00000000       0x20 ./build/obj/crt0_v7m.o
 .debug_aranges
                0x00000020       0x20 ./build/obj/vectors.o
 .debug_aranges
                0x00000040       0x20 ./build/obj/chcoreasm.o
 .debug_aranges
                0x00000060      0x608 C:\Users\Ridwane\AppData\Local\Temp\ccbHz2Im.ltrans0.ltrans.o
 .debug_aranges
                0x00000668      0x250 C:\Users\Ridwane\AppData\Local\Temp\ccbHz2Im.ltrans1.ltrans.o
 .debug_aranges
                0x000008b8       0x28 c:/chibistudio/tools/gnu tools arm embedded/11.3 2022.08/bin/../lib/gcc/arm-none-eabi/11.3.1/thumb/v7e-m/nofp\libg.a(libc_a-malloc.o)
 .debug_aranges
                0x000008e0       0x20 c:/chibistudio/tools/gnu tools arm embedded/11.3 2022.08/bin/../lib/gcc/arm-none-eabi/11.3.1/thumb/v7e-m/nofp\libg.a(libc_a-mallocr.o)
 .debug_aranges
                0x00000900       0x28 c:/chibistudio/tools/gnu tools arm embedded/11.3 2022.08/bin/../lib/gcc/arm-none-eabi/11.3.1/thumb/v7e-m/nofp\libg.a(libc_a-mlock.o)
 .debug_aranges
                0x00000928       0x20 c:/chibistudio/tools/gnu tools arm embedded/11.3 2022.08/bin/../lib/gcc/arm-none-eabi/11.3.1/thumb/v7e-m/nofp\libg.a(libc_a-memcmp.o)
 .debug_aranges
                0x00000948       0x20 c:/chibistudio/tools/gnu tools arm embedded/11.3 2022.08/bin/../lib/gcc/arm-none-eabi/11.3.1/thumb/v7e-m/nofp\libg.a(libc_a-memmove.o)
 .debug_aranges
                0x00000968       0x20 c:/chibistudio/tools/gnu tools arm embedded/11.3 2022.08/bin/../lib/gcc/arm-none-eabi/11.3.1/thumb/v7e-m/nofp\libg.a(libc_a-memset.o)
 .debug_aranges
                0x00000988       0x20 c:/chibistudio/tools/gnu tools arm embedded/11.3 2022.08/bin/../lib/gcc/arm-none-eabi/11.3.1/thumb/v7e-m/nofp\libg.a(libc_a-strncmp.o)
 .debug_aranges
                0x000009a8       0x18 c:/chibistudio/tools/gnu tools arm embedded/11.3 2022.08/bin/../lib/gcc/arm-none-eabi/11.3.1/thumb/v7e-m/nofp\libg.a(libc_a-impure.o)
 .debug_aranges
                0x000009c0       0x20 c:/chibistudio/tools/gnu tools arm embedded/11.3 2022.08/bin/../lib/gcc/arm-none-eabi/11.3.1/thumb/v7e-m/nofp\libg.a(libc_a-sbrkr.o)
 .debug_aranges
                0x000009e0       0x28 c:/chibistudio/tools/gnu tools arm embedded/11.3 2022.08/bin/../lib/gcc/arm-none-eabi/11.3.1/thumb/v7e-m/nofp\libg.a(libc_a-lock.o)
 .debug_aranges
                0x00000a08       0x20 c:/chibistudio/tools/gnu tools arm embedded/11.3 2022.08/bin/../lib/gcc/arm-none-eabi/11.3.1/thumb/v7e-m/nofp\libg.a(libc_a-strcmp.o)
 .debug_aranges
                0x00000a28       0x20 c:/chibistudio/tools/gnu tools arm embedded/11.3 2022.08/bin/../lib/gcc/arm-none-eabi/11.3.1/thumb/v7e-m/nofp\libg.a(libc_a-memcpy.o)
 .debug_aranges
                0x00000a48       0x28 c:/chibistudio/tools/gnu tools arm embedded/11.3 2022.08/bin/../lib/gcc/arm-none-eabi/11.3.1/thumb/v7e-m/nofp\libg.a(libc_a-freer.o)
 .debug_aranges
                0x00000a70       0x70 c:/chibistudio/tools/gnu tools arm embedded/11.3 2022.08/bin/../lib/gcc/arm-none-eabi/11.3.1/thumb/v7e-m/nofp\libg.a(libc_a-findfp.o)
 .debug_aranges
                0x00000ae0       0x20 c:/chibistudio/tools/gnu tools arm embedded/11.3 2022.08/bin/../lib/gcc/arm-none-eabi/11.3.1/thumb/v7e-m/nofp\libg.a(libc_a-reent.o)

.debug_str      0x00000000     0x864e
 .debug_str     0x00000000       0x75 ./build/obj/crt0_v7m.o
 .debug_str     0x00000075       0x43 ./build/obj/vectors.o
                                 0x74 (size before relaxing)
 .debug_str     0x000000b8       0x44 ./build/obj/chcoreasm.o
                                 0x75 (size before relaxing)
 .debug_str     0x000000fc      0x2af C:\Users\Ridwane\AppData\Local\Temp\ccbHz2Im.ltrans0.ltrans.o
                                0x2e9 (size before relaxing)
 .debug_str     0x000003ab       0xf8 C:\Users\Ridwane\AppData\Local\Temp\ccbHz2Im.ltrans1.ltrans.o
                                0x34b (size before relaxing)
 .debug_str     0x000004a3      0x3ba C:\Users\Ridwane\AppData\Local\Temp\cc77RtQY.debug.temp.o
                                0x447 (size before relaxing)
 .debug_str     0x0000085d       0x79 C:\Users\Ridwane\AppData\Local\Temp\ccAV2byo.debug.temp.o
                                0x1e2 (size before relaxing)
 .debug_str     0x000008d6      0x146 C:\Users\Ridwane\AppData\Local\Temp\ccHXeggN.debug.temp.o
                                0x2dc (size before relaxing)
 .debug_str     0x00000a1c      0x2dc C:\Users\Ridwane\AppData\Local\Temp\ccGCsLxZ.debug.temp.o
                                0x4a5 (size before relaxing)
 .debug_str     0x00000cf8      0x562 C:\Users\Ridwane\AppData\Local\Temp\ccmmEpfB.debug.temp.o
                                0x9a1 (size before relaxing)
 .debug_str     0x0000125a      0x162 C:\Users\Ridwane\AppData\Local\Temp\ccZssOc0.debug.temp.o
                                0x322 (size before relaxing)
 .debug_str     0x000013bc      0x4fb C:\Users\Ridwane\AppData\Local\Temp\ccWDpJnp.debug.temp.o
                                0xc27 (size before relaxing)
 .debug_str     0x000018b7      0x18d C:\Users\Ridwane\AppData\Local\Temp\cc9GMhuO.debug.temp.o
                                0x3d3 (size before relaxing)
 .debug_str     0x00001a44       0xe6 C:\Users\Ridwane\AppData\Local\Temp\cchVUx4m.debug.temp.o
                                0x2a1 (size before relaxing)
 .debug_str     0x00001b2a       0xe0 C:\Users\Ridwane\AppData\Local\Temp\cccVyttL.debug.temp.o
                                0x423 (size before relaxing)
 .debug_str     0x00001c0a       0x6c C:\Users\Ridwane\AppData\Local\Temp\cc57jBU9.debug.temp.o
                                0x9f0 (size before relaxing)
 .debug_str     0x00001c76       0xcb C:\Users\Ridwane\AppData\Local\Temp\cc2CpRey.debug.temp.o
                                0x401 (size before relaxing)
 .debug_str     0x00001d41      0x39b C:\Users\Ridwane\AppData\Local\Temp\ccUFKvfl.debug.temp.o
                                0x9fb (size before relaxing)
 .debug_str     0x000020dc       0x53 C:\Users\Ridwane\AppData\Local\Temp\ccvXOZKJ.debug.temp.o
                                0x596 (size before relaxing)
 .debug_str     0x0000212f      0x245 C:\Users\Ridwane\AppData\Local\Temp\ccmG8fiS.debug.temp.o
                                0x876 (size before relaxing)
 .debug_str     0x00002374      0x1ab C:\Users\Ridwane\AppData\Local\Temp\cclmng1f.debug.temp.o
                                0x7e2 (size before relaxing)
 .debug_str     0x0000251f      0x2b3 C:\Users\Ridwane\AppData\Local\Temp\ccSBDSDD.debug.temp.o
                                0x930 (size before relaxing)
 .debug_str     0x000027d2      0x28c C:\Users\Ridwane\AppData\Local\Temp\ccXKrUt1.debug.temp.o
                                0x9be (size before relaxing)
 .debug_str     0x00002a5e       0x4d C:\Users\Ridwane\AppData\Local\Temp\ccwxYUep.debug.temp.o
                                0x781 (size before relaxing)
 .debug_str     0x00002aab       0xaa C:\Users\Ridwane\AppData\Local\Temp\ccdMZ81M.debug.temp.o
                                0x8b6 (size before relaxing)
 .debug_str     0x00002b55       0xe8 C:\Users\Ridwane\AppData\Local\Temp\ccidLa3a.debug.temp.o
                                0x731 (size before relaxing)
 .debug_str     0x00002c3d       0xc3 C:\Users\Ridwane\AppData\Local\Temp\ccvgKgZy.debug.temp.o
                                0x6df (size before relaxing)
 .debug_str     0x00002d00       0xe9 C:\Users\Ridwane\AppData\Local\Temp\ccsPjFC0.debug.temp.o
                                0x741 (size before relaxing)
 .debug_str     0x00002de9      0x1ad C:\Users\Ridwane\AppData\Local\Temp\ccFgjHbs.debug.temp.o
                                0x80d (size before relaxing)
 .debug_str     0x00002f96       0x81 C:\Users\Ridwane\AppData\Local\Temp\cc8DQXXT.debug.temp.o
                                0x68d (size before relaxing)
 .debug_str     0x00003017       0xc2 C:\Users\Ridwane\AppData\Local\Temp\ccPCHsMl.debug.temp.o
                                0x705 (size before relaxing)
 .debug_str     0x000030d9      0x11d C:\Users\Ridwane\AppData\Local\Temp\ccGk9zwN.debug.temp.o
                                0x401 (size before relaxing)
 .debug_str     0x000031f6       0xcb C:\Users\Ridwane\AppData\Local\Temp\ccR6Jduf.debug.temp.o
                                0x2e6 (size before relaxing)
 .debug_str     0x000032c1       0x7c C:\Users\Ridwane\AppData\Local\Temp\ccavyVmH.debug.temp.o
                                0x6aa (size before relaxing)
 .debug_str     0x0000333d      0x12e C:\Users\Ridwane\AppData\Local\Temp\ccR56qt9.debug.temp.o
                                0x43a (size before relaxing)
 .debug_str     0x0000346b       0xc3 C:\Users\Ridwane\AppData\Local\Temp\ccikgVvB.debug.temp.o
                                0x6f1 (size before relaxing)
 .debug_str     0x0000352e      0x1f1 C:\Users\Ridwane\AppData\Local\Temp\ccdm1lB2.debug.temp.o
                                0x48f (size before relaxing)
 .debug_str     0x0000371f      0x189 C:\Users\Ridwane\AppData\Local\Temp\cc6c3pBt.debug.temp.o
                                0x75b (size before relaxing)
 .debug_str     0x000038a8      0x483 C:\Users\Ridwane\AppData\Local\Temp\cc7x8uMU.debug.temp.o
                                0xc31 (size before relaxing)
 .debug_str     0x00003d2b      0x650 C:\Users\Ridwane\AppData\Local\Temp\cckD2VSl.debug.temp.o
                                0xd84 (size before relaxing)
 .debug_str     0x0000437b      0x302 C:\Users\Ridwane\AppData\Local\Temp\ccVUGadN.debug.temp.o
                                0x59b (size before relaxing)
 .debug_str     0x0000467d       0xb9 C:\Users\Ridwane\AppData\Local\Temp\ccIYIyBe.debug.temp.o
                                0x36a (size before relaxing)
 .debug_str     0x00004736      0x1a9 C:\Users\Ridwane\AppData\Local\Temp\ccJ94MTF.debug.temp.o
                                0x7f3 (size before relaxing)
 .debug_str     0x000048df       0xf4 C:\Users\Ridwane\AppData\Local\Temp\ccYHb7o7.debug.temp.o
                                0x3dc (size before relaxing)
 .debug_str     0x000049d3      0x16e C:\Users\Ridwane\AppData\Local\Temp\cclSvvPy.debug.temp.o
                                0x665 (size before relaxing)
 .debug_str     0x00004b41       0xa8 C:\Users\Ridwane\AppData\Local\Temp\ccG32LiZ.debug.temp.o
                                0x3e7 (size before relaxing)
 .debug_str     0x00004be9       0xb2 C:\Users\Ridwane\AppData\Local\Temp\ccjYuyOp.debug.temp.o
                                0x4c1 (size before relaxing)
 .debug_str     0x00004c9b      0x10a C:\Users\Ridwane\AppData\Local\Temp\ccYnoFfQ.debug.temp.o
                                0x8d6 (size before relaxing)
 .debug_str     0x00004da5       0x96 C:\Users\Ridwane\AppData\Local\Temp\ccRqaORg.debug.temp.o
                                0x865 (size before relaxing)
 .debug_str     0x00004e3b      0x2bb C:\Users\Ridwane\AppData\Local\Temp\ccmVqUpH.debug.temp.o
                                0xb22 (size before relaxing)
 .debug_str     0x000050f6      0x207 C:\Users\Ridwane\AppData\Local\Temp\ccDC7ab8.debug.temp.o
                                0xa5b (size before relaxing)
 .debug_str     0x000052fd       0x8c C:\Users\Ridwane\AppData\Local\Temp\cc2V1vRy.debug.temp.o
                                0x7e3 (size before relaxing)
 .debug_str     0x00005389      0x246 C:\Users\Ridwane\AppData\Local\Temp\ccDP1lAZ.debug.temp.o
                                0xb60 (size before relaxing)
 .debug_str     0x000055cf      0x106 C:\Users\Ridwane\AppData\Local\Temp\ccyNaIwq.debug.temp.o
                                0x916 (size before relaxing)
 .debug_str     0x000056d5      0x2ea C:\Users\Ridwane\AppData\Local\Temp\ccbS9apR.debug.temp.o
                                0xc23 (size before relaxing)
 .debug_str     0x000059bf      0x13b C:\Users\Ridwane\AppData\Local\Temp\ccwXtwjh.debug.temp.o
                                0x308 (size before relaxing)
 .debug_str     0x00005afa       0xeb C:\Users\Ridwane\AppData\Local\Temp\ccz3u98G.debug.temp.o
                                0x3fa (size before relaxing)
 .debug_str     0x00005be5      0x1aa C:\Users\Ridwane\AppData\Local\Temp\ccWdFic7.debug.temp.o
                                0x643 (size before relaxing)
 .debug_str     0x00005d8f      0x10f C:\Users\Ridwane\AppData\Local\Temp\cczgf5ax.debug.temp.o
                                0x7f4 (size before relaxing)
 .debug_str     0x00005e9e      0x175 C:\Users\Ridwane\AppData\Local\Temp\ccuEVRlX.debug.temp.o
                                0x9d6 (size before relaxing)
 .debug_str     0x00006013      0x157 C:\Users\Ridwane\AppData\Local\Temp\cc1Nk6qn.debug.temp.o
                                0x96a (size before relaxing)
 .debug_str     0x0000616a       0xe3 C:\Users\Ridwane\AppData\Local\Temp\ccmhx3JN.debug.temp.o
                                0x62b (size before relaxing)
 .debug_str     0x0000624d      0x149 C:\Users\Ridwane\AppData\Local\Temp\ccPmX4Xd.debug.temp.o
                                0x5d6 (size before relaxing)
 .debug_str     0x00006396      0x115 C:\Users\Ridwane\AppData\Local\Temp\ccaqsCVH.debug.temp.o
                                0x830 (size before relaxing)
 .debug_str     0x000064ab      0x27d C:\Users\Ridwane\AppData\Local\Temp\ccLlnNOb.debug.temp.o
                                0xc75 (size before relaxing)
 .debug_str     0x00006728       0x47 C:\Users\Ridwane\AppData\Local\Temp\ccy3F7LF.debug.temp.o
                                0x914 (size before relaxing)
 .debug_str     0x0000676f      0x588 C:\Users\Ridwane\AppData\Local\Temp\ccJXIfX9.debug.temp.o
                                0x7bb (size before relaxing)
 .debug_str     0x00006cf7      0x209 C:\Users\Ridwane\AppData\Local\Temp\ccY95v1D.debug.temp.o
                                0x542 (size before relaxing)
 .debug_str     0x00006f00       0x91 C:\Users\Ridwane\AppData\Local\Temp\ccHFZjj8.debug.temp.o
                                0x46e (size before relaxing)
 .debug_str     0x00006f91      0x1da C:\Users\Ridwane\AppData\Local\Temp\ccB5H2Y6.debug.temp.o
                                0x625 (size before relaxing)
 .debug_str     0x0000716b        0x6 C:\Users\Ridwane\AppData\Local\Temp\cc8mduwA.debug.temp.o
                                0x372 (size before relaxing)
 .debug_str     0x00007171      0x442 C:\Users\Ridwane\AppData\Local\Temp\cc3YCM13.debug.temp.o
                                0x97f (size before relaxing)
 .debug_str     0x000075b3       0x1b C:\Users\Ridwane\AppData\Local\Temp\ccB7h9h1.debug.temp.o
                                0x358 (size before relaxing)
 .debug_str     0x000075ce      0x100 C:\Users\Ridwane\AppData\Local\Temp\cciudy9u.debug.temp.o
                                0x462 (size before relaxing)
 .debug_str     0x000076ce      0x42e c:/chibistudio/tools/gnu tools arm embedded/11.3 2022.08/bin/../lib/gcc/arm-none-eabi/11.3.1/thumb/v7e-m/nofp\libg.a(libc_a-malloc.o)
                                0x536 (size before relaxing)
 .debug_str     0x00007afc      0x248 c:/chibistudio/tools/gnu tools arm embedded/11.3 2022.08/bin/../lib/gcc/arm-none-eabi/11.3.1/thumb/v7e-m/nofp\libg.a(libc_a-mallocr.o)
                                0x731 (size before relaxing)
 .debug_str     0x00007d44       0xbe c:/chibistudio/tools/gnu tools arm embedded/11.3 2022.08/bin/../lib/gcc/arm-none-eabi/11.3.1/thumb/v7e-m/nofp\libg.a(libc_a-mlock.o)
                                0x593 (size before relaxing)
 .debug_str     0x00007e02       0x5b c:/chibistudio/tools/gnu tools arm embedded/11.3 2022.08/bin/../lib/gcc/arm-none-eabi/11.3.1/thumb/v7e-m/nofp\libg.a(libc_a-memcmp.o)
                                0x201 (size before relaxing)
 .debug_str     0x00007e5d       0x8d c:/chibistudio/tools/gnu tools arm embedded/11.3 2022.08/bin/../lib/gcc/arm-none-eabi/11.3.1/thumb/v7e-m/nofp\libg.a(libc_a-memmove.o)
                                0x234 (size before relaxing)
 .debug_str     0x00007eea       0x68 c:/chibistudio/tools/gnu tools arm embedded/11.3 2022.08/bin/../lib/gcc/arm-none-eabi/11.3.1/thumb/v7e-m/nofp\libg.a(libc_a-memset.o)
                                0x215 (size before relaxing)
 .debug_str     0x00007f52       0x5c c:/chibistudio/tools/gnu tools arm embedded/11.3 2022.08/bin/../lib/gcc/arm-none-eabi/11.3.1/thumb/v7e-m/nofp\libg.a(libc_a-strncmp.o)
                                0x203 (size before relaxing)
 .debug_str     0x00007fae       0x6c c:/chibistudio/tools/gnu tools arm embedded/11.3 2022.08/bin/../lib/gcc/arm-none-eabi/11.3.1/thumb/v7e-m/nofp\libg.a(libc_a-impure.o)
                                0x516 (size before relaxing)
 .debug_str     0x0000801a       0x64 c:/chibistudio/tools/gnu tools arm embedded/11.3 2022.08/bin/../lib/gcc/arm-none-eabi/11.3.1/thumb/v7e-m/nofp\libg.a(libc_a-sbrkr.o)
                                0x51a (size before relaxing)
 .debug_str     0x0000807e      0x1f4 c:/chibistudio/tools/gnu tools arm embedded/11.3 2022.08/bin/../lib/gcc/arm-none-eabi/11.3.1/thumb/v7e-m/nofp\libg.a(libc_a-lock.o)
                                0x374 (size before relaxing)
 .debug_str     0x00008272       0x66 c:/chibistudio/tools/gnu tools arm embedded/11.3 2022.08/bin/../lib/gcc/arm-none-eabi/11.3.1/thumb/v7e-m/nofp\libg.a(libc_a-strcmp.o)
                                 0xeb (size before relaxing)
 .debug_str     0x000082d8       0x67 c:/chibistudio/tools/gnu tools arm embedded/11.3 2022.08/bin/../lib/gcc/arm-none-eabi/11.3.1/thumb/v7e-m/nofp\libg.a(libc_a-memcpy.o)
                                 0xec (size before relaxing)
 .debug_str     0x0000833f       0x8e c:/chibistudio/tools/gnu tools arm embedded/11.3 2022.08/bin/../lib/gcc/arm-none-eabi/11.3.1/thumb/v7e-m/nofp\libg.a(libc_a-freer.o)
                                0x679 (size before relaxing)
 .debug_str     0x000083cd      0x209 c:/chibistudio/tools/gnu tools arm embedded/11.3 2022.08/bin/../lib/gcc/arm-none-eabi/11.3.1/thumb/v7e-m/nofp\libg.a(libc_a-findfp.o)
                                0x799 (size before relaxing)
 .debug_str     0x000085d6       0x78 c:/chibistudio/tools/gnu tools arm embedded/11.3 2022.08/bin/../lib/gcc/arm-none-eabi/11.3.1/thumb/v7e-m/nofp\libg.a(libc_a-reent.o)
                                0x530 (size before relaxing)

.debug_loclists
                0x00000000    0x23782
 .debug_loclists
                0x00000000    0x118ce C:\Users\Ridwane\AppData\Local\Temp\ccbHz2Im.ltrans0.ltrans.o
 .debug_loclists
                0x000118ce    0x105a9 C:\Users\Ridwane\AppData\Local\Temp\ccbHz2Im.ltrans1.ltrans.o
 .debug_loclists
                0x00021e77       0x48 c:/chibistudio/tools/gnu tools arm embedded/11.3 2022.08/bin/../lib/gcc/arm-none-eabi/11.3.1/thumb/v7e-m/nofp\libg.a(libc_a-malloc.o)
 .debug_loclists
                0x00021ebf      0xa6b c:/chibistudio/tools/gnu tools arm embedded/11.3 2022.08/bin/../lib/gcc/arm-none-eabi/11.3.1/thumb/v7e-m/nofp\libg.a(libc_a-mallocr.o)
 .debug_loclists
                0x0002292a       0x3a c:/chibistudio/tools/gnu tools arm embedded/11.3 2022.08/bin/../lib/gcc/arm-none-eabi/11.3.1/thumb/v7e-m/nofp\libg.a(libc_a-mlock.o)
 .debug_loclists
                0x00022964      0x129 c:/chibistudio/tools/gnu tools arm embedded/11.3 2022.08/bin/../lib/gcc/arm-none-eabi/11.3.1/thumb/v7e-m/nofp\libg.a(libc_a-memcmp.o)
 .debug_loclists
                0x00022a8d      0x224 c:/chibistudio/tools/gnu tools arm embedded/11.3 2022.08/bin/../lib/gcc/arm-none-eabi/11.3.1/thumb/v7e-m/nofp\libg.a(libc_a-memmove.o)
 .debug_loclists
                0x00022cb1      0x1a5 c:/chibistudio/tools/gnu tools arm embedded/11.3 2022.08/bin/../lib/gcc/arm-none-eabi/11.3.1/thumb/v7e-m/nofp\libg.a(libc_a-memset.o)
 .debug_loclists
                0x00022e56      0x120 c:/chibistudio/tools/gnu tools arm embedded/11.3 2022.08/bin/../lib/gcc/arm-none-eabi/11.3.1/thumb/v7e-m/nofp\libg.a(libc_a-strncmp.o)
 .debug_loclists
                0x00022f76       0x4c c:/chibistudio/tools/gnu tools arm embedded/11.3 2022.08/bin/../lib/gcc/arm-none-eabi/11.3.1/thumb/v7e-m/nofp\libg.a(libc_a-sbrkr.o)
 .debug_loclists
                0x00022fc2       0x23 c:/chibistudio/tools/gnu tools arm embedded/11.3 2022.08/bin/../lib/gcc/arm-none-eabi/11.3.1/thumb/v7e-m/nofp\libg.a(libc_a-lock.o)
 .debug_loclists
                0x00022fe5      0x489 c:/chibistudio/tools/gnu tools arm embedded/11.3 2022.08/bin/../lib/gcc/arm-none-eabi/11.3.1/thumb/v7e-m/nofp\libg.a(libc_a-freer.o)
 .debug_loclists
                0x0002346e      0x2b6 c:/chibistudio/tools/gnu tools arm embedded/11.3 2022.08/bin/../lib/gcc/arm-none-eabi/11.3.1/thumb/v7e-m/nofp\libg.a(libc_a-findfp.o)
 .debug_loclists
                0x00023724       0x5e c:/chibistudio/tools/gnu tools arm embedded/11.3 2022.08/bin/../lib/gcc/arm-none-eabi/11.3.1/thumb/v7e-m/nofp\libg.a(libc_a-reent.o)

.debug_rnglists
                0x00000000     0x76c6
 .debug_rnglists
                0x00000000     0x4ab6 C:\Users\Ridwane\AppData\Local\Temp\ccbHz2Im.ltrans0.ltrans.o
 .debug_rnglists
                0x00004ab6     0x29c7 C:\Users\Ridwane\AppData\Local\Temp\ccbHz2Im.ltrans1.ltrans.o
 .debug_rnglists
                0x0000747d       0x19 c:/chibistudio/tools/gnu tools arm embedded/11.3 2022.08/bin/../lib/gcc/arm-none-eabi/11.3.1/thumb/v7e-m/nofp\libg.a(libc_a-malloc.o)
 .debug_rnglists
                0x00007496       0x4b c:/chibistudio/tools/gnu tools arm embedded/11.3 2022.08/bin/../lib/gcc/arm-none-eabi/11.3.1/thumb/v7e-m/nofp\libg.a(libc_a-mallocr.o)
 .debug_rnglists
                0x000074e1       0x19 c:/chibistudio/tools/gnu tools arm embedded/11.3 2022.08/bin/../lib/gcc/arm-none-eabi/11.3.1/thumb/v7e-m/nofp\libg.a(libc_a-mlock.o)
 .debug_rnglists
                0x000074fa       0x13 c:/chibistudio/tools/gnu tools arm embedded/11.3 2022.08/bin/../lib/gcc/arm-none-eabi/11.3.1/thumb/v7e-m/nofp\libg.a(libc_a-memcmp.o)
 .debug_rnglists
                0x0000750d       0x14 c:/chibistudio/tools/gnu tools arm embedded/11.3 2022.08/bin/../lib/gcc/arm-none-eabi/11.3.1/thumb/v7e-m/nofp\libg.a(libc_a-memmove.o)
 .debug_rnglists
                0x00007521       0x14 c:/chibistudio/tools/gnu tools arm embedded/11.3 2022.08/bin/../lib/gcc/arm-none-eabi/11.3.1/thumb/v7e-m/nofp\libg.a(libc_a-memset.o)
 .debug_rnglists
                0x00007535       0x14 c:/chibistudio/tools/gnu tools arm embedded/11.3 2022.08/bin/../lib/gcc/arm-none-eabi/11.3.1/thumb/v7e-m/nofp\libg.a(libc_a-strncmp.o)
 .debug_rnglists
                0x00007549       0x13 c:/chibistudio/tools/gnu tools arm embedded/11.3 2022.08/bin/../lib/gcc/arm-none-eabi/11.3.1/thumb/v7e-m/nofp\libg.a(libc_a-sbrkr.o)
 .debug_rnglists
                0x0000755c       0x19 c:/chibistudio/tools/gnu tools arm embedded/11.3 2022.08/bin/../lib/gcc/arm-none-eabi/11.3.1/thumb/v7e-m/nofp\libg.a(libc_a-lock.o)
 .debug_rnglists
                0x00007575       0x1b c:/chibistudio/tools/gnu tools arm embedded/11.3 2022.08/bin/../lib/gcc/arm-none-eabi/11.3.1/thumb/v7e-m/nofp\libg.a(libc_a-freer.o)
 .debug_rnglists
                0x00007590      0x123 c:/chibistudio/tools/gnu tools arm embedded/11.3 2022.08/bin/../lib/gcc/arm-none-eabi/11.3.1/thumb/v7e-m/nofp\libg.a(libc_a-findfp.o)
 .debug_rnglists
                0x000076b3       0x13 c:/chibistudio/tools/gnu tools arm embedded/11.3 2022.08/bin/../lib/gcc/arm-none-eabi/11.3.1/thumb/v7e-m/nofp\libg.a(libc_a-reent.o)

.debug_frame    0x00000000     0x28d8
 .debug_frame   0x00000000     0x19e8 C:\Users\Ridwane\AppData\Local\Temp\ccbHz2Im.ltrans0.ltrans.o
 .debug_frame   0x000019e8      0xa3c C:\Users\Ridwane\AppData\Local\Temp\ccbHz2Im.ltrans1.ltrans.o
 .debug_frame   0x00002424       0x30 c:/chibistudio/tools/gnu tools arm embedded/11.3 2022.08/bin/../lib/gcc/arm-none-eabi/11.3.1/thumb/v7e-m/nofp\libg.a(libc_a-malloc.o)
 .debug_frame   0x00002454       0x4c c:/chibistudio/tools/gnu tools arm embedded/11.3 2022.08/bin/../lib/gcc/arm-none-eabi/11.3.1/thumb/v7e-m/nofp\libg.a(libc_a-mallocr.o)
 .debug_frame   0x000024a0       0x30 c:/chibistudio/tools/gnu tools arm embedded/11.3 2022.08/bin/../lib/gcc/arm-none-eabi/11.3.1/thumb/v7e-m/nofp\libg.a(libc_a-mlock.o)
 .debug_frame   0x000024d0       0x28 c:/chibistudio/tools/gnu tools arm embedded/11.3 2022.08/bin/../lib/gcc/arm-none-eabi/11.3.1/thumb/v7e-m/nofp\libg.a(libc_a-memcmp.o)
 .debug_frame   0x000024f8       0x40 c:/chibistudio/tools/gnu tools arm embedded/11.3 2022.08/bin/../lib/gcc/arm-none-eabi/11.3.1/thumb/v7e-m/nofp\libg.a(libc_a-memmove.o)
 .debug_frame   0x00002538       0x2c c:/chibistudio/tools/gnu tools arm embedded/11.3 2022.08/bin/../lib/gcc/arm-none-eabi/11.3.1/thumb/v7e-m/nofp\libg.a(libc_a-memset.o)
 .debug_frame   0x00002564       0x38 c:/chibistudio/tools/gnu tools arm embedded/11.3 2022.08/bin/../lib/gcc/arm-none-eabi/11.3.1/thumb/v7e-m/nofp\libg.a(libc_a-strncmp.o)
 .debug_frame   0x0000259c       0x2c c:/chibistudio/tools/gnu tools arm embedded/11.3 2022.08/bin/../lib/gcc/arm-none-eabi/11.3.1/thumb/v7e-m/nofp\libg.a(libc_a-sbrkr.o)
 .debug_frame   0x000025c8       0xb0 c:/chibistudio/tools/gnu tools arm embedded/11.3 2022.08/bin/../lib/gcc/arm-none-eabi/11.3.1/thumb/v7e-m/nofp\libg.a(libc_a-lock.o)
 .debug_frame   0x00002678       0x68 c:/chibistudio/tools/gnu tools arm embedded/11.3 2022.08/bin/../lib/gcc/arm-none-eabi/11.3.1/thumb/v7e-m/nofp\libg.a(libc_a-strcmp.o)
 .debug_frame   0x000026e0       0x8c c:/chibistudio/tools/gnu tools arm embedded/11.3 2022.08/bin/../lib/gcc/arm-none-eabi/11.3.1/thumb/v7e-m/nofp\libg.a(libc_a-freer.o)
 .debug_frame   0x0000276c      0x130 c:/chibistudio/tools/gnu tools arm embedded/11.3 2022.08/bin/../lib/gcc/arm-none-eabi/11.3.1/thumb/v7e-m/nofp\libg.a(libc_a-findfp.o)
 .debug_frame   0x0000289c       0x3c c:/chibistudio/tools/gnu tools arm embedded/11.3 2022.08/bin/../lib/gcc/arm-none-eabi/11.3.1/thumb/v7e-m/nofp\libg.a(libc_a-reent.o)

Cross Reference Table

Symbol                                            File
BusFault_Handler                                  ./build/obj/vectors.o
DebugMon_Handler                                  ./build/obj/vectors.o
HardFault_Handler                                 ./build/obj/vectors.o
MemManage_Handler                                 ./build/obj/vectors.o
NMI_Handler                                       ./build/obj/vectors.o
PendSV_Handler                                    ./build/obj/vectors.o
Reset_Handler                                     ./build/obj/vectors.o
SD2                                               C:\Users\Ridwane\AppData\Local\Temp\ccbHz2Im.ltrans0.ltrans.o
                                                  ./build/obj/hal_serial_lld.o (symbol from plugin)
                                                  C:\Users\Ridwane\AppData\Local\Temp\ccbHz2Im.ltrans1.ltrans.o
                                                  ./build/obj/main.o (symbol from plugin)
                                                  ./build/obj/stm32_isr.o (symbol from plugin)
SVC_Handler                                       C:\Users\Ridwane\AppData\Local\Temp\ccbHz2Im.ltrans0.ltrans.o
                                                  ./build/obj/chcore.o (symbol from plugin)
                                                  ./build/obj/vectors.o
SecureFault_Handler                               ./build/obj/vectors.o
SysTick_Handler                                   ./build/obj/vectors.o
SystemCoreClock                                   ./build/obj/hal_lld.o (symbol from plugin)
UsageFault_Handler                                ./build/obj/vectors.o
Vector100                                         ./build/obj/vectors.o
Vector104                                         ./build/obj/vectors.o
Vector108                                         ./build/obj/vectors.o
Vector10C                                         ./build/obj/vectors.o
Vector110                                         ./build/obj/vectors.o
Vector114                                         ./build/obj/vectors.o
Vector118                                         ./build/obj/vectors.o
Vector11C                                         ./build/obj/vectors.o
Vector120                                         ./build/obj/vectors.o
Vector124                                         ./build/obj/vectors.o
Vector128                                         ./build/obj/vectors.o
Vector12C                                         ./build/obj/vectors.o
Vector130                                         ./build/obj/vectors.o
Vector134                                         ./build/obj/vectors.o
Vector138                                         ./build/obj/vectors.o
Vector13C                                         ./build/obj/vectors.o
Vector140                                         ./build/obj/vectors.o
Vector144                                         ./build/obj/vectors.o
Vector148                                         ./build/obj/vectors.o
Vector14C                                         ./build/obj/vectors.o
Vector150                                         ./build/obj/vectors.o
Vector154                                         ./build/obj/vectors.o
Vector158                                         ./build/obj/vectors.o
Vector15C                                         ./build/obj/vectors.o
Vector160                                         ./build/obj/vectors.o
Vector164                                         ./build/obj/vectors.o
Vector168                                         ./build/obj/vectors.o
Vector16C                                         ./build/obj/vectors.o
Vector170                                         ./build/obj/vectors.o
Vector174                                         ./build/obj/vectors.o
Vector178                                         ./build/obj/vectors.o
Vector17C                                         ./build/obj/vectors.o
Vector180                                         ./build/obj/vectors.o
Vector184                                         ./build/obj/vectors.o
Vector188                                         ./build/obj/vectors.o
Vector18C                                         ./build/obj/vectors.o
Vector190                                         ./build/obj/vectors.o
Vector194                                         ./build/obj/vectors.o
Vector198                                         ./build/obj/vectors.o
Vector19C                                         ./build/obj/vectors.o
Vector1A0                                         ./build/obj/vectors.o
Vector1A4                                         ./build/obj/vectors.o
Vector1A8                                         ./build/obj/vectors.o
Vector1AC                                         ./build/obj/vectors.o
Vector1B0                                         ./build/obj/vectors.o
Vector1B4                                         ./build/obj/vectors.o
Vector1B8                                         ./build/obj/vectors.o
Vector1BC                                         ./build/obj/vectors.o
Vector1C0                                         ./build/obj/vectors.o
Vector1C4                                         ./build/obj/vectors.o
Vector1C8                                         ./build/obj/vectors.o
Vector1CC                                         ./build/obj/vectors.o
Vector1D0                                         ./build/obj/vectors.o
Vector1D4                                         ./build/obj/vectors.o
Vector1D8                                         ./build/obj/vectors.o
Vector1DC                                         ./build/obj/vectors.o
Vector20                                          ./build/obj/vectors.o
Vector24                                          ./build/obj/vectors.o
Vector28                                          ./build/obj/vectors.o
Vector34                                          ./build/obj/vectors.o
Vector40                                          ./build/obj/vectors.o
Vector44                                          ./build/obj/vectors.o
Vector48                                          ./build/obj/vectors.o
Vector4C                                          ./build/obj/vectors.o
Vector50                                          ./build/obj/vectors.o
Vector54                                          ./build/obj/vectors.o
Vector58                                          ./build/obj/vectors.o
Vector5C                                          ./build/obj/vectors.o
Vector60                                          ./build/obj/vectors.o
Vector64                                          ./build/obj/vectors.o
Vector68                                          ./build/obj/vectors.o
Vector6C                                          ./build/obj/vectors.o
Vector70                                          ./build/obj/vectors.o
Vector74                                          ./build/obj/vectors.o
Vector78                                          ./build/obj/vectors.o
Vector7C                                          ./build/obj/vectors.o
Vector80                                          ./build/obj/vectors.o
Vector84                                          ./build/obj/vectors.o
Vector88                                          ./build/obj/vectors.o
Vector8C                                          ./build/obj/vectors.o
Vector90                                          ./build/obj/vectors.o
Vector94                                          ./build/obj/vectors.o
Vector98                                          ./build/obj/vectors.o
Vector9C                                          ./build/obj/vectors.o
VectorA0                                          ./build/obj/vectors.o
VectorA4                                          ./build/obj/vectors.o
VectorA8                                          ./build/obj/vectors.o
VectorAC                                          ./build/obj/vectors.o
VectorB0                                          C:\Users\Ridwane\AppData\Local\Temp\ccbHz2Im.ltrans0.ltrans.o
                                                  ./build/obj/stm32_isr.o (symbol from plugin)
                                                  ./build/obj/vectors.o
VectorB4                                          ./build/obj/vectors.o
VectorB8                                          ./build/obj/vectors.o
VectorBC                                          ./build/obj/vectors.o
VectorC0                                          ./build/obj/vectors.o
VectorC4                                          ./build/obj/vectors.o
VectorC8                                          ./build/obj/vectors.o
VectorCC                                          ./build/obj/vectors.o
VectorD0                                          ./build/obj/vectors.o
VectorD4                                          ./build/obj/vectors.o
VectorD8                                          C:\Users\Ridwane\AppData\Local\Temp\ccbHz2Im.ltrans0.ltrans.o
                                                  ./build/obj/stm32_isr.o (symbol from plugin)
                                                  ./build/obj/vectors.o
VectorDC                                          ./build/obj/vectors.o
VectorE0                                          ./build/obj/vectors.o
VectorE4                                          ./build/obj/vectors.o
VectorE8                                          ./build/obj/vectors.o
VectorEC                                          ./build/obj/vectors.o
VectorF0                                          ./build/obj/vectors.o
VectorF4                                          ./build/obj/vectors.o
VectorF8                                          ./build/obj/vectors.o
VectorFC                                          ./build/obj/vectors.o
__bss_base__                                      C:\Users\Ridwane\AppData\Local\Temp\ccbHz2Im.ltrans1.ltrans.o
                                                  ./build/obj/ch_test.o (symbol from plugin)
                                                  ./build/obj/crt0_v7m.o
__bss_end__                                       C:\Users\Ridwane\AppData\Local\Temp\ccbHz2Im.ltrans1.ltrans.o
                                                  ./build/obj/ch_test.o (symbol from plugin)
                                                  ./build/obj/crt0_v7m.o
__ch_delegate_fn0                                 ./build/obj/chdelegates.o (symbol from plugin)
                                                  ./build/obj/oslib_test_sequence_005.o (symbol from plugin)
__ch_delegate_fn1                                 ./build/obj/chdelegates.o (symbol from plugin)
                                                  ./build/obj/oslib_test_sequence_005.o (symbol from plugin)
__ch_delegate_fn2                                 ./build/obj/chdelegates.o (symbol from plugin)
                                                  ./build/obj/oslib_test_sequence_005.o (symbol from plugin)
__ch_delegate_fn3                                 ./build/obj/chdelegates.o (symbol from plugin)
                                                  ./build/obj/oslib_test_sequence_005.o (symbol from plugin)
__ch_delegate_fn4                                 ./build/obj/chdelegates.o (symbol from plugin)
                                                  ./build/obj/oslib_test_sequence_005.o (symbol from plugin)
__core_init                                       ./build/obj/chmemcore.o (symbol from plugin)
                                                  ./build/obj/chsys.o (symbol from plugin)
__cpu_init                                        C:\Users\Ridwane\AppData\Local\Temp\ccbHz2Im.ltrans0.ltrans.o
                                                  ./build/obj/crt1.o (symbol from plugin)
                                                  ./build/obj/crt0_v7m.o
__data_base__                                     C:\Users\Ridwane\AppData\Local\Temp\ccbHz2Im.ltrans1.ltrans.o
                                                  ./build/obj/ch_test.o (symbol from plugin)
                                                  ./build/obj/crt0_v7m.o
__data_end__                                      C:\Users\Ridwane\AppData\Local\Temp\ccbHz2Im.ltrans1.ltrans.o
                                                  ./build/obj/ch_test.o (symbol from plugin)
                                                  ./build/obj/crt0_v7m.o
__default_exit                                    C:\Users\Ridwane\AppData\Local\Temp\ccbHz2Im.ltrans0.ltrans.o
                                                  ./build/obj/crt1.o (symbol from plugin)
                                                  ./build/obj/crt0_v7m.o
__early_init                                      C:\Users\Ridwane\AppData\Local\Temp\ccbHz2Im.ltrans0.ltrans.o
                                                  ./build/obj/board.o (symbol from plugin)
                                                  ./build/obj/crt1.o (symbol from plugin)
                                                  ./build/obj/crt0_v7m.o
__factory_init                                    ./build/obj/chfactory.o (symbol from plugin)
                                                  ./build/obj/chsys.o (symbol from plugin)
__fini_array_base__                               ./build/obj/crt0_v7m.o
__fini_array_end__                                ./build/obj/crt0_v7m.o
__fp_lock_all                                     c:/chibistudio/tools/gnu tools arm embedded/11.3 2022.08/bin/../lib/gcc/arm-none-eabi/11.3.1/thumb/v7e-m/nofp\libg.a(libc_a-findfp.o)
__fp_unlock_all                                   c:/chibistudio/tools/gnu tools arm embedded/11.3 2022.08/bin/../lib/gcc/arm-none-eabi/11.3.1/thumb/v7e-m/nofp\libg.a(libc_a-findfp.o)
__heap_base__                                     C:\Users\Ridwane\AppData\Local\Temp\ccbHz2Im.ltrans1.ltrans.o
                                                  ./build/obj/chmemcore.o (symbol from plugin)
__heap_end__                                      C:\Users\Ridwane\AppData\Local\Temp\ccbHz2Im.ltrans1.ltrans.o
                                                  ./build/obj/chmemcore.o (symbol from plugin)
__heap_init                                       ./build/obj/chmemheaps.o (symbol from plugin)
                                                  ./build/obj/chsys.o (symbol from plugin)
__idle_thread.lto_priv.0                          C:\Users\Ridwane\AppData\Local\Temp\ccbHz2Im.ltrans0.ltrans.o
                                                  C:\Users\Ridwane\AppData\Local\Temp\ccbHz2Im.ltrans1.ltrans.o
__init_array_base__                               ./build/obj/crt0_v7m.o
__init_array_end__                                ./build/obj/crt0_v7m.o
__init_ram_areas                                  C:\Users\Ridwane\AppData\Local\Temp\ccbHz2Im.ltrans0.ltrans.o
                                                  ./build/obj/crt1.o (symbol from plugin)
                                                  ./build/obj/crt0_v7m.o
__late_init                                       C:\Users\Ridwane\AppData\Local\Temp\ccbHz2Im.ltrans0.ltrans.o
                                                  ./build/obj/crt1.o (symbol from plugin)
                                                  ./build/obj/crt0_v7m.o
__lock___arc4random_mutex                         c:/chibistudio/tools/gnu tools arm embedded/11.3 2022.08/bin/../lib/gcc/arm-none-eabi/11.3.1/thumb/v7e-m/nofp\libg.a(libc_a-lock.o)
__lock___at_quick_exit_mutex                      c:/chibistudio/tools/gnu tools arm embedded/11.3 2022.08/bin/../lib/gcc/arm-none-eabi/11.3.1/thumb/v7e-m/nofp\libg.a(libc_a-lock.o)
__lock___atexit_recursive_mutex                   c:/chibistudio/tools/gnu tools arm embedded/11.3 2022.08/bin/../lib/gcc/arm-none-eabi/11.3.1/thumb/v7e-m/nofp\libg.a(libc_a-lock.o)
__lock___dd_hash_mutex                            c:/chibistudio/tools/gnu tools arm embedded/11.3 2022.08/bin/../lib/gcc/arm-none-eabi/11.3.1/thumb/v7e-m/nofp\libg.a(libc_a-lock.o)
__lock___env_recursive_mutex                      c:/chibistudio/tools/gnu tools arm embedded/11.3 2022.08/bin/../lib/gcc/arm-none-eabi/11.3.1/thumb/v7e-m/nofp\libg.a(libc_a-lock.o)
__lock___malloc_recursive_mutex                   c:/chibistudio/tools/gnu tools arm embedded/11.3 2022.08/bin/../lib/gcc/arm-none-eabi/11.3.1/thumb/v7e-m/nofp\libg.a(libc_a-lock.o)
                                                  c:/chibistudio/tools/gnu tools arm embedded/11.3 2022.08/bin/../lib/gcc/arm-none-eabi/11.3.1/thumb/v7e-m/nofp\libg.a(libc_a-mlock.o)
__lock___sfp_recursive_mutex                      c:/chibistudio/tools/gnu tools arm embedded/11.3 2022.08/bin/../lib/gcc/arm-none-eabi/11.3.1/thumb/v7e-m/nofp\libg.a(libc_a-lock.o)
                                                  c:/chibistudio/tools/gnu tools arm embedded/11.3 2022.08/bin/../lib/gcc/arm-none-eabi/11.3.1/thumb/v7e-m/nofp\libg.a(libc_a-findfp.o)
__lock___tz_mutex                                 c:/chibistudio/tools/gnu tools arm embedded/11.3 2022.08/bin/../lib/gcc/arm-none-eabi/11.3.1/thumb/v7e-m/nofp\libg.a(libc_a-lock.o)
__main_stack_base__                               ./build/obj/crt0_v7m.o
__main_stack_end__                                ./build/obj/vectors.o
                                                  ./build/obj/crt0_v7m.o
__malloc_av_                                      c:/chibistudio/tools/gnu tools arm embedded/11.3 2022.08/bin/../lib/gcc/arm-none-eabi/11.3.1/thumb/v7e-m/nofp\libg.a(libc_a-mallocr.o)
                                                  c:/chibistudio/tools/gnu tools arm embedded/11.3 2022.08/bin/../lib/gcc/arm-none-eabi/11.3.1/thumb/v7e-m/nofp\libg.a(libc_a-freer.o)
__malloc_current_mallinfo                         c:/chibistudio/tools/gnu tools arm embedded/11.3 2022.08/bin/../lib/gcc/arm-none-eabi/11.3.1/thumb/v7e-m/nofp\libg.a(libc_a-mallocr.o)
                                                  c:/chibistudio/tools/gnu tools arm embedded/11.3 2022.08/bin/../lib/gcc/arm-none-eabi/11.3.1/thumb/v7e-m/nofp\libg.a(libc_a-freer.o)
__malloc_lock                                     c:/chibistudio/tools/gnu tools arm embedded/11.3 2022.08/bin/../lib/gcc/arm-none-eabi/11.3.1/thumb/v7e-m/nofp\libg.a(libc_a-mlock.o)
                                                  c:/chibistudio/tools/gnu tools arm embedded/11.3 2022.08/bin/../lib/gcc/arm-none-eabi/11.3.1/thumb/v7e-m/nofp\libg.a(libc_a-freer.o)
                                                  c:/chibistudio/tools/gnu tools arm embedded/11.3 2022.08/bin/../lib/gcc/arm-none-eabi/11.3.1/thumb/v7e-m/nofp\libg.a(libc_a-mallocr.o)
__malloc_max_sbrked_mem                           c:/chibistudio/tools/gnu tools arm embedded/11.3 2022.08/bin/../lib/gcc/arm-none-eabi/11.3.1/thumb/v7e-m/nofp\libg.a(libc_a-mallocr.o)
__malloc_max_total_mem                            c:/chibistudio/tools/gnu tools arm embedded/11.3 2022.08/bin/../lib/gcc/arm-none-eabi/11.3.1/thumb/v7e-m/nofp\libg.a(libc_a-mallocr.o)
__malloc_sbrk_base                                c:/chibistudio/tools/gnu tools arm embedded/11.3 2022.08/bin/../lib/gcc/arm-none-eabi/11.3.1/thumb/v7e-m/nofp\libg.a(libc_a-mallocr.o)
                                                  c:/chibistudio/tools/gnu tools arm embedded/11.3 2022.08/bin/../lib/gcc/arm-none-eabi/11.3.1/thumb/v7e-m/nofp\libg.a(libc_a-freer.o)
__malloc_top_pad                                  c:/chibistudio/tools/gnu tools arm embedded/11.3 2022.08/bin/../lib/gcc/arm-none-eabi/11.3.1/thumb/v7e-m/nofp\libg.a(libc_a-mallocr.o)
                                                  c:/chibistudio/tools/gnu tools arm embedded/11.3 2022.08/bin/../lib/gcc/arm-none-eabi/11.3.1/thumb/v7e-m/nofp\libg.a(libc_a-freer.o)
__malloc_trim_threshold                           c:/chibistudio/tools/gnu tools arm embedded/11.3 2022.08/bin/../lib/gcc/arm-none-eabi/11.3.1/thumb/v7e-m/nofp\libg.a(libc_a-mallocr.o)
                                                  c:/chibistudio/tools/gnu tools arm embedded/11.3 2022.08/bin/../lib/gcc/arm-none-eabi/11.3.1/thumb/v7e-m/nofp\libg.a(libc_a-freer.o)
__malloc_unlock                                   c:/chibistudio/tools/gnu tools arm embedded/11.3 2022.08/bin/../lib/gcc/arm-none-eabi/11.3.1/thumb/v7e-m/nofp\libg.a(libc_a-mlock.o)
                                                  c:/chibistudio/tools/gnu tools arm embedded/11.3 2022.08/bin/../lib/gcc/arm-none-eabi/11.3.1/thumb/v7e-m/nofp\libg.a(libc_a-freer.o)
                                                  c:/chibistudio/tools/gnu tools arm embedded/11.3 2022.08/bin/../lib/gcc/arm-none-eabi/11.3.1/thumb/v7e-m/nofp\libg.a(libc_a-mallocr.o)
__port_exit_from_isr                              ./build/obj/chcoreasm.o
                                                  C:\Users\Ridwane\AppData\Local\Temp\ccbHz2Im.ltrans0.ltrans.o
                                                  ./build/obj/chcore.o (symbol from plugin)
__port_irq_epilogue                               ./build/obj/chcore.o (symbol from plugin)
                                                  ./build/obj/stm32_isr.o (symbol from plugin)
__port_switch                                     ./build/obj/chcoreasm.o
                                                  C:\Users\Ridwane\AppData\Local\Temp\ccbHz2Im.ltrans1.ltrans.o
                                                  C:\Users\Ridwane\AppData\Local\Temp\ccbHz2Im.ltrans0.ltrans.o
                                                  ./build/obj/chschd.o (symbol from plugin)
__port_switch_from_isr                            ./build/obj/chcoreasm.o
                                                  C:\Users\Ridwane\AppData\Local\Temp\ccbHz2Im.ltrans0.ltrans.o
                                                  ./build/obj/chcore.o (symbol from plugin)
__port_thread_start                               ./build/obj/chcoreasm.o
                                                  C:\Users\Ridwane\AppData\Local\Temp\ccbHz2Im.ltrans0.ltrans.o
                                                  ./build/obj/chthreads.o (symbol from plugin)
__process_stack_base__                            ./build/obj/crt0_v7m.o
__process_stack_end__                             ./build/obj/crt0_v7m.o
__ram0_clear__                                    C:\Users\Ridwane\AppData\Local\Temp\ccbHz2Im.ltrans0.ltrans.o
                                                  ./build/obj/crt1.o (symbol from plugin)
__ram0_init__                                     C:\Users\Ridwane\AppData\Local\Temp\ccbHz2Im.ltrans0.ltrans.o
                                                  ./build/obj/crt1.o (symbol from plugin)
__ram0_init_text__                                C:\Users\Ridwane\AppData\Local\Temp\ccbHz2Im.ltrans0.ltrans.o
                                                  ./build/obj/crt1.o (symbol from plugin)
__ram0_noinit__                                   C:\Users\Ridwane\AppData\Local\Temp\ccbHz2Im.ltrans0.ltrans.o
                                                  ./build/obj/crt1.o (symbol from plugin)
__ram1_clear__                                    C:\Users\Ridwane\AppData\Local\Temp\ccbHz2Im.ltrans0.ltrans.o
                                                  ./build/obj/crt1.o (symbol from plugin)
__ram1_init__                                     C:\Users\Ridwane\AppData\Local\Temp\ccbHz2Im.ltrans0.ltrans.o
                                                  ./build/obj/crt1.o (symbol from plugin)
__ram1_init_text__                                C:\Users\Ridwane\AppData\Local\Temp\ccbHz2Im.ltrans0.ltrans.o
                                                  ./build/obj/crt1.o (symbol from plugin)
__ram1_noinit__                                   C:\Users\Ridwane\AppData\Local\Temp\ccbHz2Im.ltrans0.ltrans.o
                                                  ./build/obj/crt1.o (symbol from plugin)
__ram2_clear__                                    C:\Users\Ridwane\AppData\Local\Temp\ccbHz2Im.ltrans0.ltrans.o
                                                  ./build/obj/crt1.o (symbol from plugin)
__ram2_init__                                     C:\Users\Ridwane\AppData\Local\Temp\ccbHz2Im.ltrans0.ltrans.o
                                                  ./build/obj/crt1.o (symbol from plugin)
__ram2_init_text__                                C:\Users\Ridwane\AppData\Local\Temp\ccbHz2Im.ltrans0.ltrans.o
                                                  ./build/obj/crt1.o (symbol from plugin)
__ram2_noinit__                                   C:\Users\Ridwane\AppData\Local\Temp\ccbHz2Im.ltrans0.ltrans.o
                                                  ./build/obj/crt1.o (symbol from plugin)
__ram3_clear__                                    C:\Users\Ridwane\AppData\Local\Temp\ccbHz2Im.ltrans0.ltrans.o
                                                  ./build/obj/crt1.o (symbol from plugin)
__ram3_init__                                     C:\Users\Ridwane\AppData\Local\Temp\ccbHz2Im.ltrans0.ltrans.o
                                                  ./build/obj/crt1.o (symbol from plugin)
__ram3_init_text__                                C:\Users\Ridwane\AppData\Local\Temp\ccbHz2Im.ltrans0.ltrans.o
                                                  ./build/obj/crt1.o (symbol from plugin)
__ram3_noinit__                                   C:\Users\Ridwane\AppData\Local\Temp\ccbHz2Im.ltrans0.ltrans.o
                                                  ./build/obj/crt1.o (symbol from plugin)
__ram4_clear__                                    C:\Users\Ridwane\AppData\Local\Temp\ccbHz2Im.ltrans0.ltrans.o
                                                  ./build/obj/crt1.o (symbol from plugin)
__ram4_init__                                     C:\Users\Ridwane\AppData\Local\Temp\ccbHz2Im.ltrans0.ltrans.o
                                                  ./build/obj/crt1.o (symbol from plugin)
__ram4_init_text__                                C:\Users\Ridwane\AppData\Local\Temp\ccbHz2Im.ltrans0.ltrans.o
                                                  ./build/obj/crt1.o (symbol from plugin)
__ram4_noinit__                                   C:\Users\Ridwane\AppData\Local\Temp\ccbHz2Im.ltrans0.ltrans.o
                                                  ./build/obj/crt1.o (symbol from plugin)
__ram5_clear__                                    C:\Users\Ridwane\AppData\Local\Temp\ccbHz2Im.ltrans0.ltrans.o
                                                  ./build/obj/crt1.o (symbol from plugin)
__ram5_init__                                     C:\Users\Ridwane\AppData\Local\Temp\ccbHz2Im.ltrans0.ltrans.o
                                                  ./build/obj/crt1.o (symbol from plugin)
__ram5_init_text__                                C:\Users\Ridwane\AppData\Local\Temp\ccbHz2Im.ltrans0.ltrans.o
                                                  ./build/obj/crt1.o (symbol from plugin)
__ram5_noinit__                                   C:\Users\Ridwane\AppData\Local\Temp\ccbHz2Im.ltrans0.ltrans.o
                                                  ./build/obj/crt1.o (symbol from plugin)
__ram6_clear__                                    C:\Users\Ridwane\AppData\Local\Temp\ccbHz2Im.ltrans0.ltrans.o
                                                  ./build/obj/crt1.o (symbol from plugin)
__ram6_init__                                     C:\Users\Ridwane\AppData\Local\Temp\ccbHz2Im.ltrans0.ltrans.o
                                                  ./build/obj/crt1.o (symbol from plugin)
__ram6_init_text__                                C:\Users\Ridwane\AppData\Local\Temp\ccbHz2Im.ltrans0.ltrans.o
                                                  ./build/obj/crt1.o (symbol from plugin)
__ram6_noinit__                                   C:\Users\Ridwane\AppData\Local\Temp\ccbHz2Im.ltrans0.ltrans.o
                                                  ./build/obj/crt1.o (symbol from plugin)
__ram7_clear__                                    C:\Users\Ridwane\AppData\Local\Temp\ccbHz2Im.ltrans0.ltrans.o
                                                  ./build/obj/crt1.o (symbol from plugin)
__ram7_init__                                     C:\Users\Ridwane\AppData\Local\Temp\ccbHz2Im.ltrans0.ltrans.o
                                                  ./build/obj/crt1.o (symbol from plugin)
__ram7_init_text__                                C:\Users\Ridwane\AppData\Local\Temp\ccbHz2Im.ltrans0.ltrans.o
                                                  ./build/obj/crt1.o (symbol from plugin)
__ram7_noinit__                                   C:\Users\Ridwane\AppData\Local\Temp\ccbHz2Im.ltrans0.ltrans.o
                                                  ./build/obj/crt1.o (symbol from plugin)
__retarget_lock_acquire                           c:/chibistudio/tools/gnu tools arm embedded/11.3 2022.08/bin/../lib/gcc/arm-none-eabi/11.3.1/thumb/v7e-m/nofp\libg.a(libc_a-lock.o)
__retarget_lock_acquire_recursive                 c:/chibistudio/tools/gnu tools arm embedded/11.3 2022.08/bin/../lib/gcc/arm-none-eabi/11.3.1/thumb/v7e-m/nofp\libg.a(libc_a-lock.o)
                                                  c:/chibistudio/tools/gnu tools arm embedded/11.3 2022.08/bin/../lib/gcc/arm-none-eabi/11.3.1/thumb/v7e-m/nofp\libg.a(libc_a-fflush.o)
                                                  c:/chibistudio/tools/gnu tools arm embedded/11.3 2022.08/bin/../lib/gcc/arm-none-eabi/11.3.1/thumb/v7e-m/nofp\libg.a(libc_a-fclose.o)
                                                  c:/chibistudio/tools/gnu tools arm embedded/11.3 2022.08/bin/../lib/gcc/arm-none-eabi/11.3.1/thumb/v7e-m/nofp\libg.a(libc_a-findfp.o)
                                                  c:/chibistudio/tools/gnu tools arm embedded/11.3 2022.08/bin/../lib/gcc/arm-none-eabi/11.3.1/thumb/v7e-m/nofp\libg.a(libc_a-mlock.o)
__retarget_lock_close                             c:/chibistudio/tools/gnu tools arm embedded/11.3 2022.08/bin/../lib/gcc/arm-none-eabi/11.3.1/thumb/v7e-m/nofp\libg.a(libc_a-lock.o)
__retarget_lock_close_recursive                   c:/chibistudio/tools/gnu tools arm embedded/11.3 2022.08/bin/../lib/gcc/arm-none-eabi/11.3.1/thumb/v7e-m/nofp\libg.a(libc_a-lock.o)
                                                  c:/chibistudio/tools/gnu tools arm embedded/11.3 2022.08/bin/../lib/gcc/arm-none-eabi/11.3.1/thumb/v7e-m/nofp\libg.a(libc_a-fclose.o)
__retarget_lock_init                              c:/chibistudio/tools/gnu tools arm embedded/11.3 2022.08/bin/../lib/gcc/arm-none-eabi/11.3.1/thumb/v7e-m/nofp\libg.a(libc_a-lock.o)
__retarget_lock_init_recursive                    c:/chibistudio/tools/gnu tools arm embedded/11.3 2022.08/bin/../lib/gcc/arm-none-eabi/11.3.1/thumb/v7e-m/nofp\libg.a(libc_a-lock.o)
                                                  c:/chibistudio/tools/gnu tools arm embedded/11.3 2022.08/bin/../lib/gcc/arm-none-eabi/11.3.1/thumb/v7e-m/nofp\libg.a(libc_a-findfp.o)
__retarget_lock_release                           c:/chibistudio/tools/gnu tools arm embedded/11.3 2022.08/bin/../lib/gcc/arm-none-eabi/11.3.1/thumb/v7e-m/nofp\libg.a(libc_a-lock.o)
__retarget_lock_release_recursive                 c:/chibistudio/tools/gnu tools arm embedded/11.3 2022.08/bin/../lib/gcc/arm-none-eabi/11.3.1/thumb/v7e-m/nofp\libg.a(libc_a-lock.o)
                                                  c:/chibistudio/tools/gnu tools arm embedded/11.3 2022.08/bin/../lib/gcc/arm-none-eabi/11.3.1/thumb/v7e-m/nofp\libg.a(libc_a-fflush.o)
                                                  c:/chibistudio/tools/gnu tools arm embedded/11.3 2022.08/bin/../lib/gcc/arm-none-eabi/11.3.1/thumb/v7e-m/nofp\libg.a(libc_a-fclose.o)
                                                  c:/chibistudio/tools/gnu tools arm embedded/11.3 2022.08/bin/../lib/gcc/arm-none-eabi/11.3.1/thumb/v7e-m/nofp\libg.a(libc_a-findfp.o)
                                                  c:/chibistudio/tools/gnu tools arm embedded/11.3 2022.08/bin/../lib/gcc/arm-none-eabi/11.3.1/thumb/v7e-m/nofp\libg.a(libc_a-mlock.o)
__retarget_lock_try_acquire                       c:/chibistudio/tools/gnu tools arm embedded/11.3 2022.08/bin/../lib/gcc/arm-none-eabi/11.3.1/thumb/v7e-m/nofp\libg.a(libc_a-lock.o)
__retarget_lock_try_acquire_recursive             c:/chibistudio/tools/gnu tools arm embedded/11.3 2022.08/bin/../lib/gcc/arm-none-eabi/11.3.1/thumb/v7e-m/nofp\libg.a(libc_a-lock.o)
__rodata_base__                                   C:\Users\Ridwane\AppData\Local\Temp\ccbHz2Im.ltrans1.ltrans.o
                                                  ./build/obj/ch_test.o (symbol from plugin)
__rodata_end__                                    C:\Users\Ridwane\AppData\Local\Temp\ccbHz2Im.ltrans1.ltrans.o
                                                  ./build/obj/ch_test.o (symbol from plugin)
__sch_reschedule_ahead.lto_priv.0                 C:\Users\Ridwane\AppData\Local\Temp\ccbHz2Im.ltrans0.ltrans.o
                                                  C:\Users\Ridwane\AppData\Local\Temp\ccbHz2Im.ltrans1.ltrans.o
__sch_wakeup.lto_priv.0                           C:\Users\Ridwane\AppData\Local\Temp\ccbHz2Im.ltrans0.ltrans.o
                                                  C:\Users\Ridwane\AppData\Local\Temp\ccbHz2Im.ltrans1.ltrans.o
__sclose                                          c:/chibistudio/tools/gnu tools arm embedded/11.3 2022.08/bin/../lib/gcc/arm-none-eabi/11.3.1/thumb/v7e-m/nofp\libg.a(libc_a-stdio.o)
                                                  c:/chibistudio/tools/gnu tools arm embedded/11.3 2022.08/bin/../lib/gcc/arm-none-eabi/11.3.1/thumb/v7e-m/nofp\libg.a(libc_a-findfp.o)
__seofread                                        c:/chibistudio/tools/gnu tools arm embedded/11.3 2022.08/bin/../lib/gcc/arm-none-eabi/11.3.1/thumb/v7e-m/nofp\libg.a(libc_a-stdio.o)
__sf                                              c:/chibistudio/tools/gnu tools arm embedded/11.3 2022.08/bin/../lib/gcc/arm-none-eabi/11.3.1/thumb/v7e-m/nofp\libg.a(libc_a-findfp.o)
                                                  c:/chibistudio/tools/gnu tools arm embedded/11.3 2022.08/bin/../lib/gcc/arm-none-eabi/11.3.1/thumb/v7e-m/nofp\libg.a(libc_a-impure.o)
__sflush_r                                        c:/chibistudio/tools/gnu tools arm embedded/11.3 2022.08/bin/../lib/gcc/arm-none-eabi/11.3.1/thumb/v7e-m/nofp\libg.a(libc_a-fflush.o)
                                                  c:/chibistudio/tools/gnu tools arm embedded/11.3 2022.08/bin/../lib/gcc/arm-none-eabi/11.3.1/thumb/v7e-m/nofp\libg.a(libc_a-fclose.o)
__sfp                                             c:/chibistudio/tools/gnu tools arm embedded/11.3 2022.08/bin/../lib/gcc/arm-none-eabi/11.3.1/thumb/v7e-m/nofp\libg.a(libc_a-findfp.o)
__sfp_lock_acquire                                c:/chibistudio/tools/gnu tools arm embedded/11.3 2022.08/bin/../lib/gcc/arm-none-eabi/11.3.1/thumb/v7e-m/nofp\libg.a(libc_a-findfp.o)
                                                  c:/chibistudio/tools/gnu tools arm embedded/11.3 2022.08/bin/../lib/gcc/arm-none-eabi/11.3.1/thumb/v7e-m/nofp\libg.a(libc_a-fclose.o)
__sfp_lock_release                                c:/chibistudio/tools/gnu tools arm embedded/11.3 2022.08/bin/../lib/gcc/arm-none-eabi/11.3.1/thumb/v7e-m/nofp\libg.a(libc_a-findfp.o)
                                                  c:/chibistudio/tools/gnu tools arm embedded/11.3 2022.08/bin/../lib/gcc/arm-none-eabi/11.3.1/thumb/v7e-m/nofp\libg.a(libc_a-fclose.o)
__sglue                                           c:/chibistudio/tools/gnu tools arm embedded/11.3 2022.08/bin/../lib/gcc/arm-none-eabi/11.3.1/thumb/v7e-m/nofp\libg.a(libc_a-findfp.o)
                                                  c:/chibistudio/tools/gnu tools arm embedded/11.3 2022.08/bin/../lib/gcc/arm-none-eabi/11.3.1/thumb/v7e-m/nofp\libg.a(libc_a-fflush.o)
__sinit                                           c:/chibistudio/tools/gnu tools arm embedded/11.3 2022.08/bin/../lib/gcc/arm-none-eabi/11.3.1/thumb/v7e-m/nofp\libg.a(libc_a-findfp.o)
                                                  c:/chibistudio/tools/gnu tools arm embedded/11.3 2022.08/bin/../lib/gcc/arm-none-eabi/11.3.1/thumb/v7e-m/nofp\libg.a(libc_a-fflush.o)
                                                  c:/chibistudio/tools/gnu tools arm embedded/11.3 2022.08/bin/../lib/gcc/arm-none-eabi/11.3.1/thumb/v7e-m/nofp\libg.a(libc_a-fclose.o)
__sread                                           c:/chibistudio/tools/gnu tools arm embedded/11.3 2022.08/bin/../lib/gcc/arm-none-eabi/11.3.1/thumb/v7e-m/nofp\libg.a(libc_a-stdio.o)
                                                  c:/chibistudio/tools/gnu tools arm embedded/11.3 2022.08/bin/../lib/gcc/arm-none-eabi/11.3.1/thumb/v7e-m/nofp\libg.a(libc_a-findfp.o)
__sseek                                           c:/chibistudio/tools/gnu tools arm embedded/11.3 2022.08/bin/../lib/gcc/arm-none-eabi/11.3.1/thumb/v7e-m/nofp\libg.a(libc_a-stdio.o)
                                                  c:/chibistudio/tools/gnu tools arm embedded/11.3 2022.08/bin/../lib/gcc/arm-none-eabi/11.3.1/thumb/v7e-m/nofp\libg.a(libc_a-findfp.o)
__stdio_exit_handler                              c:/chibistudio/tools/gnu tools arm embedded/11.3 2022.08/bin/../lib/gcc/arm-none-eabi/11.3.1/thumb/v7e-m/nofp\libg.a(libc_a-findfp.o)
__swrite                                          c:/chibistudio/tools/gnu tools arm embedded/11.3 2022.08/bin/../lib/gcc/arm-none-eabi/11.3.1/thumb/v7e-m/nofp\libg.a(libc_a-stdio.o)
                                                  c:/chibistudio/tools/gnu tools arm embedded/11.3 2022.08/bin/../lib/gcc/arm-none-eabi/11.3.1/thumb/v7e-m/nofp\libg.a(libc_a-findfp.o)
__test_assert                                     C:\Users\Ridwane\AppData\Local\Temp\ccbHz2Im.ltrans0.ltrans.o
                                                  ./build/obj/ch_test.o (symbol from plugin)
                                                  C:\Users\Ridwane\AppData\Local\Temp\ccbHz2Im.ltrans1.ltrans.o
                                                  ./build/obj/oslib_test_sequence_009.o (symbol from plugin)
                                                  ./build/obj/oslib_test_sequence_008.o (symbol from plugin)
                                                  ./build/obj/oslib_test_sequence_007.o (symbol from plugin)
                                                  ./build/obj/oslib_test_sequence_006.o (symbol from plugin)
                                                  ./build/obj/oslib_test_sequence_005.o (symbol from plugin)
                                                  ./build/obj/oslib_test_sequence_003.o (symbol from plugin)
                                                  ./build/obj/oslib_test_sequence_002.o (symbol from plugin)
                                                  ./build/obj/rt_test_sequence_011.o (symbol from plugin)
                                                  ./build/obj/rt_test_sequence_010.o (symbol from plugin)
                                                  ./build/obj/rt_test_sequence_008.o (symbol from plugin)
                                                  ./build/obj/rt_test_sequence_007.o (symbol from plugin)
                                                  ./build/obj/rt_test_sequence_006.o (symbol from plugin)
                                                  ./build/obj/rt_test_sequence_005.o (symbol from plugin)
                                                  ./build/obj/rt_test_sequence_004.o (symbol from plugin)
                                                  ./build/obj/rt_test_sequence_003.o (symbol from plugin)
                                                  ./build/obj/rt_test_sequence_002.o (symbol from plugin)
__test_assert_sequence                            ./build/obj/ch_test.o (symbol from plugin)
                                                  ./build/obj/oslib_test_sequence_006.o (symbol from plugin)
                                                  ./build/obj/oslib_test_sequence_005.o (symbol from plugin)
                                                  ./build/obj/oslib_test_sequence_004.o (symbol from plugin)
                                                  ./build/obj/oslib_test_sequence_002.o (symbol from plugin)
                                                  ./build/obj/rt_test_sequence_011.o (symbol from plugin)
                                                  ./build/obj/rt_test_sequence_010.o (symbol from plugin)
                                                  ./build/obj/rt_test_sequence_009.o (symbol from plugin)
                                                  ./build/obj/rt_test_sequence_008.o (symbol from plugin)
                                                  ./build/obj/rt_test_sequence_007.o (symbol from plugin)
                                                  ./build/obj/rt_test_sequence_005.o (symbol from plugin)
__test_assert_time_window                         ./build/obj/ch_test.o (symbol from plugin)
                                                  ./build/obj/rt_test_sequence_010.o (symbol from plugin)
                                                  ./build/obj/rt_test_sequence_007.o (symbol from plugin)
                                                  ./build/obj/rt_test_sequence_006.o (symbol from plugin)
                                                  ./build/obj/rt_test_sequence_005.o (symbol from plugin)
__test_fail                                       ./build/obj/ch_test.o (symbol from plugin)
__text_base__                                     C:\Users\Ridwane\AppData\Local\Temp\ccbHz2Im.ltrans1.ltrans.o
                                                  ./build/obj/ch_test.o (symbol from plugin)
__text_end__                                      C:\Users\Ridwane\AppData\Local\Temp\ccbHz2Im.ltrans1.ltrans.o
                                                  ./build/obj/ch_test.o (symbol from plugin)
__textdata_base__                                 ./build/obj/crt0_v7m.o
__thd_object_init                                 ./build/obj/chthreads.o (symbol from plugin)
                                                  ./build/obj/chinstances.o (symbol from plugin)
_close                                            c:/chibistudio/tools/gnu tools arm embedded/11.3 2022.08/bin/../lib/gcc/arm-none-eabi/11.3.1/thumb/v7e-m/nofp\libg.a(libc_a-closer.o)
_close_r                                          c:/chibistudio/tools/gnu tools arm embedded/11.3 2022.08/bin/../lib/gcc/arm-none-eabi/11.3.1/thumb/v7e-m/nofp\libg.a(libc_a-closer.o)
                                                  c:/chibistudio/tools/gnu tools arm embedded/11.3 2022.08/bin/../lib/gcc/arm-none-eabi/11.3.1/thumb/v7e-m/nofp\libg.a(libc_a-stdio.o)
_crt0_entry                                       ./build/obj/crt0_v7m.o
                                                  ./build/obj/vectors.o
_ctl.lto_priv.0                                   C:\Users\Ridwane\AppData\Local\Temp\ccbHz2Im.ltrans0.ltrans.o
                                                  C:\Users\Ridwane\AppData\Local\Temp\ccbHz2Im.ltrans1.ltrans.o
_fclose_r                                         c:/chibistudio/tools/gnu tools arm embedded/11.3 2022.08/bin/../lib/gcc/arm-none-eabi/11.3.1/thumb/v7e-m/nofp\libg.a(libc_a-fclose.o)
                                                  c:/chibistudio/tools/gnu tools arm embedded/11.3 2022.08/bin/../lib/gcc/arm-none-eabi/11.3.1/thumb/v7e-m/nofp\libg.a(libc_a-findfp.o)
_fflush_r                                         c:/chibistudio/tools/gnu tools arm embedded/11.3 2022.08/bin/../lib/gcc/arm-none-eabi/11.3.1/thumb/v7e-m/nofp\libg.a(libc_a-fflush.o)
_free_r                                           c:/chibistudio/tools/gnu tools arm embedded/11.3 2022.08/bin/../lib/gcc/arm-none-eabi/11.3.1/thumb/v7e-m/nofp\libg.a(libc_a-freer.o)
                                                  c:/chibistudio/tools/gnu tools arm embedded/11.3 2022.08/bin/../lib/gcc/arm-none-eabi/11.3.1/thumb/v7e-m/nofp\libg.a(libc_a-fflush.o)
                                                  c:/chibistudio/tools/gnu tools arm embedded/11.3 2022.08/bin/../lib/gcc/arm-none-eabi/11.3.1/thumb/v7e-m/nofp\libg.a(libc_a-fclose.o)
                                                  c:/chibistudio/tools/gnu tools arm embedded/11.3 2022.08/bin/../lib/gcc/arm-none-eabi/11.3.1/thumb/v7e-m/nofp\libg.a(libc_a-reent.o)
                                                  c:/chibistudio/tools/gnu tools arm embedded/11.3 2022.08/bin/../lib/gcc/arm-none-eabi/11.3.1/thumb/v7e-m/nofp\libg.a(libc_a-mallocr.o)
                                                  c:/chibistudio/tools/gnu tools arm embedded/11.3 2022.08/bin/../lib/gcc/arm-none-eabi/11.3.1/thumb/v7e-m/nofp\libg.a(libc_a-malloc.o)
_fwalk_sglue                                      c:/chibistudio/tools/gnu tools arm embedded/11.3 2022.08/bin/../lib/gcc/arm-none-eabi/11.3.1/thumb/v7e-m/nofp\libg.a(libc_a-fwalk.o)
                                                  c:/chibistudio/tools/gnu tools arm embedded/11.3 2022.08/bin/../lib/gcc/arm-none-eabi/11.3.1/thumb/v7e-m/nofp\libg.a(libc_a-fflush.o)
                                                  c:/chibistudio/tools/gnu tools arm embedded/11.3 2022.08/bin/../lib/gcc/arm-none-eabi/11.3.1/thumb/v7e-m/nofp\libg.a(libc_a-findfp.o)
_get.lto_priv.0                                   C:\Users\Ridwane\AppData\Local\Temp\ccbHz2Im.ltrans0.ltrans.o
                                                  C:\Users\Ridwane\AppData\Local\Temp\ccbHz2Im.ltrans1.ltrans.o
_gett.lto_priv.0                                  C:\Users\Ridwane\AppData\Local\Temp\ccbHz2Im.ltrans0.ltrans.o
                                                  C:\Users\Ridwane\AppData\Local\Temp\ccbHz2Im.ltrans1.ltrans.o
_impure_data                                      c:/chibistudio/tools/gnu tools arm embedded/11.3 2022.08/bin/../lib/gcc/arm-none-eabi/11.3.1/thumb/v7e-m/nofp\libg.a(libc_a-impure.o)
                                                  c:/chibistudio/tools/gnu tools arm embedded/11.3 2022.08/bin/../lib/gcc/arm-none-eabi/11.3.1/thumb/v7e-m/nofp\libg.a(libc_a-fflush.o)
                                                  c:/chibistudio/tools/gnu tools arm embedded/11.3 2022.08/bin/../lib/gcc/arm-none-eabi/11.3.1/thumb/v7e-m/nofp\libg.a(libc_a-findfp.o)
_impure_ptr                                       c:/chibistudio/tools/gnu tools arm embedded/11.3 2022.08/bin/../lib/gcc/arm-none-eabi/11.3.1/thumb/v7e-m/nofp\libg.a(libc_a-impure.o)
                                                  c:/chibistudio/tools/gnu tools arm embedded/11.3 2022.08/bin/../lib/gcc/arm-none-eabi/11.3.1/thumb/v7e-m/nofp\libg.a(libc_a-fflush.o)
                                                  c:/chibistudio/tools/gnu tools arm embedded/11.3 2022.08/bin/../lib/gcc/arm-none-eabi/11.3.1/thumb/v7e-m/nofp\libg.a(libc_a-fclose.o)
                                                  c:/chibistudio/tools/gnu tools arm embedded/11.3 2022.08/bin/../lib/gcc/arm-none-eabi/11.3.1/thumb/v7e-m/nofp\libg.a(libc_a-reent.o)
                                                  c:/chibistudio/tools/gnu tools arm embedded/11.3 2022.08/bin/../lib/gcc/arm-none-eabi/11.3.1/thumb/v7e-m/nofp\libg.a(libc_a-malloc.o)
_lseek                                            c:/chibistudio/tools/gnu tools arm embedded/11.3 2022.08/bin/../lib/gcc/arm-none-eabi/11.3.1/thumb/v7e-m/nofp\libg.a(libc_a-lseekr.o)
_lseek_r                                          c:/chibistudio/tools/gnu tools arm embedded/11.3 2022.08/bin/../lib/gcc/arm-none-eabi/11.3.1/thumb/v7e-m/nofp\libg.a(libc_a-lseekr.o)
                                                  c:/chibistudio/tools/gnu tools arm embedded/11.3 2022.08/bin/../lib/gcc/arm-none-eabi/11.3.1/thumb/v7e-m/nofp\libg.a(libc_a-stdio.o)
_malloc_r                                         c:/chibistudio/tools/gnu tools arm embedded/11.3 2022.08/bin/../lib/gcc/arm-none-eabi/11.3.1/thumb/v7e-m/nofp\libg.a(libc_a-mallocr.o)
                                                  c:/chibistudio/tools/gnu tools arm embedded/11.3 2022.08/bin/../lib/gcc/arm-none-eabi/11.3.1/thumb/v7e-m/nofp\libg.a(libc_a-findfp.o)
                                                  c:/chibistudio/tools/gnu tools arm embedded/11.3 2022.08/bin/../lib/gcc/arm-none-eabi/11.3.1/thumb/v7e-m/nofp\libg.a(libc_a-malloc.o)
_malloc_trim_r                                    c:/chibistudio/tools/gnu tools arm embedded/11.3 2022.08/bin/../lib/gcc/arm-none-eabi/11.3.1/thumb/v7e-m/nofp\libg.a(libc_a-freer.o)
_pal_lld_init                                     ./build/obj/hal_pal_lld.o (symbol from plugin)
                                                  ./build/obj/hal.o (symbol from plugin)
_pal_lld_setgroupmode                             ./build/obj/hal_pal_lld.o (symbol from plugin)
                                                  ./build/obj/main.o (symbol from plugin)
                                                  ./build/obj/hal_pal.o (symbol from plugin)
_put.lto_priv.0                                   C:\Users\Ridwane\AppData\Local\Temp\ccbHz2Im.ltrans0.ltrans.o
                                                  C:\Users\Ridwane\AppData\Local\Temp\ccbHz2Im.ltrans1.ltrans.o
_putt.lto_priv.0                                  C:\Users\Ridwane\AppData\Local\Temp\ccbHz2Im.ltrans0.ltrans.o
                                                  C:\Users\Ridwane\AppData\Local\Temp\ccbHz2Im.ltrans1.ltrans.o
_read                                             c:/chibistudio/tools/gnu tools arm embedded/11.3 2022.08/bin/../lib/gcc/arm-none-eabi/11.3.1/thumb/v7e-m/nofp\libg.a(libc_a-readr.o)
_read.lto_priv.0                                  C:\Users\Ridwane\AppData\Local\Temp\ccbHz2Im.ltrans0.ltrans.o
                                                  C:\Users\Ridwane\AppData\Local\Temp\ccbHz2Im.ltrans1.ltrans.o
_read_r                                           c:/chibistudio/tools/gnu tools arm embedded/11.3 2022.08/bin/../lib/gcc/arm-none-eabi/11.3.1/thumb/v7e-m/nofp\libg.a(libc_a-readr.o)
                                                  c:/chibistudio/tools/gnu tools arm embedded/11.3 2022.08/bin/../lib/gcc/arm-none-eabi/11.3.1/thumb/v7e-m/nofp\libg.a(libc_a-stdio.o)
_readt.lto_priv.0                                 C:\Users\Ridwane\AppData\Local\Temp\ccbHz2Im.ltrans0.ltrans.o
                                                  C:\Users\Ridwane\AppData\Local\Temp\ccbHz2Im.ltrans1.ltrans.o
_reclaim_reent                                    c:/chibistudio/tools/gnu tools arm embedded/11.3 2022.08/bin/../lib/gcc/arm-none-eabi/11.3.1/thumb/v7e-m/nofp\libg.a(libc_a-reent.o)
_sbrk                                             c:/chibistudio/tools/gnu tools arm embedded/11.3 2022.08/bin/../lib/gcc/arm-none-eabi/11.3.1/thumb/v7e-m/nofp\libg.a(libc_a-sbrkr.o)
_sbrk_r                                           c:/chibistudio/tools/gnu tools arm embedded/11.3 2022.08/bin/../lib/gcc/arm-none-eabi/11.3.1/thumb/v7e-m/nofp\libg.a(libc_a-sbrkr.o)
                                                  c:/chibistudio/tools/gnu tools arm embedded/11.3 2022.08/bin/../lib/gcc/arm-none-eabi/11.3.1/thumb/v7e-m/nofp\libg.a(libc_a-freer.o)
                                                  c:/chibistudio/tools/gnu tools arm embedded/11.3 2022.08/bin/../lib/gcc/arm-none-eabi/11.3.1/thumb/v7e-m/nofp\libg.a(libc_a-mallocr.o)
_unhandled_exception                              ./build/obj/vectors.o
_vectors                                          ./build/obj/vectors.o
                                                  ./build/obj/crt0_v7m.o
_write                                            c:/chibistudio/tools/gnu tools arm embedded/11.3 2022.08/bin/../lib/gcc/arm-none-eabi/11.3.1/thumb/v7e-m/nofp\libg.a(libc_a-writer.o)
_write.lto_priv.0                                 C:\Users\Ridwane\AppData\Local\Temp\ccbHz2Im.ltrans0.ltrans.o
                                                  C:\Users\Ridwane\AppData\Local\Temp\ccbHz2Im.ltrans1.ltrans.o
_write_r                                          c:/chibistudio/tools/gnu tools arm embedded/11.3 2022.08/bin/../lib/gcc/arm-none-eabi/11.3.1/thumb/v7e-m/nofp\libg.a(libc_a-writer.o)
                                                  c:/chibistudio/tools/gnu tools arm embedded/11.3 2022.08/bin/../lib/gcc/arm-none-eabi/11.3.1/thumb/v7e-m/nofp\libg.a(libc_a-stdio.o)
_writet.lto_priv.0                                C:\Users\Ridwane\AppData\Local\Temp\ccbHz2Im.ltrans0.ltrans.o
                                                  C:\Users\Ridwane\AppData\Local\Temp\ccbHz2Im.ltrans1.ltrans.o
board.c.3d76e6d8                                  C:\Users\Ridwane\AppData\Local\Temp\cc2CpRey.debug.temp.o
                                                  C:\Users\Ridwane\AppData\Local\Temp\ccbHz2Im.ltrans0.ltrans.o
boardInit                                         ./build/obj/board.o (symbol from plugin)
                                                  ./build/obj/hal.o (symbol from plugin)
bsIncomingDataI                                   ./build/obj/hal_buffered_serial.o (symbol from plugin)
bsRequestDataI                                    ./build/obj/hal_buffered_serial.o (symbol from plugin)
cache1.lto_priv.0                                 C:\Users\Ridwane\AppData\Local\Temp\ccbHz2Im.ltrans0.ltrans.o
                                                  C:\Users\Ridwane\AppData\Local\Temp\ccbHz2Im.ltrans1.ltrans.o
ch0                                               C:\Users\Ridwane\AppData\Local\Temp\ccbHz2Im.ltrans0.ltrans.o
                                                  ./build/obj/chsys.o (symbol from plugin)
                                                  C:\Users\Ridwane\AppData\Local\Temp\ccbHz2Im.ltrans1.ltrans.o
                                                  ./build/obj/main.o (symbol from plugin)
                                                  ./build/obj/oslib_test_sequence_005.o (symbol from plugin)
                                                  ./build/obj/oslib_test_sequence_004.o (symbol from plugin)
                                                  ./build/obj/rt_test_sequence_012.o (symbol from plugin)
                                                  ./build/obj/rt_test_sequence_011.o (symbol from plugin)
                                                  ./build/obj/rt_test_sequence_010.o (symbol from plugin)
                                                  ./build/obj/rt_test_sequence_009.o (symbol from plugin)
                                                  ./build/obj/rt_test_sequence_008.o (symbol from plugin)
                                                  ./build/obj/rt_test_sequence_007.o (symbol from plugin)
                                                  ./build/obj/rt_test_sequence_006.o (symbol from plugin)
                                                  ./build/obj/rt_test_sequence_005.o (symbol from plugin)
                                                  ./build/obj/chmsg.o (symbol from plugin)
                                                  ./build/obj/chevents.o (symbol from plugin)
                                                  ./build/obj/chcond.o (symbol from plugin)
                                                  ./build/obj/chmtx.o (symbol from plugin)
                                                  ./build/obj/chsem.o (symbol from plugin)
                                                  ./build/obj/chregistry.o (symbol from plugin)
                                                  ./build/obj/chthreads.o (symbol from plugin)
                                                  ./build/obj/chschd.o (symbol from plugin)
                                                  ./build/obj/chvt.o (symbol from plugin)
                                                  ./build/obj/chrfcu.o (symbol from plugin)
chCacheGetObject                                  ./build/obj/chobjcaches.o (symbol from plugin)
                                                  ./build/obj/oslib_test_sequence_006.o (symbol from plugin)
chCacheGetObject.constprop.0                      C:\Users\Ridwane\AppData\Local\Temp\ccbHz2Im.ltrans1.ltrans.o
                                                  C:\Users\Ridwane\AppData\Local\Temp\ccbHz2Im.ltrans0.ltrans.o
chCacheObjectInit                                 ./build/obj/chobjcaches.o (symbol from plugin)
                                                  ./build/obj/oslib_test_sequence_006.o (symbol from plugin)
chCacheReadObject                                 ./build/obj/chobjcaches.o (symbol from plugin)
                                                  ./build/obj/oslib_test_sequence_006.o (symbol from plugin)
chCacheReleaseObjectI                             ./build/obj/chobjcaches.o (symbol from plugin)
                                                  ./build/obj/oslib_test_sequence_006.o (symbol from plugin)
chCacheWriteObject                                ./build/obj/chobjcaches.o (symbol from plugin)
chCondBroadcast                                   ./build/obj/chcond.o (symbol from plugin)
                                                  ./build/obj/rt_test_sequence_008.o (symbol from plugin)
chCondBroadcastI                                  ./build/obj/chcond.o (symbol from plugin)
chCondObjectInit                                  ./build/obj/chcond.o (symbol from plugin)
                                                  ./build/obj/rt_test_sequence_008.o (symbol from plugin)
chCondSignal                                      ./build/obj/chcond.o (symbol from plugin)
                                                  ./build/obj/rt_test_sequence_008.o (symbol from plugin)
chCondSignalI                                     ./build/obj/chcond.o (symbol from plugin)
                                                  ./build/obj/rt_test_sequence_008.o (symbol from plugin)
chCondWait                                        ./build/obj/chcond.o (symbol from plugin)
                                                  ./build/obj/rt_test_sequence_008.o (symbol from plugin)
chCondWaitS                                       ./build/obj/chcond.o (symbol from plugin)
chCondWaitTimeout                                 ./build/obj/chcond.o (symbol from plugin)
                                                  ./build/obj/rt_test_sequence_008.o (symbol from plugin)
chCondWaitTimeoutS                                ./build/obj/chcond.o (symbol from plugin)
chCoreAllocAlignedI.lto_priv.0                    C:\Users\Ridwane\AppData\Local\Temp\ccbHz2Im.ltrans0.ltrans.o
                                                  C:\Users\Ridwane\AppData\Local\Temp\ccbHz2Im.ltrans1.ltrans.o
chCoreAllocFromBase                               ./build/obj/chmemcore.o (symbol from plugin)
chCoreAllocFromBaseI                              ./build/obj/chmemcore.o (symbol from plugin)
chCoreAllocFromTop                                C:\Users\Ridwane\AppData\Local\Temp\ccbHz2Im.ltrans0.ltrans.o
                                                  ./build/obj/chmemcore.o (symbol from plugin)
                                                  C:\Users\Ridwane\AppData\Local\Temp\ccbHz2Im.ltrans1.ltrans.o
                                                  ./build/obj/chmemheaps.o (symbol from plugin)
chCoreAllocFromTopI                               ./build/obj/chmemcore.o (symbol from plugin)
                                                  ./build/obj/chfactory.o (symbol from plugin)
chCoreGetStatusX                                  ./build/obj/chmemcore.o (symbol from plugin)
chDelegateCallVeneer                              ./build/obj/chdelegates.o (symbol from plugin)
                                                  ./build/obj/oslib_test_sequence_005.o (symbol from plugin)
chDelegateDispatch                                ./build/obj/chdelegates.o (symbol from plugin)
                                                  ./build/obj/oslib_test_sequence_005.o (symbol from plugin)
chDelegateDispatchTimeout                         ./build/obj/chdelegates.o (symbol from plugin)
chEvtAddEvents                                    ./build/obj/chevents.o (symbol from plugin)
                                                  ./build/obj/rt_test_sequence_010.o (symbol from plugin)
chEvtBroadcastFlags                               ./build/obj/chevents.o (symbol from plugin)
                                                  ./build/obj/rt_test_sequence_010.o (symbol from plugin)
chEvtBroadcastFlagsI                              ./build/obj/chevents.o (symbol from plugin)
                                                  ./build/obj/hal_serial_lld.o (symbol from plugin)
                                                  ./build/obj/hal_serial.o (symbol from plugin)
                                                  ./build/obj/hal_buffered_serial.o (symbol from plugin)
chEvtDispatch                                     ./build/obj/chevents.o (symbol from plugin)
                                                  ./build/obj/rt_test_sequence_010.o (symbol from plugin)
chEvtGetAndClearEvents                            ./build/obj/chevents.o (symbol from plugin)
                                                  ./build/obj/rt_test_sequence_010.o (symbol from plugin)
chEvtGetAndClearEventsI                           ./build/obj/chevents.o (symbol from plugin)
chEvtGetAndClearFlags                             ./build/obj/chevents.o (symbol from plugin)
chEvtGetAndClearFlagsI                            ./build/obj/chevents.o (symbol from plugin)
chEvtRegisterMaskWithFlags                        ./build/obj/chevents.o (symbol from plugin)
                                                  ./build/obj/rt_test_sequence_010.o (symbol from plugin)
chEvtRegisterMaskWithFlagsI                       ./build/obj/chevents.o (symbol from plugin)
chEvtSignal                                       ./build/obj/chevents.o (symbol from plugin)
                                                  ./build/obj/rt_test_sequence_010.o (symbol from plugin)
chEvtSignalI                                      ./build/obj/chevents.o (symbol from plugin)
chEvtUnregister                                   ./build/obj/chevents.o (symbol from plugin)
                                                  ./build/obj/rt_test_sequence_010.o (symbol from plugin)
chEvtWaitAll                                      ./build/obj/chevents.o (symbol from plugin)
                                                  ./build/obj/rt_test_sequence_010.o (symbol from plugin)
chEvtWaitAllTimeout                               ./build/obj/chevents.o (symbol from plugin)
                                                  ./build/obj/rt_test_sequence_010.o (symbol from plugin)
chEvtWaitAny                                      ./build/obj/chevents.o (symbol from plugin)
                                                  ./build/obj/rt_test_sequence_010.o (symbol from plugin)
chEvtWaitAnyTimeout                               ./build/obj/chevents.o (symbol from plugin)
                                                  ./build/obj/rt_test_sequence_010.o (symbol from plugin)
chEvtWaitOne                                      ./build/obj/chevents.o (symbol from plugin)
                                                  ./build/obj/rt_test_sequence_010.o (symbol from plugin)
chEvtWaitOne.constprop.0                          C:\Users\Ridwane\AppData\Local\Temp\ccbHz2Im.ltrans1.ltrans.o
                                                  C:\Users\Ridwane\AppData\Local\Temp\ccbHz2Im.ltrans0.ltrans.o
chEvtWaitOneTimeout                               ./build/obj/chevents.o (symbol from plugin)
                                                  ./build/obj/rt_test_sequence_010.o (symbol from plugin)
chFactoryCreateBuffer                             ./build/obj/chfactory.o (symbol from plugin)
                                                  ./build/obj/oslib_test_sequence_009.o (symbol from plugin)
chFactoryCreateMailbox                            ./build/obj/chfactory.o (symbol from plugin)
                                                  ./build/obj/oslib_test_sequence_009.o (symbol from plugin)
chFactoryCreateObjectsFIFO                        ./build/obj/chfactory.o (symbol from plugin)
                                                  ./build/obj/oslib_test_sequence_009.o (symbol from plugin)
chFactoryCreatePipe                               ./build/obj/chfactory.o (symbol from plugin)
                                                  ./build/obj/oslib_test_sequence_009.o (symbol from plugin)
chFactoryCreateSemaphore                          ./build/obj/chfactory.o (symbol from plugin)
                                                  ./build/obj/oslib_test_sequence_009.o (symbol from plugin)
chFactoryFindBuffer                               ./build/obj/chfactory.o (symbol from plugin)
                                                  ./build/obj/oslib_test_sequence_009.o (symbol from plugin)
chFactoryFindMailbox                              ./build/obj/chfactory.o (symbol from plugin)
                                                  ./build/obj/oslib_test_sequence_009.o (symbol from plugin)
chFactoryFindObject                               ./build/obj/chfactory.o (symbol from plugin)
                                                  ./build/obj/oslib_test_sequence_009.o (symbol from plugin)
chFactoryFindObjectByPointer                      ./build/obj/chfactory.o (symbol from plugin)
chFactoryFindObjectsFIFO                          ./build/obj/chfactory.o (symbol from plugin)
                                                  ./build/obj/oslib_test_sequence_009.o (symbol from plugin)
chFactoryFindPipe                                 ./build/obj/chfactory.o (symbol from plugin)
                                                  ./build/obj/oslib_test_sequence_009.o (symbol from plugin)
chFactoryFindSemaphore                            ./build/obj/chfactory.o (symbol from plugin)
                                                  ./build/obj/oslib_test_sequence_009.o (symbol from plugin)
chFactoryRegisterObject                           ./build/obj/chfactory.o (symbol from plugin)
                                                  ./build/obj/oslib_test_sequence_009.o (symbol from plugin)
chFactoryReleaseBuffer                            C:\Users\Ridwane\AppData\Local\Temp\ccbHz2Im.ltrans0.ltrans.o
                                                  ./build/obj/chfactory.o (symbol from plugin)
                                                  C:\Users\Ridwane\AppData\Local\Temp\ccbHz2Im.ltrans1.ltrans.o
                                                  ./build/obj/oslib_test_sequence_009.o (symbol from plugin)
chFactoryReleaseMailbox                           C:\Users\Ridwane\AppData\Local\Temp\ccbHz2Im.ltrans0.ltrans.o
                                                  ./build/obj/chfactory.o (symbol from plugin)
                                                  C:\Users\Ridwane\AppData\Local\Temp\ccbHz2Im.ltrans1.ltrans.o
                                                  ./build/obj/oslib_test_sequence_009.o (symbol from plugin)
chFactoryReleaseObject                            C:\Users\Ridwane\AppData\Local\Temp\ccbHz2Im.ltrans0.ltrans.o
                                                  ./build/obj/chfactory.o (symbol from plugin)
                                                  C:\Users\Ridwane\AppData\Local\Temp\ccbHz2Im.ltrans1.ltrans.o
                                                  ./build/obj/oslib_test_sequence_009.o (symbol from plugin)
chFactoryReleaseObjectsFIFO                       C:\Users\Ridwane\AppData\Local\Temp\ccbHz2Im.ltrans0.ltrans.o
                                                  ./build/obj/chfactory.o (symbol from plugin)
                                                  C:\Users\Ridwane\AppData\Local\Temp\ccbHz2Im.ltrans1.ltrans.o
                                                  ./build/obj/oslib_test_sequence_009.o (symbol from plugin)
chFactoryReleasePipe                              C:\Users\Ridwane\AppData\Local\Temp\ccbHz2Im.ltrans0.ltrans.o
                                                  ./build/obj/chfactory.o (symbol from plugin)
                                                  C:\Users\Ridwane\AppData\Local\Temp\ccbHz2Im.ltrans1.ltrans.o
                                                  ./build/obj/oslib_test_sequence_009.o (symbol from plugin)
chFactoryReleaseSemaphore                         C:\Users\Ridwane\AppData\Local\Temp\ccbHz2Im.ltrans0.ltrans.o
                                                  ./build/obj/chfactory.o (symbol from plugin)
                                                  C:\Users\Ridwane\AppData\Local\Temp\ccbHz2Im.ltrans1.ltrans.o
                                                  ./build/obj/oslib_test_sequence_009.o (symbol from plugin)
chGuardedPoolAllocTimeout                         ./build/obj/chmempools.o (symbol from plugin)
                                                  ./build/obj/oslib_test_sequence_007.o (symbol from plugin)
                                                  ./build/obj/oslib_test_sequence_004.o (symbol from plugin)
chGuardedPoolAllocTimeoutS                        ./build/obj/chmempools.o (symbol from plugin)
chGuardedPoolFree                                 ./build/obj/chmempools.o (symbol from plugin)
                                                  ./build/obj/oslib_test_sequence_007.o (symbol from plugin)
                                                  ./build/obj/oslib_test_sequence_004.o (symbol from plugin)
chGuardedPoolLoadArray                            ./build/obj/chmempools.o (symbol from plugin)
                                                  ./build/obj/oslib_test_sequence_007.o (symbol from plugin)
                                                  ./build/obj/oslib_test_sequence_004.o (symbol from plugin)
                                                  ./build/obj/chfactory.o (symbol from plugin)
chGuardedPoolObjectInitAligned                    ./build/obj/chmempools.o (symbol from plugin)
                                                  ./build/obj/oslib_test_sequence_007.o (symbol from plugin)
                                                  ./build/obj/oslib_test_sequence_004.o (symbol from plugin)
                                                  ./build/obj/chfactory.o (symbol from plugin)
chHeapAllocAligned                                C:\Users\Ridwane\AppData\Local\Temp\ccbHz2Im.ltrans0.ltrans.o
                                                  ./build/obj/chmemheaps.o (symbol from plugin)
                                                  C:\Users\Ridwane\AppData\Local\Temp\ccbHz2Im.ltrans1.ltrans.o
                                                  ./build/obj/oslib_test_sequence_008.o (symbol from plugin)
                                                  ./build/obj/chfactory.o (symbol from plugin)
                                                  ./build/obj/chdynamic.o (symbol from plugin)
chHeapFree                                        C:\Users\Ridwane\AppData\Local\Temp\ccbHz2Im.ltrans0.ltrans.o
                                                  ./build/obj/chmemheaps.o (symbol from plugin)
                                                  C:\Users\Ridwane\AppData\Local\Temp\ccbHz2Im.ltrans1.ltrans.o
                                                  ./build/obj/oslib_test_sequence_008.o (symbol from plugin)
                                                  ./build/obj/chfactory.o (symbol from plugin)
                                                  ./build/obj/chthreads.o (symbol from plugin)
chHeapObjectInit                                  ./build/obj/chmemheaps.o (symbol from plugin)
                                                  ./build/obj/oslib_test_sequence_008.o (symbol from plugin)
                                                  ./build/obj/rt_test_sequence_011.o (symbol from plugin)
chHeapStatus                                      C:\Users\Ridwane\AppData\Local\Temp\ccbHz2Im.ltrans0.ltrans.o
                                                  ./build/obj/chmemheaps.o (symbol from plugin)
                                                  ./build/obj/oslib_test_sequence_008.o (symbol from plugin)
                                                  ./build/obj/rt_test_sequence_011.o (symbol from plugin)
chInstanceObjectInit                              ./build/obj/chinstances.o (symbol from plugin)
                                                  ./build/obj/chsys.o (symbol from plugin)
chMBFetchI                                        ./build/obj/chmboxes.o (symbol from plugin)
                                                  ./build/obj/oslib_test_sequence_002.o (symbol from plugin)
chMBFetchTimeout                                  ./build/obj/chmboxes.o (symbol from plugin)
                                                  ./build/obj/oslib_test_sequence_004.o (symbol from plugin)
                                                  ./build/obj/oslib_test_sequence_002.o (symbol from plugin)
chMBFetchTimeoutS                                 ./build/obj/chmboxes.o (symbol from plugin)
chMBObjectInit                                    ./build/obj/chmboxes.o (symbol from plugin)
                                                  ./build/obj/oslib_test_sequence_004.o (symbol from plugin)
                                                  ./build/obj/oslib_test_sequence_002.o (symbol from plugin)
                                                  ./build/obj/chfactory.o (symbol from plugin)
chMBPostAheadI                                    ./build/obj/chmboxes.o (symbol from plugin)
                                                  ./build/obj/oslib_test_sequence_002.o (symbol from plugin)
chMBPostAheadI.constprop.0                        C:\Users\Ridwane\AppData\Local\Temp\ccbHz2Im.ltrans1.ltrans.o
                                                  C:\Users\Ridwane\AppData\Local\Temp\ccbHz2Im.ltrans0.ltrans.o
chMBPostAheadTimeout                              ./build/obj/chmboxes.o (symbol from plugin)
                                                  ./build/obj/oslib_test_sequence_002.o (symbol from plugin)
chMBPostAheadTimeout.constprop.0                  C:\Users\Ridwane\AppData\Local\Temp\ccbHz2Im.ltrans1.ltrans.o
                                                  C:\Users\Ridwane\AppData\Local\Temp\ccbHz2Im.ltrans0.ltrans.o
chMBPostAheadTimeoutS                             ./build/obj/chmboxes.o (symbol from plugin)
chMBPostI                                         ./build/obj/chmboxes.o (symbol from plugin)
                                                  ./build/obj/oslib_test_sequence_002.o (symbol from plugin)
chMBPostTimeout                                   ./build/obj/chmboxes.o (symbol from plugin)
                                                  ./build/obj/oslib_test_sequence_004.o (symbol from plugin)
                                                  ./build/obj/oslib_test_sequence_002.o (symbol from plugin)
chMBPostTimeoutS                                  ./build/obj/chmboxes.o (symbol from plugin)
chMBReset                                         ./build/obj/chmboxes.o (symbol from plugin)
                                                  ./build/obj/oslib_test_sequence_002.o (symbol from plugin)
chMBReset.constprop.0                             C:\Users\Ridwane\AppData\Local\Temp\ccbHz2Im.ltrans1.ltrans.o
                                                  C:\Users\Ridwane\AppData\Local\Temp\ccbHz2Im.ltrans0.ltrans.o
chMBResetI                                        ./build/obj/chmboxes.o (symbol from plugin)
                                                  ./build/obj/oslib_test_sequence_002.o (symbol from plugin)
chMsgPollS                                        ./build/obj/chmsg.o (symbol from plugin)
chMsgRelease                                      ./build/obj/chmsg.o (symbol from plugin)
                                                  ./build/obj/rt_test_sequence_012.o (symbol from plugin)
                                                  ./build/obj/rt_test_sequence_009.o (symbol from plugin)
                                                  ./build/obj/chdelegates.o (symbol from plugin)
chMsgSend                                         ./build/obj/chmsg.o (symbol from plugin)
                                                  ./build/obj/rt_test_sequence_012.o (symbol from plugin)
                                                  ./build/obj/rt_test_sequence_009.o (symbol from plugin)
                                                  ./build/obj/chdelegates.o (symbol from plugin)
chMsgWaitS                                        ./build/obj/chmsg.o (symbol from plugin)
                                                  ./build/obj/rt_test_sequence_012.o (symbol from plugin)
                                                  ./build/obj/rt_test_sequence_009.o (symbol from plugin)
                                                  ./build/obj/chdelegates.o (symbol from plugin)
chMsgWaitTimeoutS                                 ./build/obj/chmsg.o (symbol from plugin)
                                                  ./build/obj/chdelegates.o (symbol from plugin)
chMtxLock                                         ./build/obj/chmtx.o (symbol from plugin)
                                                  ./build/obj/rt_test_sequence_012.o (symbol from plugin)
                                                  ./build/obj/rt_test_sequence_008.o (symbol from plugin)
                                                  ./build/obj/chfactory.o (symbol from plugin)
                                                  ./build/obj/chpipes.o (symbol from plugin)
                                                  ./build/obj/chmemheaps.o (symbol from plugin)
chMtxLockS                                        C:\Users\Ridwane\AppData\Local\Temp\ccbHz2Im.ltrans0.ltrans.o
                                                  ./build/obj/chmtx.o (symbol from plugin)
                                                  C:\Users\Ridwane\AppData\Local\Temp\ccbHz2Im.ltrans1.ltrans.o
                                                  ./build/obj/rt_test_sequence_008.o (symbol from plugin)
                                                  ./build/obj/chcond.o (symbol from plugin)
chMtxObjectInit                                   ./build/obj/chmtx.o (symbol from plugin)
                                                  ./build/obj/rt_test_sequence_012.o (symbol from plugin)
                                                  ./build/obj/rt_test_sequence_008.o (symbol from plugin)
                                                  ./build/obj/chfactory.o (symbol from plugin)
                                                  ./build/obj/chpipes.o (symbol from plugin)
                                                  ./build/obj/chmemheaps.o (symbol from plugin)
chMtxTryLock                                      ./build/obj/chmtx.o (symbol from plugin)
                                                  ./build/obj/rt_test_sequence_008.o (symbol from plugin)
chMtxTryLockS                                     ./build/obj/chmtx.o (symbol from plugin)
chMtxUnlock                                       C:\Users\Ridwane\AppData\Local\Temp\ccbHz2Im.ltrans0.ltrans.o
                                                  ./build/obj/chmtx.o (symbol from plugin)
                                                  C:\Users\Ridwane\AppData\Local\Temp\ccbHz2Im.ltrans1.ltrans.o
                                                  ./build/obj/rt_test_sequence_012.o (symbol from plugin)
                                                  ./build/obj/rt_test_sequence_008.o (symbol from plugin)
                                                  ./build/obj/chfactory.o (symbol from plugin)
                                                  ./build/obj/chpipes.o (symbol from plugin)
                                                  ./build/obj/chmemheaps.o (symbol from plugin)
chMtxUnlockAll                                    ./build/obj/chmtx.o (symbol from plugin)
                                                  ./build/obj/rt_test_sequence_008.o (symbol from plugin)
chMtxUnlockAllS                                   ./build/obj/chmtx.o (symbol from plugin)
chMtxUnlockS                                      ./build/obj/chmtx.o (symbol from plugin)
                                                  ./build/obj/rt_test_sequence_008.o (symbol from plugin)
                                                  ./build/obj/chcond.o (symbol from plugin)
chPipeObjectInit                                  ./build/obj/chpipes.o (symbol from plugin)
                                                  ./build/obj/oslib_test_sequence_003.o (symbol from plugin)
                                                  ./build/obj/chfactory.o (symbol from plugin)
chPipeReadTimeout                                 ./build/obj/chpipes.o (symbol from plugin)
                                                  ./build/obj/oslib_test_sequence_003.o (symbol from plugin)
chPipeReadTimeout.part.0.constprop.0              C:\Users\Ridwane\AppData\Local\Temp\ccbHz2Im.ltrans1.ltrans.o
                                                  C:\Users\Ridwane\AppData\Local\Temp\ccbHz2Im.ltrans0.ltrans.o
chPipeReset                                       ./build/obj/chpipes.o (symbol from plugin)
                                                  ./build/obj/oslib_test_sequence_003.o (symbol from plugin)
chPipeWriteTimeout                                ./build/obj/chpipes.o (symbol from plugin)
                                                  ./build/obj/oslib_test_sequence_003.o (symbol from plugin)
chPipeWriteTimeout.part.0.constprop.0             C:\Users\Ridwane\AppData\Local\Temp\ccbHz2Im.ltrans1.ltrans.o
                                                  C:\Users\Ridwane\AppData\Local\Temp\ccbHz2Im.ltrans0.ltrans.o
chPoolAlloc                                       ./build/obj/chmempools.o (symbol from plugin)
                                                  ./build/obj/oslib_test_sequence_007.o (symbol from plugin)
                                                  ./build/obj/rt_test_sequence_011.o (symbol from plugin)
                                                  ./build/obj/chfactory.o (symbol from plugin)
                                                  ./build/obj/chdynamic.o (symbol from plugin)
chPoolAllocI                                      ./build/obj/chmempools.o (symbol from plugin)
chPoolFree                                        ./build/obj/chmempools.o (symbol from plugin)
                                                  ./build/obj/oslib_test_sequence_007.o (symbol from plugin)
                                                  ./build/obj/rt_test_sequence_011.o (symbol from plugin)
                                                  ./build/obj/chfactory.o (symbol from plugin)
                                                  ./build/obj/chthreads.o (symbol from plugin)
chPoolFreeI                                       ./build/obj/chmempools.o (symbol from plugin)
chPoolLoadArray                                   ./build/obj/chmempools.o (symbol from plugin)
                                                  ./build/obj/oslib_test_sequence_007.o (symbol from plugin)
chPoolObjectInitAligned                           ./build/obj/chmempools.o (symbol from plugin)
                                                  ./build/obj/oslib_test_sequence_007.o (symbol from plugin)
                                                  ./build/obj/rt_test_sequence_011.o (symbol from plugin)
                                                  ./build/obj/chfactory.o (symbol from plugin)
chRFCUCollectFaultsI                              ./build/obj/chrfcu.o (symbol from plugin)
                                                  ./build/obj/chvt.o (symbol from plugin)
chRFCUGetAndClearFaultsI                          ./build/obj/chrfcu.o (symbol from plugin)
chRegFindThreadByName                             ./build/obj/chregistry.o (symbol from plugin)
chRegFindThreadByPointer                          ./build/obj/chregistry.o (symbol from plugin)
chRegFindThreadByWorkingArea                      ./build/obj/chregistry.o (symbol from plugin)
chRegFirstThread                                  ./build/obj/chregistry.o (symbol from plugin)
chRegNextThread                                   ./build/obj/chregistry.o (symbol from plugin)
chSchDoPreemption                                 C:\Users\Ridwane\AppData\Local\Temp\ccbHz2Im.ltrans0.ltrans.o
                                                  ./build/obj/chschd.o (symbol from plugin)
                                                  ./build/obj/chcoreasm.o
chSchDoYieldS                                     ./build/obj/chschd.o (symbol from plugin)
                                                  ./build/obj/chthreads.o (symbol from plugin)
chSchGoSleepS                                     ./build/obj/chschd.o (symbol from plugin)
                                                  ./build/obj/rt_test_sequence_012.o (symbol from plugin)
                                                  ./build/obj/chmsg.o (symbol from plugin)
                                                  ./build/obj/chevents.o (symbol from plugin)
                                                  ./build/obj/chcond.o (symbol from plugin)
                                                  ./build/obj/chmtx.o (symbol from plugin)
                                                  ./build/obj/chsem.o (symbol from plugin)
                                                  ./build/obj/chthreads.o (symbol from plugin)
chSchGoSleepTimeoutS                              C:\Users\Ridwane\AppData\Local\Temp\ccbHz2Im.ltrans0.ltrans.o
                                                  ./build/obj/chschd.o (symbol from plugin)
                                                  C:\Users\Ridwane\AppData\Local\Temp\ccbHz2Im.ltrans1.ltrans.o
                                                  ./build/obj/chmsg.o (symbol from plugin)
                                                  ./build/obj/chevents.o (symbol from plugin)
                                                  ./build/obj/chcond.o (symbol from plugin)
                                                  ./build/obj/chsem.o (symbol from plugin)
                                                  ./build/obj/chthreads.o (symbol from plugin)
chSchIsPreemptionRequired                         ./build/obj/chschd.o (symbol from plugin)
                                                  ./build/obj/chcore.o (symbol from plugin)
chSchPreemption                                   ./build/obj/chschd.o (symbol from plugin)
chSchReadyI                                       ./build/obj/chschd.o (symbol from plugin)
                                                  ./build/obj/chmsg.o (symbol from plugin)
                                                  ./build/obj/chevents.o (symbol from plugin)
                                                  ./build/obj/chcond.o (symbol from plugin)
                                                  ./build/obj/chmtx.o (symbol from plugin)
                                                  ./build/obj/chsem.o (symbol from plugin)
                                                  ./build/obj/chthreads.o (symbol from plugin)
chSchRescheduleS                                  ./build/obj/chschd.o (symbol from plugin)
                                                  ./build/obj/oslib_test_sequence_006.o (symbol from plugin)
                                                  ./build/obj/rt_test_sequence_008.o (symbol from plugin)
                                                  ./build/obj/rt_test_sequence_007.o (symbol from plugin)
                                                  ./build/obj/rt_test_sequence_006.o (symbol from plugin)
                                                  ./build/obj/chpipes.o (symbol from plugin)
                                                  ./build/obj/chmempools.o (symbol from plugin)
                                                  ./build/obj/chmboxes.o (symbol from plugin)
                                                  ./build/obj/chevents.o (symbol from plugin)
                                                  ./build/obj/chcond.o (symbol from plugin)
                                                  ./build/obj/chmtx.o (symbol from plugin)
                                                  ./build/obj/chsem.o (symbol from plugin)
                                                  ./build/obj/chthreads.o (symbol from plugin)
                                                  ./build/obj/chsys.o (symbol from plugin)
                                                  ./build/obj/hal_serial.o (symbol from plugin)
chSchSelectFirst                                  ./build/obj/chschd.o (symbol from plugin)
chSchWakeupS                                      C:\Users\Ridwane\AppData\Local\Temp\ccbHz2Im.ltrans0.ltrans.o
                                                  ./build/obj/chschd.o (symbol from plugin)
                                                  C:\Users\Ridwane\AppData\Local\Temp\ccbHz2Im.ltrans1.ltrans.o
                                                  ./build/obj/rt_test_sequence_012.o (symbol from plugin)
                                                  ./build/obj/chdynamic.o (symbol from plugin)
                                                  ./build/obj/chmsg.o (symbol from plugin)
                                                  ./build/obj/chcond.o (symbol from plugin)
                                                  ./build/obj/chsem.o (symbol from plugin)
                                                  ./build/obj/chthreads.o (symbol from plugin)
chSemAddCounterI                                  ./build/obj/chsem.o (symbol from plugin)
                                                  ./build/obj/rt_test_sequence_007.o (symbol from plugin)
chSemObjectInit                                   ./build/obj/chsem.o (symbol from plugin)
                                                  ./build/obj/rt_test_sequence_012.o (symbol from plugin)
                                                  ./build/obj/rt_test_sequence_007.o (symbol from plugin)
                                                  ./build/obj/chfactory.o (symbol from plugin)
                                                  ./build/obj/chobjcaches.o (symbol from plugin)
                                                  ./build/obj/chmempools.o (symbol from plugin)
chSemResetWithMessage                             ./build/obj/chsem.o (symbol from plugin)
                                                  ./build/obj/rt_test_sequence_012.o (symbol from plugin)
                                                  ./build/obj/rt_test_sequence_007.o (symbol from plugin)
chSemResetWithMessage.constprop.0                 C:\Users\Ridwane\AppData\Local\Temp\ccbHz2Im.ltrans1.ltrans.o
                                                  C:\Users\Ridwane\AppData\Local\Temp\ccbHz2Im.ltrans0.ltrans.o
chSemResetWithMessageI                            ./build/obj/chsem.o (symbol from plugin)
chSemSignal                                       ./build/obj/chsem.o (symbol from plugin)
                                                  ./build/obj/rt_test_sequence_012.o (symbol from plugin)
                                                  ./build/obj/rt_test_sequence_007.o (symbol from plugin)
chSemSignalI                                      C:\Users\Ridwane\AppData\Local\Temp\ccbHz2Im.ltrans0.ltrans.o
                                                  ./build/obj/chsem.o (symbol from plugin)
                                                  ./build/obj/rt_test_sequence_007.o (symbol from plugin)
                                                  ./build/obj/chobjcaches.o (symbol from plugin)
                                                  ./build/obj/chmempools.o (symbol from plugin)
chSemSignalWait                                   ./build/obj/chsem.o (symbol from plugin)
                                                  ./build/obj/rt_test_sequence_007.o (symbol from plugin)
chSemSignalWait.constprop.0.isra.0                C:\Users\Ridwane\AppData\Local\Temp\ccbHz2Im.ltrans1.ltrans.o
                                                  C:\Users\Ridwane\AppData\Local\Temp\ccbHz2Im.ltrans0.ltrans.o
chSemWait                                         ./build/obj/chsem.o (symbol from plugin)
                                                  ./build/obj/rt_test_sequence_012.o (symbol from plugin)
                                                  ./build/obj/rt_test_sequence_007.o (symbol from plugin)
chSemWaitS                                        ./build/obj/chsem.o (symbol from plugin)
                                                  ./build/obj/chobjcaches.o (symbol from plugin)
chSemWaitTimeout                                  ./build/obj/chsem.o (symbol from plugin)
                                                  ./build/obj/rt_test_sequence_007.o (symbol from plugin)
chSemWaitTimeoutS                                 ./build/obj/chsem.o (symbol from plugin)
                                                  ./build/obj/chmempools.o (symbol from plugin)
chSysGetIdleThreadX                               ./build/obj/chsys.o (symbol from plugin)
chSysGetStatusAndLockX                            ./build/obj/chsys.o (symbol from plugin)
                                                  ./build/obj/rt_test_sequence_002.o (symbol from plugin)
chSysHalt                                         ./build/obj/chsys.o (symbol from plugin)
chSysInit                                         ./build/obj/chsys.o (symbol from plugin)
                                                  ./build/obj/main.o (symbol from plugin)
chSysIntegrityCheckI                              ./build/obj/chsys.o (symbol from plugin)
                                                  ./build/obj/rt_test_sequence_002.o (symbol from plugin)
chSysIsCounterWithinX                             ./build/obj/chsys.o (symbol from plugin)
chSysPolledDelayX                                 ./build/obj/chsys.o (symbol from plugin)
chSysRestoreStatusX                               ./build/obj/chsys.o (symbol from plugin)
                                                  ./build/obj/rt_test_sequence_002.o (symbol from plugin)
chSysTimerHandlerI                                ./build/obj/chsys.o (symbol from plugin)
                                                  ./build/obj/hal_st_lld.o (symbol from plugin)
chSysWaitSystemState                              ./build/obj/chsys.o (symbol from plugin)
chTMChainMeasurementToX                           ./build/obj/chtm.o (symbol from plugin)
chTMObjectInit                                    ./build/obj/chtm.o (symbol from plugin)
                                                  ./build/obj/chsys.o (symbol from plugin)
chTMStartMeasurementX                             C:\Users\Ridwane\AppData\Local\Temp\ccbHz2Im.ltrans0.ltrans.o
                                                  ./build/obj/chtm.o (symbol from plugin)
                                                  C:\Users\Ridwane\AppData\Local\Temp\ccbHz2Im.ltrans1.ltrans.o
                                                  ./build/obj/chsys.o (symbol from plugin)
chTMStopMeasurementX                              C:\Users\Ridwane\AppData\Local\Temp\ccbHz2Im.ltrans0.ltrans.o
                                                  ./build/obj/chtm.o (symbol from plugin)
                                                  C:\Users\Ridwane\AppData\Local\Temp\ccbHz2Im.ltrans1.ltrans.o
                                                  ./build/obj/chsys.o (symbol from plugin)
chThdAddRef                                       ./build/obj/chthreads.o (symbol from plugin)
chThdCreate                                       ./build/obj/chthreads.o (symbol from plugin)
                                                  ./build/obj/oslib_test_sequence_005.o (symbol from plugin)
                                                  ./build/obj/oslib_test_sequence_004.o (symbol from plugin)
chThdCreateFromHeap                               ./build/obj/chdynamic.o (symbol from plugin)
                                                  ./build/obj/rt_test_sequence_011.o (symbol from plugin)
chThdCreateFromHeap.constprop.0                   C:\Users\Ridwane\AppData\Local\Temp\ccbHz2Im.ltrans1.ltrans.o
                                                  C:\Users\Ridwane\AppData\Local\Temp\ccbHz2Im.ltrans0.ltrans.o
chThdCreateFromMemoryPool                         ./build/obj/chdynamic.o (symbol from plugin)
                                                  ./build/obj/rt_test_sequence_011.o (symbol from plugin)
chThdCreateFromMemoryPool.constprop.0             C:\Users\Ridwane\AppData\Local\Temp\ccbHz2Im.ltrans1.ltrans.o
                                                  C:\Users\Ridwane\AppData\Local\Temp\ccbHz2Im.ltrans0.ltrans.o
chThdCreateI                                      ./build/obj/chthreads.o (symbol from plugin)
                                                  ./build/obj/chinstances.o (symbol from plugin)
chThdCreateStatic                                 C:\Users\Ridwane\AppData\Local\Temp\ccbHz2Im.ltrans0.ltrans.o
                                                  ./build/obj/chthreads.o (symbol from plugin)
                                                  C:\Users\Ridwane\AppData\Local\Temp\ccbHz2Im.ltrans1.ltrans.o
                                                  ./build/obj/main.o (symbol from plugin)
                                                  ./build/obj/rt_test_sequence_012.o (symbol from plugin)
                                                  ./build/obj/rt_test_sequence_010.o (symbol from plugin)
                                                  ./build/obj/rt_test_sequence_009.o (symbol from plugin)
                                                  ./build/obj/rt_test_sequence_008.o (symbol from plugin)
                                                  ./build/obj/rt_test_sequence_007.o (symbol from plugin)
                                                  ./build/obj/rt_test_sequence_006.o (symbol from plugin)
                                                  ./build/obj/rt_test_sequence_005.o (symbol from plugin)
chThdCreateSuspended                              ./build/obj/chthreads.o (symbol from plugin)
chThdCreateSuspendedI                             C:\Users\Ridwane\AppData\Local\Temp\ccbHz2Im.ltrans0.ltrans.o
                                                  ./build/obj/chthreads.o (symbol from plugin)
                                                  C:\Users\Ridwane\AppData\Local\Temp\ccbHz2Im.ltrans1.ltrans.o
                                                  ./build/obj/chdynamic.o (symbol from plugin)
chThdDequeueAllI                                  ./build/obj/chthreads.o (symbol from plugin)
                                                  ./build/obj/chmboxes.o (symbol from plugin)
                                                  ./build/obj/hal_queues.o (symbol from plugin)
                                                  ./build/obj/hal_buffers.o (symbol from plugin)
chThdDequeueNextI                                 ./build/obj/chthreads.o (symbol from plugin)
                                                  ./build/obj/chmboxes.o (symbol from plugin)
                                                  ./build/obj/hal_queues.o (symbol from plugin)
                                                  ./build/obj/hal_buffers.o (symbol from plugin)
chThdEnqueueTimeoutS                              ./build/obj/chthreads.o (symbol from plugin)
                                                  ./build/obj/chmboxes.o (symbol from plugin)
                                                  ./build/obj/hal_queues.o (symbol from plugin)
                                                  ./build/obj/hal_buffers.o (symbol from plugin)
chThdExit                                         C:\Users\Ridwane\AppData\Local\Temp\ccbHz2Im.ltrans0.ltrans.o
                                                  ./build/obj/chthreads.o (symbol from plugin)
                                                  ./build/obj/oslib_test_sequence_005.o (symbol from plugin)
                                                  ./build/obj/rt_test_sequence_012.o (symbol from plugin)
                                                  ./build/obj/chcoreasm.o
chThdExitS                                        ./build/obj/chthreads.o (symbol from plugin)
chThdRelease                                      ./build/obj/chthreads.o (symbol from plugin)
                                                  ./build/obj/rt_test_sequence_012.o (symbol from plugin)
                                                  ./build/obj/chregistry.o (symbol from plugin)
chThdResume                                       ./build/obj/chthreads.o (symbol from plugin)
                                                  ./build/obj/chpipes.o (symbol from plugin)
chThdResumeI                                      ./build/obj/chthreads.o (symbol from plugin)
                                                  ./build/obj/rt_test_sequence_006.o (symbol from plugin)
                                                  ./build/obj/chpipes.o (symbol from plugin)
chThdResumeS                                      ./build/obj/chthreads.o (symbol from plugin)
chThdSetPriority                                  ./build/obj/chthreads.o (symbol from plugin)
                                                  ./build/obj/rt_test_sequence_005.o (symbol from plugin)
chThdSleep                                        ./build/obj/chthreads.o (symbol from plugin)
                                                  ./build/obj/main.o (symbol from plugin)
                                                  ./build/obj/oslib_test_sequence_004.o (symbol from plugin)
                                                  ./build/obj/rt_test_sequence_012.o (symbol from plugin)
                                                  ./build/obj/rt_test_sequence_010.o (symbol from plugin)
                                                  ./build/obj/rt_test_sequence_008.o (symbol from plugin)
                                                  ./build/obj/rt_test_sequence_007.o (symbol from plugin)
                                                  ./build/obj/rt_test_sequence_005.o (symbol from plugin)
                                                  ./build/obj/rt_test_sequence_002.o (symbol from plugin)
                                                  ./build/obj/rt_test_root.o (symbol from plugin)
                                                  ./build/obj/ch_test.o (symbol from plugin)
                                                  ./build/obj/hal_flash.o (symbol from plugin)
chThdSleepUntil                                   ./build/obj/chthreads.o (symbol from plugin)
                                                  ./build/obj/rt_test_sequence_005.o (symbol from plugin)
chThdSleepUntilWindowed                           ./build/obj/chthreads.o (symbol from plugin)
chThdStart                                        ./build/obj/chthreads.o (symbol from plugin)
chThdSuspendS                                     ./build/obj/chthreads.o (symbol from plugin)
chThdSuspendTimeoutS                              ./build/obj/chthreads.o (symbol from plugin)
                                                  ./build/obj/rt_test_sequence_006.o (symbol from plugin)
                                                  ./build/obj/chpipes.o (symbol from plugin)
chThdTerminate                                    ./build/obj/chthreads.o (symbol from plugin)
                                                  ./build/obj/rt_test_root.o (symbol from plugin)
chThdWait                                         ./build/obj/chthreads.o (symbol from plugin)
                                                  ./build/obj/oslib_test_sequence_005.o (symbol from plugin)
                                                  ./build/obj/oslib_test_sequence_004.o (symbol from plugin)
                                                  ./build/obj/rt_test_sequence_012.o (symbol from plugin)
                                                  ./build/obj/rt_test_root.o (symbol from plugin)
chThdYield                                        ./build/obj/chthreads.o (symbol from plugin)
                                                  ./build/obj/rt_test_sequence_012.o (symbol from plugin)
chVTDoResetI                                      C:\Users\Ridwane\AppData\Local\Temp\ccbHz2Im.ltrans0.ltrans.o
                                                  ./build/obj/chvt.o (symbol from plugin)
                                                  C:\Users\Ridwane\AppData\Local\Temp\ccbHz2Im.ltrans1.ltrans.o
                                                  ./build/obj/rt_test_sequence_012.o (symbol from plugin)
                                                  ./build/obj/rt_test_sequence_002.o (symbol from plugin)
                                                  ./build/obj/chschd.o (symbol from plugin)
chVTDoSetContinuousI                              ./build/obj/chvt.o (symbol from plugin)
chVTDoSetI                                        ./build/obj/chvt.o (symbol from plugin)
                                                  ./build/obj/rt_test_sequence_012.o (symbol from plugin)
                                                  ./build/obj/rt_test_sequence_002.o (symbol from plugin)
                                                  ./build/obj/chschd.o (symbol from plugin)
chVTDoTickI                                       ./build/obj/chvt.o (symbol from plugin)
                                                  ./build/obj/chsys.o (symbol from plugin)
chVTGetRemainingIntervalI                         ./build/obj/chvt.o (symbol from plugin)
chVTGetTimeStampI                                 ./build/obj/chvt.o (symbol from plugin)
                                                  ./build/obj/rt_test_sequence_004.o (symbol from plugin)
chVTResetTimeStampI                               ./build/obj/chvt.o (symbol from plugin)
ch_core0_cfg                                      ./build/obj/chsys.o (symbol from plugin)
ch_debug                                          ./build/obj/chregistry.o (symbol from plugin)
                                                  ./build/obj/chinstances.o (symbol from plugin)
ch_factory                                        C:\Users\Ridwane\AppData\Local\Temp\ccbHz2Im.ltrans0.ltrans.o
                                                  ./build/obj/chfactory.o (symbol from plugin)
                                                  C:\Users\Ridwane\AppData\Local\Temp\ccbHz2Im.ltrans1.ltrans.o
ch_memcore                                        C:\Users\Ridwane\AppData\Local\Temp\ccbHz2Im.ltrans0.ltrans.o
                                                  ./build/obj/chmemcore.o (symbol from plugin)
                                                  C:\Users\Ridwane\AppData\Local\Temp\ccbHz2Im.ltrans1.ltrans.o
ch_system                                         C:\Users\Ridwane\AppData\Local\Temp\ccbHz2Im.ltrans0.ltrans.o
                                                  ./build/obj/chsys.o (symbol from plugin)
                                                  C:\Users\Ridwane\AppData\Local\Temp\ccbHz2Im.ltrans1.ltrans.o
                                                  ./build/obj/chtm.o (symbol from plugin)
                                                  ./build/obj/chinstances.o (symbol from plugin)
ch_test.c.e409ad5d                                C:\Users\Ridwane\AppData\Local\Temp\ccVUGadN.debug.temp.o
                                                  C:\Users\Ridwane\AppData\Local\Temp\ccbHz2Im.ltrans1.ltrans.o
                                                  C:\Users\Ridwane\AppData\Local\Temp\ccbHz2Im.ltrans0.ltrans.o
ch_test_printf.c.72cbebc9                         C:\Users\Ridwane\AppData\Local\Temp\ccIYIyBe.debug.temp.o
                                                  C:\Users\Ridwane\AppData\Local\Temp\ccbHz2Im.ltrans1.ltrans.o
                                                  C:\Users\Ridwane\AppData\Local\Temp\ccbHz2Im.ltrans0.ltrans.o
chcond.c.21f5d023                                 C:\Users\Ridwane\AppData\Local\Temp\ccsPjFC0.debug.temp.o
                                                  C:\Users\Ridwane\AppData\Local\Temp\ccbHz2Im.ltrans0.ltrans.o
chcore.c.d0613f85                                 C:\Users\Ridwane\AppData\Local\Temp\cckD2VSl.debug.temp.o
                                                  C:\Users\Ridwane\AppData\Local\Temp\ccbHz2Im.ltrans1.ltrans.o
                                                  C:\Users\Ridwane\AppData\Local\Temp\ccbHz2Im.ltrans0.ltrans.o
chdebug.c.7fab8648                                C:\Users\Ridwane\AppData\Local\Temp\ccQmBUi7.debug.temp.o
chdelegates.c.a76d29ec                            C:\Users\Ridwane\AppData\Local\Temp\cc6c3pBt.debug.temp.o
                                                  C:\Users\Ridwane\AppData\Local\Temp\ccbHz2Im.ltrans0.ltrans.o
chdynamic.c.17c75475                              C:\Users\Ridwane\AppData\Local\Temp\ccPCHsMl.debug.temp.o
                                                  C:\Users\Ridwane\AppData\Local\Temp\ccbHz2Im.ltrans1.ltrans.o
chevents.c.39bea8e5                               C:\Users\Ridwane\AppData\Local\Temp\ccFgjHbs.debug.temp.o
                                                  C:\Users\Ridwane\AppData\Local\Temp\ccbHz2Im.ltrans1.ltrans.o
                                                  C:\Users\Ridwane\AppData\Local\Temp\ccbHz2Im.ltrans0.ltrans.o
chfactory.c.0fd8b717                              C:\Users\Ridwane\AppData\Local\Temp\cc7x8uMU.debug.temp.o
                                                  C:\Users\Ridwane\AppData\Local\Temp\ccbHz2Im.ltrans1.ltrans.o
                                                  C:\Users\Ridwane\AppData\Local\Temp\ccbHz2Im.ltrans0.ltrans.o
chinstances.c.1ffa5db6                            C:\Users\Ridwane\AppData\Local\Temp\ccSBDSDD.debug.temp.o
                                                  C:\Users\Ridwane\AppData\Local\Temp\ccbHz2Im.ltrans1.ltrans.o
                                                  C:\Users\Ridwane\AppData\Local\Temp\ccbHz2Im.ltrans0.ltrans.o
chmboxes.c.def0f90b                               C:\Users\Ridwane\AppData\Local\Temp\ccGk9zwN.debug.temp.o
                                                  C:\Users\Ridwane\AppData\Local\Temp\ccbHz2Im.ltrans1.ltrans.o
                                                  C:\Users\Ridwane\AppData\Local\Temp\ccbHz2Im.ltrans0.ltrans.o
chmemcore.c.3bc0bea9                              C:\Users\Ridwane\AppData\Local\Temp\ccR6Jduf.debug.temp.o
                                                  C:\Users\Ridwane\AppData\Local\Temp\ccbHz2Im.ltrans1.ltrans.o
                                                  C:\Users\Ridwane\AppData\Local\Temp\ccbHz2Im.ltrans0.ltrans.o
chmemheaps.c.fc5833e8                             C:\Users\Ridwane\AppData\Local\Temp\ccavyVmH.debug.temp.o
                                                  C:\Users\Ridwane\AppData\Local\Temp\ccbHz2Im.ltrans1.ltrans.o
                                                  C:\Users\Ridwane\AppData\Local\Temp\ccbHz2Im.ltrans0.ltrans.o
chmempools.c.581737a8                             C:\Users\Ridwane\AppData\Local\Temp\ccR56qt9.debug.temp.o
                                                  C:\Users\Ridwane\AppData\Local\Temp\ccbHz2Im.ltrans1.ltrans.o
                                                  C:\Users\Ridwane\AppData\Local\Temp\ccbHz2Im.ltrans0.ltrans.o
chmsg.c.d1d9700c                                  C:\Users\Ridwane\AppData\Local\Temp\cc8DQXXT.debug.temp.o
                                                  C:\Users\Ridwane\AppData\Local\Temp\ccbHz2Im.ltrans0.ltrans.o
chmtx.c.08b1d90e                                  C:\Users\Ridwane\AppData\Local\Temp\ccvgKgZy.debug.temp.o
                                                  C:\Users\Ridwane\AppData\Local\Temp\ccbHz2Im.ltrans1.ltrans.o
                                                  C:\Users\Ridwane\AppData\Local\Temp\ccbHz2Im.ltrans0.ltrans.o
chobjcaches.c.8f0852a2                            C:\Users\Ridwane\AppData\Local\Temp\ccdm1lB2.debug.temp.o
                                                  C:\Users\Ridwane\AppData\Local\Temp\ccbHz2Im.ltrans1.ltrans.o
                                                  C:\Users\Ridwane\AppData\Local\Temp\ccbHz2Im.ltrans0.ltrans.o
chpipes.c.1da99460                                C:\Users\Ridwane\AppData\Local\Temp\ccikgVvB.debug.temp.o
                                                  C:\Users\Ridwane\AppData\Local\Temp\ccbHz2Im.ltrans1.ltrans.o
                                                  C:\Users\Ridwane\AppData\Local\Temp\ccbHz2Im.ltrans0.ltrans.o
chregistry.c.bff1b666                             C:\Users\Ridwane\AppData\Local\Temp\ccdMZ81M.debug.temp.o
                                                  C:\Users\Ridwane\AppData\Local\Temp\ccbHz2Im.ltrans1.ltrans.o
chrfcu.c.c895f4e7                                 C:\Users\Ridwane\AppData\Local\Temp\ccvXOZKJ.debug.temp.o
                                                  C:\Users\Ridwane\AppData\Local\Temp\ccbHz2Im.ltrans1.ltrans.o
                                                  C:\Users\Ridwane\AppData\Local\Temp\ccbHz2Im.ltrans0.ltrans.o
chschd.c.7ac4a4b1                                 C:\Users\Ridwane\AppData\Local\Temp\cclmng1f.debug.temp.o
                                                  C:\Users\Ridwane\AppData\Local\Temp\ccbHz2Im.ltrans1.ltrans.o
                                                  C:\Users\Ridwane\AppData\Local\Temp\ccbHz2Im.ltrans0.ltrans.o
chsem.c.1e089c27                                  C:\Users\Ridwane\AppData\Local\Temp\ccidLa3a.debug.temp.o
                                                  C:\Users\Ridwane\AppData\Local\Temp\ccbHz2Im.ltrans1.ltrans.o
                                                  C:\Users\Ridwane\AppData\Local\Temp\ccbHz2Im.ltrans0.ltrans.o
chsys.c.a2cbaf2a                                  C:\Users\Ridwane\AppData\Local\Temp\ccUFKvfl.debug.temp.o
                                                  C:\Users\Ridwane\AppData\Local\Temp\ccbHz2Im.ltrans1.ltrans.o
                                                  C:\Users\Ridwane\AppData\Local\Temp\ccbHz2Im.ltrans0.ltrans.o
chtest                                            C:\Users\Ridwane\AppData\Local\Temp\ccbHz2Im.ltrans0.ltrans.o
                                                  ./build/obj/ch_test.o (symbol from plugin)
                                                  C:\Users\Ridwane\AppData\Local\Temp\ccbHz2Im.ltrans1.ltrans.o
                                                  ./build/obj/oslib_test_sequence_009.o (symbol from plugin)
                                                  ./build/obj/oslib_test_sequence_008.o (symbol from plugin)
                                                  ./build/obj/oslib_test_sequence_007.o (symbol from plugin)
                                                  ./build/obj/oslib_test_sequence_006.o (symbol from plugin)
                                                  ./build/obj/oslib_test_sequence_005.o (symbol from plugin)
                                                  ./build/obj/oslib_test_sequence_004.o (symbol from plugin)
                                                  ./build/obj/oslib_test_sequence_003.o (symbol from plugin)
                                                  ./build/obj/oslib_test_sequence_002.o (symbol from plugin)
                                                  ./build/obj/oslib_test_sequence_001.o (symbol from plugin)
                                                  ./build/obj/rt_test_sequence_012.o (symbol from plugin)
                                                  ./build/obj/rt_test_sequence_011.o (symbol from plugin)
                                                  ./build/obj/rt_test_sequence_010.o (symbol from plugin)
                                                  ./build/obj/rt_test_sequence_009.o (symbol from plugin)
                                                  ./build/obj/rt_test_sequence_008.o (symbol from plugin)
                                                  ./build/obj/rt_test_sequence_007.o (symbol from plugin)
                                                  ./build/obj/rt_test_sequence_006.o (symbol from plugin)
                                                  ./build/obj/rt_test_sequence_005.o (symbol from plugin)
                                                  ./build/obj/rt_test_sequence_004.o (symbol from plugin)
                                                  ./build/obj/rt_test_sequence_003.o (symbol from plugin)
                                                  ./build/obj/rt_test_sequence_002.o (symbol from plugin)
                                                  ./build/obj/rt_test_sequence_001.o (symbol from plugin)
                                                  ./build/obj/ch_test_printf.o (symbol from plugin)
chthreads.c.5557c4f5                              C:\Users\Ridwane\AppData\Local\Temp\ccXKrUt1.debug.temp.o
                                                  C:\Users\Ridwane\AppData\Local\Temp\ccbHz2Im.ltrans1.ltrans.o
                                                  C:\Users\Ridwane\AppData\Local\Temp\ccbHz2Im.ltrans0.ltrans.o
chtm.c.c6d3a226                                   C:\Users\Ridwane\AppData\Local\Temp\ccwxYUep.debug.temp.o
                                                  C:\Users\Ridwane\AppData\Local\Temp\ccbHz2Im.ltrans1.ltrans.o
                                                  C:\Users\Ridwane\AppData\Local\Temp\ccbHz2Im.ltrans0.ltrans.o
chtrace.c.0824063b                                C:\Users\Ridwane\AppData\Local\Temp\ccxNCtMu.debug.temp.o
chvt.c.e41f813f                                   C:\Users\Ridwane\AppData\Local\Temp\ccmG8fiS.debug.temp.o
                                                  C:\Users\Ridwane\AppData\Local\Temp\ccbHz2Im.ltrans1.ltrans.o
                                                  C:\Users\Ridwane\AppData\Local\Temp\ccbHz2Im.ltrans0.ltrans.o
codec.c.97caadc1                                  C:\Users\Ridwane\AppData\Local\Temp\ccHFZjj8.debug.temp.o
                                                  C:\Users\Ridwane\AppData\Local\Temp\ccbHz2Im.ltrans1.ltrans.o
common.c.d9463ee7                                 C:\Users\Ridwane\AppData\Local\Temp\ccsGkswC.debug.temp.o
crt1.c.72d01c06                                   C:\Users\Ridwane\AppData\Local\Temp\cc77RtQY.debug.temp.o
                                                  C:\Users\Ridwane\AppData\Local\Temp\ccbHz2Im.ltrans0.ltrans.o
crypto_sign                                       ./build/obj/nist.o (symbol from plugin)
crypto_sign_keypair                               ./build/obj/nist.o (symbol from plugin)
                                                  ./build/obj/main.o (symbol from plugin)
crypto_sign_open                                  ./build/obj/nist.o (symbol from plugin)
default_heap.lto_priv.0                           C:\Users\Ridwane\AppData\Local\Temp\ccbHz2Im.ltrans0.ltrans.o
                                                  C:\Users\Ridwane\AppData\Local\Temp\ccbHz2Im.ltrans1.ltrans.o
dyn_create_object_heap.lto_priv.0                 C:\Users\Ridwane\AppData\Local\Temp\ccbHz2Im.ltrans0.ltrans.o
                                                  C:\Users\Ridwane\AppData\Local\Temp\ccbHz2Im.ltrans1.ltrans.o
dyn_thread1.lto_priv.0                            C:\Users\Ridwane\AppData\Local\Temp\ccbHz2Im.ltrans0.ltrans.o
                                                  C:\Users\Ridwane\AppData\Local\Temp\ccbHz2Im.ltrans1.ltrans.o
errno                                             c:/chibistudio/tools/gnu tools arm embedded/11.3 2022.08/bin/../lib/gcc/arm-none-eabi/11.3.1/thumb/v7e-m/nofp\libg.a(libc_a-reent.o)
                                                  c:/chibistudio/tools/gnu tools arm embedded/11.3 2022.08/bin/../lib/gcc/arm-none-eabi/11.3.1/thumb/v7e-m/nofp\libg.a(libc_a-writer.o)
                                                  c:/chibistudio/tools/gnu tools arm embedded/11.3 2022.08/bin/../lib/gcc/arm-none-eabi/11.3.1/thumb/v7e-m/nofp\libg.a(libc_a-readr.o)
                                                  c:/chibistudio/tools/gnu tools arm embedded/11.3 2022.08/bin/../lib/gcc/arm-none-eabi/11.3.1/thumb/v7e-m/nofp\libg.a(libc_a-lseekr.o)
                                                  c:/chibistudio/tools/gnu tools arm embedded/11.3 2022.08/bin/../lib/gcc/arm-none-eabi/11.3.1/thumb/v7e-m/nofp\libg.a(libc_a-closer.o)
                                                  c:/chibistudio/tools/gnu tools arm embedded/11.3 2022.08/bin/../lib/gcc/arm-none-eabi/11.3.1/thumb/v7e-m/nofp\libg.a(libc_a-sbrkr.o)
falcon_inner_FFT                                  ./build/obj/fft.o (symbol from plugin)
                                                  ./build/obj/keygen.o (symbol from plugin)
                                                  ./build/obj/sign.o (symbol from plugin)
falcon_inner_comp_decode                          ./build/obj/codec.o (symbol from plugin)
                                                  ./build/obj/nist.o (symbol from plugin)
falcon_inner_comp_encode                          ./build/obj/codec.o (symbol from plugin)
                                                  ./build/obj/nist.o (symbol from plugin)
falcon_inner_complete_private                     ./build/obj/vrfy.o (symbol from plugin)
                                                  ./build/obj/nist.o (symbol from plugin)
falcon_inner_compute_public                       ./build/obj/vrfy.o (symbol from plugin)
                                                  ./build/obj/keygen.o (symbol from plugin)
falcon_inner_count_nttzero                        ./build/obj/vrfy.o (symbol from plugin)
falcon_inner_expand_privkey                       ./build/obj/sign.o (symbol from plugin)
falcon_inner_fpr_add                              C:\Users\Ridwane\AppData\Local\Temp\ccbHz2Im.ltrans1.ltrans.o
                                                  ./build/obj/fpr.o (symbol from plugin)
                                                  ./build/obj/keygen.o (symbol from plugin)
                                                  ./build/obj/fft.o (symbol from plugin)
                                                  ./build/obj/sign.o (symbol from plugin)
falcon_inner_fpr_div                              C:\Users\Ridwane\AppData\Local\Temp\ccbHz2Im.ltrans1.ltrans.o
                                                  ./build/obj/fpr.o (symbol from plugin)
                                                  ./build/obj/fft.o (symbol from plugin)
falcon_inner_fpr_expm_p63                         ./build/obj/fpr.o (symbol from plugin)
                                                  ./build/obj/sign.o (symbol from plugin)
falcon_inner_fpr_gm_tab                           ./build/obj/fpr.o (symbol from plugin)
                                                  ./build/obj/fft.o (symbol from plugin)
falcon_inner_fpr_mul                              C:\Users\Ridwane\AppData\Local\Temp\ccbHz2Im.ltrans1.ltrans.o
                                                  ./build/obj/fpr.o (symbol from plugin)
                                                  ./build/obj/keygen.o (symbol from plugin)
                                                  ./build/obj/fft.o (symbol from plugin)
                                                  ./build/obj/sign.o (symbol from plugin)
falcon_inner_fpr_p2_tab                           ./build/obj/fpr.o (symbol from plugin)
                                                  ./build/obj/fft.o (symbol from plugin)
falcon_inner_fpr_scaled                           C:\Users\Ridwane\AppData\Local\Temp\ccbHz2Im.ltrans1.ltrans.o
                                                  ./build/obj/fpr.o (symbol from plugin)
                                                  ./build/obj/keygen.o (symbol from plugin)
                                                  ./build/obj/sign.o (symbol from plugin)
falcon_inner_fpr_sqrt                             C:\Users\Ridwane\AppData\Local\Temp\ccbHz2Im.ltrans1.ltrans.o
                                                  ./build/obj/fpr.o (symbol from plugin)
                                                  ./build/obj/sign.o (symbol from plugin)
falcon_inner_gaussian0_sampler                    ./build/obj/sign.o (symbol from plugin)
falcon_inner_hash_to_point_ct                     ./build/obj/common.o (symbol from plugin)
falcon_inner_hash_to_point_vartime                ./build/obj/common.o (symbol from plugin)
                                                  ./build/obj/nist.o (symbol from plugin)
falcon_inner_iFFT                                 ./build/obj/fft.o (symbol from plugin)
                                                  ./build/obj/keygen.o (symbol from plugin)
                                                  ./build/obj/sign.o (symbol from plugin)
falcon_inner_i_shake256_extract                   ./build/obj/shake.o (symbol from plugin)
                                                  ./build/obj/rng.o (symbol from plugin)
                                                  ./build/obj/keygen.o (symbol from plugin)
                                                  ./build/obj/common.o (symbol from plugin)
falcon_inner_i_shake256_flip                      ./build/obj/shake.o (symbol from plugin)
                                                  ./build/obj/nist.o (symbol from plugin)
falcon_inner_i_shake256_init                      ./build/obj/shake.o (symbol from plugin)
                                                  ./build/obj/nist.o (symbol from plugin)
falcon_inner_i_shake256_inject                    ./build/obj/shake.o (symbol from plugin)
                                                  ./build/obj/nist.o (symbol from plugin)
falcon_inner_is_invertible                        ./build/obj/vrfy.o (symbol from plugin)
falcon_inner_is_short                             ./build/obj/common.o (symbol from plugin)
                                                  ./build/obj/vrfy.o (symbol from plugin)
falcon_inner_is_short_half                        ./build/obj/common.o (symbol from plugin)
                                                  ./build/obj/sign.o (symbol from plugin)
falcon_inner_keygen                               ./build/obj/keygen.o (symbol from plugin)
                                                  ./build/obj/nist.o (symbol from plugin)
falcon_inner_max_FG_bits                          ./build/obj/codec.o (symbol from plugin)
                                                  ./build/obj/keygen.o (symbol from plugin)
                                                  ./build/obj/nist.o (symbol from plugin)
falcon_inner_max_fg_bits                          ./build/obj/codec.o (symbol from plugin)
                                                  ./build/obj/keygen.o (symbol from plugin)
                                                  ./build/obj/nist.o (symbol from plugin)
falcon_inner_max_sig_bits                         ./build/obj/codec.o (symbol from plugin)
falcon_inner_modq_decode                          ./build/obj/codec.o (symbol from plugin)
                                                  ./build/obj/nist.o (symbol from plugin)
falcon_inner_modq_encode                          ./build/obj/codec.o (symbol from plugin)
                                                  ./build/obj/nist.o (symbol from plugin)
falcon_inner_poly_LDL_fft                         ./build/obj/fft.o (symbol from plugin)
                                                  ./build/obj/sign.o (symbol from plugin)
falcon_inner_poly_LDLmv_fft                       ./build/obj/fft.o (symbol from plugin)
                                                  ./build/obj/sign.o (symbol from plugin)
falcon_inner_poly_add                             ./build/obj/fft.o (symbol from plugin)
                                                  ./build/obj/keygen.o (symbol from plugin)
                                                  ./build/obj/sign.o (symbol from plugin)
falcon_inner_poly_add_muladj_fft                  ./build/obj/fft.o (symbol from plugin)
                                                  ./build/obj/keygen.o (symbol from plugin)
falcon_inner_poly_adj_fft                         ./build/obj/fft.o (symbol from plugin)
                                                  ./build/obj/keygen.o (symbol from plugin)
falcon_inner_poly_div_autoadj_fft                 ./build/obj/fft.o (symbol from plugin)
                                                  ./build/obj/keygen.o (symbol from plugin)
falcon_inner_poly_div_fft                         ./build/obj/fft.o (symbol from plugin)
falcon_inner_poly_invnorm2_fft                    ./build/obj/fft.o (symbol from plugin)
                                                  ./build/obj/keygen.o (symbol from plugin)
falcon_inner_poly_merge_fft                       ./build/obj/fft.o (symbol from plugin)
                                                  ./build/obj/sign.o (symbol from plugin)
falcon_inner_poly_mul_autoadj_fft                 ./build/obj/fft.o (symbol from plugin)
                                                  ./build/obj/keygen.o (symbol from plugin)
falcon_inner_poly_mul_fft                         ./build/obj/fft.o (symbol from plugin)
                                                  ./build/obj/keygen.o (symbol from plugin)
                                                  ./build/obj/sign.o (symbol from plugin)
falcon_inner_poly_muladj_fft                      ./build/obj/fft.o (symbol from plugin)
                                                  ./build/obj/sign.o (symbol from plugin)
falcon_inner_poly_mulconst                        ./build/obj/fft.o (symbol from plugin)
                                                  ./build/obj/keygen.o (symbol from plugin)
                                                  ./build/obj/sign.o (symbol from plugin)
falcon_inner_poly_mulselfadj_fft                  ./build/obj/fft.o (symbol from plugin)
                                                  ./build/obj/sign.o (symbol from plugin)
falcon_inner_poly_neg                             ./build/obj/fft.o (symbol from plugin)
                                                  ./build/obj/sign.o (symbol from plugin)
falcon_inner_poly_split_fft                       ./build/obj/fft.o (symbol from plugin)
                                                  ./build/obj/sign.o (symbol from plugin)
falcon_inner_poly_sub                             ./build/obj/fft.o (symbol from plugin)
                                                  ./build/obj/keygen.o (symbol from plugin)
                                                  ./build/obj/sign.o (symbol from plugin)
falcon_inner_prng_get_bytes                       ./build/obj/rng.o (symbol from plugin)
falcon_inner_prng_init                            ./build/obj/rng.o (symbol from plugin)
                                                  ./build/obj/sign.o (symbol from plugin)
falcon_inner_prng_refill                          ./build/obj/rng.o (symbol from plugin)
                                                  ./build/obj/sign.o (symbol from plugin)
falcon_inner_sampler                              ./build/obj/sign.o (symbol from plugin)
falcon_inner_sign_dyn                             ./build/obj/sign.o (symbol from plugin)
                                                  ./build/obj/nist.o (symbol from plugin)
falcon_inner_sign_tree                            ./build/obj/sign.o (symbol from plugin)
falcon_inner_to_ntt_monty                         ./build/obj/vrfy.o (symbol from plugin)
                                                  ./build/obj/nist.o (symbol from plugin)
falcon_inner_trim_i16_decode                      ./build/obj/codec.o (symbol from plugin)
falcon_inner_trim_i16_encode                      ./build/obj/codec.o (symbol from plugin)
falcon_inner_trim_i8_decode                       ./build/obj/codec.o (symbol from plugin)
                                                  ./build/obj/nist.o (symbol from plugin)
falcon_inner_trim_i8_encode                       ./build/obj/codec.o (symbol from plugin)
                                                  ./build/obj/nist.o (symbol from plugin)
falcon_inner_verify_raw                           ./build/obj/vrfy.o (symbol from plugin)
                                                  ./build/obj/nist.o (symbol from plugin)
falcon_inner_verify_recover                       ./build/obj/vrfy.o (symbol from plugin)
fclose                                            c:/chibistudio/tools/gnu tools arm embedded/11.3 2022.08/bin/../lib/gcc/arm-none-eabi/11.3.1/thumb/v7e-m/nofp\libg.a(libc_a-fclose.o)
fflush                                            c:/chibistudio/tools/gnu tools arm embedded/11.3 2022.08/bin/../lib/gcc/arm-none-eabi/11.3.1/thumb/v7e-m/nofp\libg.a(libc_a-fflush.o)
fft.c.3c76e387                                    C:\Users\Ridwane\AppData\Local\Temp\ccB5H2Y6.debug.temp.o
                                                  C:\Users\Ridwane\AppData\Local\Temp\ccbHz2Im.ltrans1.ltrans.o
flashGetAddressOffset                             ./build/obj/hal_flash.o (symbol from plugin)
flashGetOffsetAddress                             ./build/obj/hal_flash.o (symbol from plugin)
flashGetOffsetSector                              ./build/obj/hal_flash.o (symbol from plugin)
flashGetSectorOffset                              ./build/obj/hal_flash.o (symbol from plugin)
flashGetSectorSize                                ./build/obj/hal_flash.o (symbol from plugin)
flashWaitErase                                    ./build/obj/hal_flash.o (symbol from plugin)
fpr.c.e28e5bc6                                    C:\Users\Ridwane\AppData\Local\Temp\cc8mduwA.debug.temp.o
                                                  C:\Users\Ridwane\AppData\Local\Temp\ccbHz2Im.ltrans1.ltrans.o
free                                              c:/chibistudio/tools/gnu tools arm embedded/11.3 2022.08/bin/../lib/gcc/arm-none-eabi/11.3.1/thumb/v7e-m/nofp\libg.a(libc_a-malloc.o)
hal.c.66946054                                    C:\Users\Ridwane\AppData\Local\Temp\ccAV2byo.debug.temp.o
                                                  C:\Users\Ridwane\AppData\Local\Temp\ccbHz2Im.ltrans1.ltrans.o
halInit                                           ./build/obj/hal.o (symbol from plugin)
                                                  ./build/obj/main.o (symbol from plugin)
hal_buffered_serial.c.985e9b1e                    C:\Users\Ridwane\AppData\Local\Temp\cc8Jzz0b.debug.temp.o
hal_buffers.c.dfd8bd49                            C:\Users\Ridwane\AppData\Local\Temp\ccPokwGA.debug.temp.o
hal_efl_lld.c.acf91f76                            C:\Users\Ridwane\AppData\Local\Temp\ccYn4vwc.debug.temp.o
hal_flash.c.a881b6cf                              C:\Users\Ridwane\AppData\Local\Temp\ccrV6Uqo.debug.temp.o
hal_lld.c.a7f9c98e                                C:\Users\Ridwane\AppData\Local\Temp\cc9GMhuO.debug.temp.o
                                                  C:\Users\Ridwane\AppData\Local\Temp\ccbHz2Im.ltrans1.ltrans.o
                                                  C:\Users\Ridwane\AppData\Local\Temp\ccbHz2Im.ltrans0.ltrans.o
hal_lld_init                                      ./build/obj/hal_lld.o (symbol from plugin)
                                                  ./build/obj/hal.o (symbol from plugin)
hal_mmcsd.c.2993bfe9                              C:\Users\Ridwane\AppData\Local\Temp\ccC36fdN.debug.temp.o
hal_pal.c.0cb65783                                C:\Users\Ridwane\AppData\Local\Temp\cc39H6cc.debug.temp.o
hal_pal_lld.c.a9836c19                            C:\Users\Ridwane\AppData\Local\Temp\cchVUx4m.debug.temp.o
                                                  C:\Users\Ridwane\AppData\Local\Temp\ccbHz2Im.ltrans1.ltrans.o
hal_queues.c.10afee71                             C:\Users\Ridwane\AppData\Local\Temp\ccGCsLxZ.debug.temp.o
                                                  C:\Users\Ridwane\AppData\Local\Temp\ccbHz2Im.ltrans1.ltrans.o
                                                  C:\Users\Ridwane\AppData\Local\Temp\ccbHz2Im.ltrans0.ltrans.o
hal_serial.c.5a9d6d57                             C:\Users\Ridwane\AppData\Local\Temp\ccmmEpfB.debug.temp.o
                                                  C:\Users\Ridwane\AppData\Local\Temp\ccbHz2Im.ltrans1.ltrans.o
                                                  C:\Users\Ridwane\AppData\Local\Temp\ccbHz2Im.ltrans0.ltrans.o
hal_serial_lld.c.b4bd9ebe                         C:\Users\Ridwane\AppData\Local\Temp\cc57jBU9.debug.temp.o
                                                  C:\Users\Ridwane\AppData\Local\Temp\ccbHz2Im.ltrans1.ltrans.o
                                                  C:\Users\Ridwane\AppData\Local\Temp\ccbHz2Im.ltrans0.ltrans.o
hal_st.c.6e0a1a94                                 C:\Users\Ridwane\AppData\Local\Temp\ccHXeggN.debug.temp.o
                                                  C:\Users\Ridwane\AppData\Local\Temp\ccbHz2Im.ltrans1.ltrans.o
                                                  C:\Users\Ridwane\AppData\Local\Temp\ccbHz2Im.ltrans0.ltrans.o
hal_st_lld.c.ba917bdc                             C:\Users\Ridwane\AppData\Local\Temp\cccVyttL.debug.temp.o
                                                  C:\Users\Ridwane\AppData\Local\Temp\ccbHz2Im.ltrans1.ltrans.o
                                                  C:\Users\Ridwane\AppData\Local\Temp\ccbHz2Im.ltrans0.ltrans.o
heap1.lto_priv.0                                  C:\Users\Ridwane\AppData\Local\Temp\ccbHz2Im.ltrans0.ltrans.o
                                                  C:\Users\Ridwane\AppData\Local\Temp\ccbHz2Im.ltrans1.ltrans.o
ibqGetEmptyBufferI                                ./build/obj/hal_buffers.o (symbol from plugin)
ibqGetFullBufferTimeout                           ./build/obj/hal_buffers.o (symbol from plugin)
ibqGetFullBufferTimeoutS                          ./build/obj/hal_buffers.o (symbol from plugin)
ibqGetTimeout                                     ./build/obj/hal_buffers.o (symbol from plugin)
ibqObjectInit                                     ./build/obj/hal_buffers.o (symbol from plugin)
ibqPostFullBufferI                                ./build/obj/hal_buffers.o (symbol from plugin)
ibqReadTimeout                                    ./build/obj/hal_buffers.o (symbol from plugin)
ibqReleaseEmptyBuffer                             ./build/obj/hal_buffers.o (symbol from plugin)
ibqReleaseEmptyBufferS                            ./build/obj/hal_buffers.o (symbol from plugin)
ibqResetI                                         ./build/obj/hal_buffers.o (symbol from plugin)
iqGetI                                            ./build/obj/hal_queues.o (symbol from plugin)
iqGetTimeout                                      ./build/obj/hal_queues.o (symbol from plugin)
                                                  ./build/obj/hal_serial.o (symbol from plugin)
iqObjectInit                                      ./build/obj/hal_queues.o (symbol from plugin)
                                                  ./build/obj/hal_serial.o (symbol from plugin)
iqPutI                                            ./build/obj/hal_queues.o (symbol from plugin)
                                                  ./build/obj/hal_serial.o (symbol from plugin)
                                                  ./build/obj/hal_buffered_serial.o (symbol from plugin)
iqReadI                                           ./build/obj/hal_queues.o (symbol from plugin)
iqReadTimeout                                     ./build/obj/hal_queues.o (symbol from plugin)
                                                  ./build/obj/hal_serial.o (symbol from plugin)
iqResetI                                          ./build/obj/hal_queues.o (symbol from plugin)
                                                  ./build/obj/hal_serial.o (symbol from plugin)
irqDeinit                                         ./build/obj/stm32_isr.o (symbol from plugin)
irqInit                                           ./build/obj/stm32_isr.o (symbol from plugin)
                                                  ./build/obj/hal_lld.o (symbol from plugin)
keygen.c.0fda95b5                                 C:\Users\Ridwane\AppData\Local\Temp\cc3YCM13.debug.temp.o
                                                  C:\Users\Ridwane\AppData\Local\Temp\ccbHz2Im.ltrans1.ltrans.o
main                                              C:\Users\Ridwane\AppData\Local\Temp\ccbHz2Im.ltrans1.ltrans.o
                                                  ./build/obj/main.o (symbol from plugin)
                                                  ./build/obj/crt0_v7m.o
main.c.b613130d                                   C:\Users\Ridwane\AppData\Local\Temp\ccy3F7LF.debug.temp.o
                                                  C:\Users\Ridwane\AppData\Local\Temp\ccbHz2Im.ltrans1.ltrans.o
malloc                                            c:/chibistudio/tools/gnu tools arm embedded/11.3 2022.08/bin/../lib/gcc/arm-none-eabi/11.3.1/thumb/v7e-m/nofp\libg.a(libc_a-malloc.o)
                                                  C:\Users\Ridwane\AppData\Local\Temp\ccbHz2Im.ltrans1.ltrans.o
mb1.lto_priv.0                                    C:\Users\Ridwane\AppData\Local\Temp\ccbHz2Im.ltrans0.ltrans.o
                                                  C:\Users\Ridwane\AppData\Local\Temp\ccbHz2Im.ltrans1.ltrans.o
memcmp                                            c:/chibistudio/tools/gnu tools arm embedded/11.3 2022.08/bin/../lib/gcc/arm-none-eabi/11.3.1/thumb/v7e-m/nofp\libg.a(libc_a-memcmp.o)
                                                  C:\Users\Ridwane\AppData\Local\Temp\ccbHz2Im.ltrans0.ltrans.o
memcpy                                            c:/chibistudio/tools/gnu tools arm embedded/11.3 2022.08/bin/../lib/gcc/arm-none-eabi/11.3.1/thumb/v7e-m/nofp\libg.a(libc_a-memcpy.o)
                                                  C:\Users\Ridwane\AppData\Local\Temp\ccbHz2Im.ltrans1.ltrans.o
                                                  C:\Users\Ridwane\AppData\Local\Temp\ccbHz2Im.ltrans0.ltrans.o
memmove                                           c:/chibistudio/tools/gnu tools arm embedded/11.3 2022.08/bin/../lib/gcc/arm-none-eabi/11.3.1/thumb/v7e-m/nofp\libg.a(libc_a-memmove.o)
                                                  C:\Users\Ridwane\AppData\Local\Temp\ccbHz2Im.ltrans1.ltrans.o
memset                                            c:/chibistudio/tools/gnu tools arm embedded/11.3 2022.08/bin/../lib/gcc/arm-none-eabi/11.3.1/thumb/v7e-m/nofp\libg.a(libc_a-memset.o)
                                                  c:/chibistudio/tools/gnu tools arm embedded/11.3 2022.08/bin/../lib/gcc/arm-none-eabi/11.3.1/thumb/v7e-m/nofp\libg.a(libc_a-findfp.o)
                                                  C:\Users\Ridwane\AppData\Local\Temp\ccbHz2Im.ltrans1.ltrans.o
                                                  C:\Users\Ridwane\AppData\Local\Temp\ccbHz2Im.ltrans0.ltrans.o
mp1.lto_priv.0                                    C:\Users\Ridwane\AppData\Local\Temp\ccbHz2Im.ltrans0.ltrans.o
                                                  C:\Users\Ridwane\AppData\Local\Temp\ccbHz2Im.ltrans1.ltrans.o
nist.c.664fad53                                   C:\Users\Ridwane\AppData\Local\Temp\ccY95v1D.debug.temp.o
                                                  C:\Users\Ridwane\AppData\Local\Temp\ccbHz2Im.ltrans1.ltrans.o
notify2.lto_priv.0                                C:\Users\Ridwane\AppData\Local\Temp\ccbHz2Im.ltrans0.ltrans.o
                                                  C:\Users\Ridwane\AppData\Local\Temp\ccbHz2Im.ltrans1.ltrans.o
nvic.c.477ada9e                                   C:\Users\Ridwane\AppData\Local\Temp\ccZssOc0.debug.temp.o
                                                  C:\Users\Ridwane\AppData\Local\Temp\ccbHz2Im.ltrans1.ltrans.o
nvicClearPending                                  ./build/obj/nvic.o (symbol from plugin)
nvicDisableVector                                 ./build/obj/nvic.o (symbol from plugin)
                                                  ./build/obj/stm32_isr.o (symbol from plugin)
nvicEnableVector                                  ./build/obj/nvic.o (symbol from plugin)
                                                  ./build/obj/stm32_isr.o (symbol from plugin)
nvicInit                                          ./build/obj/nvic.o (symbol from plugin)
nvicSetPending                                    ./build/obj/nvic.o (symbol from plugin)
nvicSetSystemHandlerPriority                      ./build/obj/nvic.o (symbol from plugin)
obqFlush                                          ./build/obj/hal_buffers.o (symbol from plugin)
obqGetEmptyBufferTimeout                          ./build/obj/hal_buffers.o (symbol from plugin)
obqGetEmptyBufferTimeoutS                         ./build/obj/hal_buffers.o (symbol from plugin)
obqGetFullBufferI                                 ./build/obj/hal_buffers.o (symbol from plugin)
obqObjectInit                                     ./build/obj/hal_buffers.o (symbol from plugin)
obqPostFullBuffer                                 ./build/obj/hal_buffers.o (symbol from plugin)
obqPostFullBufferS                                ./build/obj/hal_buffers.o (symbol from plugin)
obqPutTimeout                                     ./build/obj/hal_buffers.o (symbol from plugin)
obqReleaseEmptyBufferI                            ./build/obj/hal_buffers.o (symbol from plugin)
obqResetI                                         ./build/obj/hal_buffers.o (symbol from plugin)
obqTryFlushI                                      ./build/obj/hal_buffers.o (symbol from plugin)
obqWriteTimeout                                   ./build/obj/hal_buffers.o (symbol from plugin)
oqGetI                                            ./build/obj/hal_queues.o (symbol from plugin)
                                                  ./build/obj/hal_serial_lld.o (symbol from plugin)
                                                  ./build/obj/hal_serial.o (symbol from plugin)
                                                  ./build/obj/hal_buffered_serial.o (symbol from plugin)
oqObjectInit                                      ./build/obj/hal_queues.o (symbol from plugin)
                                                  ./build/obj/hal_serial.o (symbol from plugin)
oqPutI                                            ./build/obj/hal_queues.o (symbol from plugin)
oqPutTimeout                                      ./build/obj/hal_queues.o (symbol from plugin)
                                                  ./build/obj/hal_serial.o (symbol from plugin)
oqResetI                                          ./build/obj/hal_queues.o (symbol from plugin)
                                                  ./build/obj/hal_serial.o (symbol from plugin)
oqWriteI                                          ./build/obj/hal_queues.o (symbol from plugin)
oqWriteTimeout                                    ./build/obj/hal_queues.o (symbol from plugin)
                                                  ./build/obj/hal_serial.o (symbol from plugin)
osal.c.993459b5                                   C:\Users\Ridwane\AppData\Local\Temp\ccrmHnMW.debug.temp.o
oslib_test_001_001_execute.lto_priv.0             C:\Users\Ridwane\AppData\Local\Temp\ccbHz2Im.ltrans0.ltrans.o
                                                  C:\Users\Ridwane\AppData\Local\Temp\ccbHz2Im.ltrans1.ltrans.o
oslib_test_001_002_execute.lto_priv.0             C:\Users\Ridwane\AppData\Local\Temp\ccbHz2Im.ltrans0.ltrans.o
                                                  C:\Users\Ridwane\AppData\Local\Temp\ccbHz2Im.ltrans1.ltrans.o
oslib_test_001_003_execute.lto_priv.0             C:\Users\Ridwane\AppData\Local\Temp\ccbHz2Im.ltrans0.ltrans.o
                                                  C:\Users\Ridwane\AppData\Local\Temp\ccbHz2Im.ltrans1.ltrans.o
oslib_test_002_001_execute.lto_priv.0             C:\Users\Ridwane\AppData\Local\Temp\ccbHz2Im.ltrans0.ltrans.o
                                                  C:\Users\Ridwane\AppData\Local\Temp\ccbHz2Im.ltrans1.ltrans.o
oslib_test_002_001_setup.lto_priv.0               C:\Users\Ridwane\AppData\Local\Temp\ccbHz2Im.ltrans0.ltrans.o
                                                  C:\Users\Ridwane\AppData\Local\Temp\ccbHz2Im.ltrans1.ltrans.o
oslib_test_002_001_teardown.lto_priv.0            C:\Users\Ridwane\AppData\Local\Temp\ccbHz2Im.ltrans0.ltrans.o
                                                  C:\Users\Ridwane\AppData\Local\Temp\ccbHz2Im.ltrans1.ltrans.o
oslib_test_002_002_execute.lto_priv.0             C:\Users\Ridwane\AppData\Local\Temp\ccbHz2Im.ltrans0.ltrans.o
                                                  C:\Users\Ridwane\AppData\Local\Temp\ccbHz2Im.ltrans1.ltrans.o
oslib_test_002_002_setup.lto_priv.0               C:\Users\Ridwane\AppData\Local\Temp\ccbHz2Im.ltrans0.ltrans.o
                                                  C:\Users\Ridwane\AppData\Local\Temp\ccbHz2Im.ltrans1.ltrans.o
oslib_test_002_002_teardown.lto_priv.0            C:\Users\Ridwane\AppData\Local\Temp\ccbHz2Im.ltrans0.ltrans.o
                                                  C:\Users\Ridwane\AppData\Local\Temp\ccbHz2Im.ltrans1.ltrans.o
oslib_test_002_003_execute.lto_priv.0             C:\Users\Ridwane\AppData\Local\Temp\ccbHz2Im.ltrans0.ltrans.o
                                                  C:\Users\Ridwane\AppData\Local\Temp\ccbHz2Im.ltrans1.ltrans.o
oslib_test_002_003_setup.lto_priv.0               C:\Users\Ridwane\AppData\Local\Temp\ccbHz2Im.ltrans0.ltrans.o
                                                  C:\Users\Ridwane\AppData\Local\Temp\ccbHz2Im.ltrans1.ltrans.o
oslib_test_002_003_teardown.lto_priv.0            C:\Users\Ridwane\AppData\Local\Temp\ccbHz2Im.ltrans0.ltrans.o
                                                  C:\Users\Ridwane\AppData\Local\Temp\ccbHz2Im.ltrans1.ltrans.o
oslib_test_003_001_execute.lto_priv.0             C:\Users\Ridwane\AppData\Local\Temp\ccbHz2Im.ltrans0.ltrans.o
                                                  C:\Users\Ridwane\AppData\Local\Temp\ccbHz2Im.ltrans1.ltrans.o
oslib_test_003_001_setup.lto_priv.0               C:\Users\Ridwane\AppData\Local\Temp\ccbHz2Im.ltrans0.ltrans.o
                                                  C:\Users\Ridwane\AppData\Local\Temp\ccbHz2Im.ltrans1.ltrans.o
oslib_test_003_002_execute.lto_priv.0             C:\Users\Ridwane\AppData\Local\Temp\ccbHz2Im.ltrans0.ltrans.o
                                                  C:\Users\Ridwane\AppData\Local\Temp\ccbHz2Im.ltrans1.ltrans.o
oslib_test_003_002_setup.lto_priv.0               C:\Users\Ridwane\AppData\Local\Temp\ccbHz2Im.ltrans0.ltrans.o
                                                  C:\Users\Ridwane\AppData\Local\Temp\ccbHz2Im.ltrans1.ltrans.o
oslib_test_004_001_execute.lto_priv.0             C:\Users\Ridwane\AppData\Local\Temp\ccbHz2Im.ltrans0.ltrans.o
                                                  C:\Users\Ridwane\AppData\Local\Temp\ccbHz2Im.ltrans1.ltrans.o
oslib_test_005_001_execute.lto_priv.0             C:\Users\Ridwane\AppData\Local\Temp\ccbHz2Im.ltrans0.ltrans.o
                                                  C:\Users\Ridwane\AppData\Local\Temp\ccbHz2Im.ltrans1.ltrans.o
oslib_test_006_001_execute.lto_priv.0             C:\Users\Ridwane\AppData\Local\Temp\ccbHz2Im.ltrans0.ltrans.o
                                                  C:\Users\Ridwane\AppData\Local\Temp\ccbHz2Im.ltrans1.ltrans.o
oslib_test_007_001_execute.lto_priv.0             C:\Users\Ridwane\AppData\Local\Temp\ccbHz2Im.ltrans0.ltrans.o
                                                  C:\Users\Ridwane\AppData\Local\Temp\ccbHz2Im.ltrans1.ltrans.o
oslib_test_007_001_setup.lto_priv.0               C:\Users\Ridwane\AppData\Local\Temp\ccbHz2Im.ltrans0.ltrans.o
                                                  C:\Users\Ridwane\AppData\Local\Temp\ccbHz2Im.ltrans1.ltrans.o
oslib_test_007_002_execute.lto_priv.0             C:\Users\Ridwane\AppData\Local\Temp\ccbHz2Im.ltrans0.ltrans.o
                                                  C:\Users\Ridwane\AppData\Local\Temp\ccbHz2Im.ltrans1.ltrans.o
oslib_test_007_002_setup.lto_priv.0               C:\Users\Ridwane\AppData\Local\Temp\ccbHz2Im.ltrans0.ltrans.o
                                                  C:\Users\Ridwane\AppData\Local\Temp\ccbHz2Im.ltrans1.ltrans.o
oslib_test_007_003_execute.lto_priv.0             C:\Users\Ridwane\AppData\Local\Temp\ccbHz2Im.ltrans0.ltrans.o
                                                  C:\Users\Ridwane\AppData\Local\Temp\ccbHz2Im.ltrans1.ltrans.o
oslib_test_007_003_setup.lto_priv.0               C:\Users\Ridwane\AppData\Local\Temp\ccbHz2Im.ltrans0.ltrans.o
                                                  C:\Users\Ridwane\AppData\Local\Temp\ccbHz2Im.ltrans1.ltrans.o
oslib_test_008_001_execute.lto_priv.0             C:\Users\Ridwane\AppData\Local\Temp\ccbHz2Im.ltrans0.ltrans.o
                                                  C:\Users\Ridwane\AppData\Local\Temp\ccbHz2Im.ltrans1.ltrans.o
oslib_test_008_001_setup.lto_priv.0               C:\Users\Ridwane\AppData\Local\Temp\ccbHz2Im.ltrans0.ltrans.o
                                                  C:\Users\Ridwane\AppData\Local\Temp\ccbHz2Im.ltrans1.ltrans.o
oslib_test_root.c.e284c4e2                        C:\Users\Ridwane\AppData\Local\Temp\ccwXtwjh.debug.temp.o
                                                  C:\Users\Ridwane\AppData\Local\Temp\ccbHz2Im.ltrans1.ltrans.o
oslib_test_sequence_001                           ./build/obj/oslib_test_sequence_001.o (symbol from plugin)
                                                  ./build/obj/oslib_test_root.o (symbol from plugin)
oslib_test_sequence_001.c.34f8d6b8                C:\Users\Ridwane\AppData\Local\Temp\ccz3u98G.debug.temp.o
                                                  C:\Users\Ridwane\AppData\Local\Temp\ccbHz2Im.ltrans1.ltrans.o
                                                  C:\Users\Ridwane\AppData\Local\Temp\ccbHz2Im.ltrans0.ltrans.o
oslib_test_sequence_001_array                     ./build/obj/oslib_test_sequence_001.o (symbol from plugin)
oslib_test_sequence_002                           ./build/obj/oslib_test_sequence_002.o (symbol from plugin)
                                                  ./build/obj/oslib_test_root.o (symbol from plugin)
oslib_test_sequence_002.c.ca062983                C:\Users\Ridwane\AppData\Local\Temp\ccWdFic7.debug.temp.o
                                                  C:\Users\Ridwane\AppData\Local\Temp\ccbHz2Im.ltrans1.ltrans.o
                                                  C:\Users\Ridwane\AppData\Local\Temp\ccbHz2Im.ltrans0.ltrans.o
oslib_test_sequence_002_array                     ./build/obj/oslib_test_sequence_002.o (symbol from plugin)
oslib_test_sequence_003                           ./build/obj/oslib_test_sequence_003.o (symbol from plugin)
                                                  ./build/obj/oslib_test_root.o (symbol from plugin)
oslib_test_sequence_003.c.cca91667                C:\Users\Ridwane\AppData\Local\Temp\cczgf5ax.debug.temp.o
                                                  C:\Users\Ridwane\AppData\Local\Temp\ccbHz2Im.ltrans1.ltrans.o
                                                  C:\Users\Ridwane\AppData\Local\Temp\ccbHz2Im.ltrans0.ltrans.o
oslib_test_sequence_003_array                     ./build/obj/oslib_test_sequence_003.o (symbol from plugin)
oslib_test_sequence_004                           ./build/obj/oslib_test_sequence_004.o (symbol from plugin)
                                                  ./build/obj/oslib_test_root.o (symbol from plugin)
oslib_test_sequence_004.c.d0439267                C:\Users\Ridwane\AppData\Local\Temp\ccuEVRlX.debug.temp.o
                                                  C:\Users\Ridwane\AppData\Local\Temp\ccbHz2Im.ltrans1.ltrans.o
                                                  C:\Users\Ridwane\AppData\Local\Temp\ccbHz2Im.ltrans0.ltrans.o
oslib_test_sequence_004_array                     ./build/obj/oslib_test_sequence_004.o (symbol from plugin)
oslib_test_sequence_005                           ./build/obj/oslib_test_sequence_005.o (symbol from plugin)
                                                  ./build/obj/oslib_test_root.o (symbol from plugin)
oslib_test_sequence_005.c.a888feed                C:\Users\Ridwane\AppData\Local\Temp\cc1Nk6qn.debug.temp.o
                                                  C:\Users\Ridwane\AppData\Local\Temp\ccbHz2Im.ltrans1.ltrans.o
                                                  C:\Users\Ridwane\AppData\Local\Temp\ccbHz2Im.ltrans0.ltrans.o
oslib_test_sequence_005_array                     ./build/obj/oslib_test_sequence_005.o (symbol from plugin)
oslib_test_sequence_006                           ./build/obj/oslib_test_sequence_006.o (symbol from plugin)
                                                  ./build/obj/oslib_test_root.o (symbol from plugin)
oslib_test_sequence_006.c.4bcb378f                C:\Users\Ridwane\AppData\Local\Temp\ccmhx3JN.debug.temp.o
                                                  C:\Users\Ridwane\AppData\Local\Temp\ccbHz2Im.ltrans1.ltrans.o
                                                  C:\Users\Ridwane\AppData\Local\Temp\ccbHz2Im.ltrans0.ltrans.o
oslib_test_sequence_006_array                     ./build/obj/oslib_test_sequence_006.o (symbol from plugin)
oslib_test_sequence_007                           ./build/obj/oslib_test_sequence_007.o (symbol from plugin)
                                                  ./build/obj/oslib_test_root.o (symbol from plugin)
oslib_test_sequence_007.c.f4b9492f                C:\Users\Ridwane\AppData\Local\Temp\ccPmX4Xd.debug.temp.o
                                                  C:\Users\Ridwane\AppData\Local\Temp\ccbHz2Im.ltrans1.ltrans.o
                                                  C:\Users\Ridwane\AppData\Local\Temp\ccbHz2Im.ltrans0.ltrans.o
oslib_test_sequence_007_array                     ./build/obj/oslib_test_sequence_007.o (symbol from plugin)
oslib_test_sequence_008                           ./build/obj/oslib_test_sequence_008.o (symbol from plugin)
                                                  ./build/obj/oslib_test_root.o (symbol from plugin)
oslib_test_sequence_008.c.9a1e4e3f                C:\Users\Ridwane\AppData\Local\Temp\ccaqsCVH.debug.temp.o
                                                  C:\Users\Ridwane\AppData\Local\Temp\ccbHz2Im.ltrans1.ltrans.o
                                                  C:\Users\Ridwane\AppData\Local\Temp\ccbHz2Im.ltrans0.ltrans.o
oslib_test_sequence_008_array                     ./build/obj/oslib_test_sequence_008.o (symbol from plugin)
oslib_test_sequence_009                           ./build/obj/oslib_test_sequence_009.o (symbol from plugin)
                                                  ./build/obj/oslib_test_root.o (symbol from plugin)
oslib_test_sequence_009.c.2f3d119b                C:\Users\Ridwane\AppData\Local\Temp\ccLlnNOb.debug.temp.o
                                                  C:\Users\Ridwane\AppData\Local\Temp\ccbHz2Im.ltrans1.ltrans.o
oslib_test_sequence_009_array                     ./build/obj/oslib_test_sequence_009.o (symbol from plugin)
oslib_test_suite                                  ./build/obj/oslib_test_root.o (symbol from plugin)
                                                  ./build/obj/main.o (symbol from plugin)
oslib_test_suite_array                            ./build/obj/oslib_test_root.o (symbol from plugin)
palReadBus                                        ./build/obj/hal_pal.o (symbol from plugin)
palSetBusMode                                     ./build/obj/hal_pal.o (symbol from plugin)
palWriteBus                                       ./build/obj/hal_pal.o (symbol from plugin)
pipe1.lto_priv.0                                  C:\Users\Ridwane\AppData\Local\Temp\ccbHz2Im.ltrans0.ltrans.o
                                                  C:\Users\Ridwane\AppData\Local\Temp\ccbHz2Im.ltrans1.ltrans.o
pipe_pattern.lto_priv.0                           C:\Users\Ridwane\AppData\Local\Temp\ccbHz2Im.ltrans0.ltrans.o
                                                  C:\Users\Ridwane\AppData\Local\Temp\ccbHz2Im.ltrans1.ltrans.o
port_init                                         ./build/obj/chcore.o (symbol from plugin)
                                                  ./build/obj/chinstances.o (symbol from plugin)
randombytes                                       C:\Users\Ridwane\AppData\Local\Temp\ccbHz2Im.ltrans1.ltrans.o
                                                  ./build/obj/nist.o (symbol from plugin)
rng.c.aa975aa3                                    C:\Users\Ridwane\AppData\Local\Temp\ccmXvJDx.debug.temp.o
rt_test_001_001_execute.lto_priv.0                C:\Users\Ridwane\AppData\Local\Temp\ccbHz2Im.ltrans0.ltrans.o
                                                  C:\Users\Ridwane\AppData\Local\Temp\ccbHz2Im.ltrans1.ltrans.o
rt_test_001_002_execute.lto_priv.0                C:\Users\Ridwane\AppData\Local\Temp\ccbHz2Im.ltrans0.ltrans.o
                                                  C:\Users\Ridwane\AppData\Local\Temp\ccbHz2Im.ltrans1.ltrans.o
rt_test_001_003_execute.lto_priv.0                C:\Users\Ridwane\AppData\Local\Temp\ccbHz2Im.ltrans0.ltrans.o
                                                  C:\Users\Ridwane\AppData\Local\Temp\ccbHz2Im.ltrans1.ltrans.o
rt_test_002_001_execute.lto_priv.0                C:\Users\Ridwane\AppData\Local\Temp\ccbHz2Im.ltrans0.ltrans.o
                                                  C:\Users\Ridwane\AppData\Local\Temp\ccbHz2Im.ltrans1.ltrans.o
rt_test_002_002_execute.lto_priv.0                C:\Users\Ridwane\AppData\Local\Temp\ccbHz2Im.ltrans0.ltrans.o
                                                  C:\Users\Ridwane\AppData\Local\Temp\ccbHz2Im.ltrans1.ltrans.o
rt_test_002_003_execute.lto_priv.0                C:\Users\Ridwane\AppData\Local\Temp\ccbHz2Im.ltrans0.ltrans.o
                                                  C:\Users\Ridwane\AppData\Local\Temp\ccbHz2Im.ltrans1.ltrans.o
rt_test_003_001_execute.lto_priv.0                C:\Users\Ridwane\AppData\Local\Temp\ccbHz2Im.ltrans0.ltrans.o
                                                  C:\Users\Ridwane\AppData\Local\Temp\ccbHz2Im.ltrans1.ltrans.o
rt_test_003_002_execute.lto_priv.0                C:\Users\Ridwane\AppData\Local\Temp\ccbHz2Im.ltrans0.ltrans.o
                                                  C:\Users\Ridwane\AppData\Local\Temp\ccbHz2Im.ltrans1.ltrans.o
rt_test_004_001_execute.lto_priv.0                C:\Users\Ridwane\AppData\Local\Temp\ccbHz2Im.ltrans0.ltrans.o
                                                  C:\Users\Ridwane\AppData\Local\Temp\ccbHz2Im.ltrans1.ltrans.o
rt_test_005_001_execute.lto_priv.0                C:\Users\Ridwane\AppData\Local\Temp\ccbHz2Im.ltrans0.ltrans.o
                                                  C:\Users\Ridwane\AppData\Local\Temp\ccbHz2Im.ltrans1.ltrans.o
rt_test_005_002_execute.lto_priv.0                C:\Users\Ridwane\AppData\Local\Temp\ccbHz2Im.ltrans0.ltrans.o
                                                  C:\Users\Ridwane\AppData\Local\Temp\ccbHz2Im.ltrans1.ltrans.o
rt_test_005_003_execute.lto_priv.0                C:\Users\Ridwane\AppData\Local\Temp\ccbHz2Im.ltrans0.ltrans.o
                                                  C:\Users\Ridwane\AppData\Local\Temp\ccbHz2Im.ltrans1.ltrans.o
rt_test_005_004_execute.lto_priv.0                C:\Users\Ridwane\AppData\Local\Temp\ccbHz2Im.ltrans0.ltrans.o
                                                  C:\Users\Ridwane\AppData\Local\Temp\ccbHz2Im.ltrans1.ltrans.o
rt_test_006_001_execute.lto_priv.0                C:\Users\Ridwane\AppData\Local\Temp\ccbHz2Im.ltrans0.ltrans.o
                                                  C:\Users\Ridwane\AppData\Local\Temp\ccbHz2Im.ltrans1.ltrans.o
rt_test_006_001_setup.lto_priv.0                  C:\Users\Ridwane\AppData\Local\Temp\ccbHz2Im.ltrans0.ltrans.o
                                                  C:\Users\Ridwane\AppData\Local\Temp\ccbHz2Im.ltrans1.ltrans.o
rt_test_007_001_execute.lto_priv.0                C:\Users\Ridwane\AppData\Local\Temp\ccbHz2Im.ltrans0.ltrans.o
                                                  C:\Users\Ridwane\AppData\Local\Temp\ccbHz2Im.ltrans1.ltrans.o
rt_test_007_001_setup.lto_priv.0                  C:\Users\Ridwane\AppData\Local\Temp\ccbHz2Im.ltrans0.ltrans.o
                                                  C:\Users\Ridwane\AppData\Local\Temp\ccbHz2Im.ltrans1.ltrans.o
rt_test_007_001_teardown.lto_priv.0               C:\Users\Ridwane\AppData\Local\Temp\ccbHz2Im.ltrans0.ltrans.o
                                                  C:\Users\Ridwane\AppData\Local\Temp\ccbHz2Im.ltrans1.ltrans.o
rt_test_007_002_execute.lto_priv.0                C:\Users\Ridwane\AppData\Local\Temp\ccbHz2Im.ltrans0.ltrans.o
                                                  C:\Users\Ridwane\AppData\Local\Temp\ccbHz2Im.ltrans1.ltrans.o
rt_test_007_002_setup.lto_priv.0                  C:\Users\Ridwane\AppData\Local\Temp\ccbHz2Im.ltrans0.ltrans.o
                                                  C:\Users\Ridwane\AppData\Local\Temp\ccbHz2Im.ltrans1.ltrans.o
rt_test_007_003_execute.lto_priv.0                C:\Users\Ridwane\AppData\Local\Temp\ccbHz2Im.ltrans0.ltrans.o
                                                  C:\Users\Ridwane\AppData\Local\Temp\ccbHz2Im.ltrans1.ltrans.o
rt_test_007_003_setup.lto_priv.0                  C:\Users\Ridwane\AppData\Local\Temp\ccbHz2Im.ltrans0.ltrans.o
                                                  C:\Users\Ridwane\AppData\Local\Temp\ccbHz2Im.ltrans1.ltrans.o
rt_test_007_004_execute.lto_priv.0                C:\Users\Ridwane\AppData\Local\Temp\ccbHz2Im.ltrans0.ltrans.o
                                                  C:\Users\Ridwane\AppData\Local\Temp\ccbHz2Im.ltrans1.ltrans.o
rt_test_007_004_setup.lto_priv.0                  C:\Users\Ridwane\AppData\Local\Temp\ccbHz2Im.ltrans0.ltrans.o
                                                  C:\Users\Ridwane\AppData\Local\Temp\ccbHz2Im.ltrans1.ltrans.o
rt_test_007_005_execute.lto_priv.0                C:\Users\Ridwane\AppData\Local\Temp\ccbHz2Im.ltrans0.ltrans.o
                                                  C:\Users\Ridwane\AppData\Local\Temp\ccbHz2Im.ltrans1.ltrans.o
rt_test_007_005_setup.lto_priv.0                  C:\Users\Ridwane\AppData\Local\Temp\ccbHz2Im.ltrans0.ltrans.o
                                                  C:\Users\Ridwane\AppData\Local\Temp\ccbHz2Im.ltrans1.ltrans.o
rt_test_007_005_teardown.lto_priv.0               C:\Users\Ridwane\AppData\Local\Temp\ccbHz2Im.ltrans0.ltrans.o
                                                  C:\Users\Ridwane\AppData\Local\Temp\ccbHz2Im.ltrans1.ltrans.o
rt_test_007_006_execute.lto_priv.0                C:\Users\Ridwane\AppData\Local\Temp\ccbHz2Im.ltrans0.ltrans.o
                                                  C:\Users\Ridwane\AppData\Local\Temp\ccbHz2Im.ltrans1.ltrans.o
rt_test_007_006_teardown.lto_priv.0               C:\Users\Ridwane\AppData\Local\Temp\ccbHz2Im.ltrans0.ltrans.o
                                                  C:\Users\Ridwane\AppData\Local\Temp\ccbHz2Im.ltrans1.ltrans.o
rt_test_008_001_execute.lto_priv.0                C:\Users\Ridwane\AppData\Local\Temp\ccbHz2Im.ltrans0.ltrans.o
                                                  C:\Users\Ridwane\AppData\Local\Temp\ccbHz2Im.ltrans1.ltrans.o
rt_test_008_001_setup.lto_priv.0                  C:\Users\Ridwane\AppData\Local\Temp\ccbHz2Im.ltrans0.ltrans.o
                                                  C:\Users\Ridwane\AppData\Local\Temp\ccbHz2Im.ltrans1.ltrans.o
rt_test_008_004_execute.lto_priv.0                C:\Users\Ridwane\AppData\Local\Temp\ccbHz2Im.ltrans0.ltrans.o
                                                  C:\Users\Ridwane\AppData\Local\Temp\ccbHz2Im.ltrans1.ltrans.o
rt_test_008_004_setup.lto_priv.0                  C:\Users\Ridwane\AppData\Local\Temp\ccbHz2Im.ltrans0.ltrans.o
                                                  C:\Users\Ridwane\AppData\Local\Temp\ccbHz2Im.ltrans1.ltrans.o
rt_test_008_004_teardown.lto_priv.0               C:\Users\Ridwane\AppData\Local\Temp\ccbHz2Im.ltrans0.ltrans.o
                                                  C:\Users\Ridwane\AppData\Local\Temp\ccbHz2Im.ltrans1.ltrans.o
rt_test_008_005_execute.lto_priv.0                C:\Users\Ridwane\AppData\Local\Temp\ccbHz2Im.ltrans0.ltrans.o
                                                  C:\Users\Ridwane\AppData\Local\Temp\ccbHz2Im.ltrans1.ltrans.o
rt_test_008_005_setup.lto_priv.0                  C:\Users\Ridwane\AppData\Local\Temp\ccbHz2Im.ltrans0.ltrans.o
                                                  C:\Users\Ridwane\AppData\Local\Temp\ccbHz2Im.ltrans1.ltrans.o
rt_test_008_007_execute.lto_priv.0                C:\Users\Ridwane\AppData\Local\Temp\ccbHz2Im.ltrans0.ltrans.o
                                                  C:\Users\Ridwane\AppData\Local\Temp\ccbHz2Im.ltrans1.ltrans.o
rt_test_008_007_setup.lto_priv.0                  C:\Users\Ridwane\AppData\Local\Temp\ccbHz2Im.ltrans0.ltrans.o
                                                  C:\Users\Ridwane\AppData\Local\Temp\ccbHz2Im.ltrans1.ltrans.o
rt_test_008_008_execute.lto_priv.0                C:\Users\Ridwane\AppData\Local\Temp\ccbHz2Im.ltrans0.ltrans.o
                                                  C:\Users\Ridwane\AppData\Local\Temp\ccbHz2Im.ltrans1.ltrans.o
rt_test_008_008_setup.lto_priv.0                  C:\Users\Ridwane\AppData\Local\Temp\ccbHz2Im.ltrans0.ltrans.o
                                                  C:\Users\Ridwane\AppData\Local\Temp\ccbHz2Im.ltrans1.ltrans.o
rt_test_008_009_execute.lto_priv.0                C:\Users\Ridwane\AppData\Local\Temp\ccbHz2Im.ltrans0.ltrans.o
                                                  C:\Users\Ridwane\AppData\Local\Temp\ccbHz2Im.ltrans1.ltrans.o
rt_test_008_009_setup.lto_priv.0                  C:\Users\Ridwane\AppData\Local\Temp\ccbHz2Im.ltrans0.ltrans.o
                                                  C:\Users\Ridwane\AppData\Local\Temp\ccbHz2Im.ltrans1.ltrans.o
rt_test_009_001_execute.lto_priv.0                C:\Users\Ridwane\AppData\Local\Temp\ccbHz2Im.ltrans0.ltrans.o
                                                  C:\Users\Ridwane\AppData\Local\Temp\ccbHz2Im.ltrans1.ltrans.o
rt_test_010_001_execute.lto_priv.0                C:\Users\Ridwane\AppData\Local\Temp\ccbHz2Im.ltrans0.ltrans.o
                                                  C:\Users\Ridwane\AppData\Local\Temp\ccbHz2Im.ltrans1.ltrans.o
rt_test_010_002_execute.lto_priv.0                C:\Users\Ridwane\AppData\Local\Temp\ccbHz2Im.ltrans0.ltrans.o
                                                  C:\Users\Ridwane\AppData\Local\Temp\ccbHz2Im.ltrans1.ltrans.o
rt_test_010_002_setup.lto_priv.0                  C:\Users\Ridwane\AppData\Local\Temp\ccbHz2Im.ltrans0.ltrans.o
                                                  C:\Users\Ridwane\AppData\Local\Temp\ccbHz2Im.ltrans1.ltrans.o
rt_test_010_003_execute.lto_priv.0                C:\Users\Ridwane\AppData\Local\Temp\ccbHz2Im.ltrans0.ltrans.o
                                                  C:\Users\Ridwane\AppData\Local\Temp\ccbHz2Im.ltrans1.ltrans.o
rt_test_010_003_setup.lto_priv.0                  C:\Users\Ridwane\AppData\Local\Temp\ccbHz2Im.ltrans0.ltrans.o
                                                  C:\Users\Ridwane\AppData\Local\Temp\ccbHz2Im.ltrans1.ltrans.o
rt_test_010_004_execute.lto_priv.0                C:\Users\Ridwane\AppData\Local\Temp\ccbHz2Im.ltrans0.ltrans.o
                                                  C:\Users\Ridwane\AppData\Local\Temp\ccbHz2Im.ltrans1.ltrans.o
rt_test_010_004_setup.lto_priv.0                  C:\Users\Ridwane\AppData\Local\Temp\ccbHz2Im.ltrans0.ltrans.o
                                                  C:\Users\Ridwane\AppData\Local\Temp\ccbHz2Im.ltrans1.ltrans.o
rt_test_010_005_execute.lto_priv.0                C:\Users\Ridwane\AppData\Local\Temp\ccbHz2Im.ltrans0.ltrans.o
                                                  C:\Users\Ridwane\AppData\Local\Temp\ccbHz2Im.ltrans1.ltrans.o
rt_test_010_005_setup.lto_priv.0                  C:\Users\Ridwane\AppData\Local\Temp\ccbHz2Im.ltrans0.ltrans.o
                                                  C:\Users\Ridwane\AppData\Local\Temp\ccbHz2Im.ltrans1.ltrans.o
rt_test_010_006_execute.lto_priv.0                C:\Users\Ridwane\AppData\Local\Temp\ccbHz2Im.ltrans0.ltrans.o
                                                  C:\Users\Ridwane\AppData\Local\Temp\ccbHz2Im.ltrans1.ltrans.o
rt_test_010_006_setup.lto_priv.0                  C:\Users\Ridwane\AppData\Local\Temp\ccbHz2Im.ltrans0.ltrans.o
                                                  C:\Users\Ridwane\AppData\Local\Temp\ccbHz2Im.ltrans1.ltrans.o
rt_test_010_007_execute.lto_priv.0                C:\Users\Ridwane\AppData\Local\Temp\ccbHz2Im.ltrans0.ltrans.o
                                                  C:\Users\Ridwane\AppData\Local\Temp\ccbHz2Im.ltrans1.ltrans.o
rt_test_010_007_setup.lto_priv.0                  C:\Users\Ridwane\AppData\Local\Temp\ccbHz2Im.ltrans0.ltrans.o
                                                  C:\Users\Ridwane\AppData\Local\Temp\ccbHz2Im.ltrans1.ltrans.o
rt_test_011_001_execute.lto_priv.0                C:\Users\Ridwane\AppData\Local\Temp\ccbHz2Im.ltrans0.ltrans.o
                                                  C:\Users\Ridwane\AppData\Local\Temp\ccbHz2Im.ltrans1.ltrans.o
rt_test_011_001_setup.lto_priv.0                  C:\Users\Ridwane\AppData\Local\Temp\ccbHz2Im.ltrans0.ltrans.o
                                                  C:\Users\Ridwane\AppData\Local\Temp\ccbHz2Im.ltrans1.ltrans.o
rt_test_011_002_execute.lto_priv.0                C:\Users\Ridwane\AppData\Local\Temp\ccbHz2Im.ltrans0.ltrans.o
                                                  C:\Users\Ridwane\AppData\Local\Temp\ccbHz2Im.ltrans1.ltrans.o
rt_test_011_002_setup.lto_priv.0                  C:\Users\Ridwane\AppData\Local\Temp\ccbHz2Im.ltrans0.ltrans.o
                                                  C:\Users\Ridwane\AppData\Local\Temp\ccbHz2Im.ltrans1.ltrans.o
rt_test_012_001_execute.lto_priv.0                C:\Users\Ridwane\AppData\Local\Temp\ccbHz2Im.ltrans0.ltrans.o
                                                  C:\Users\Ridwane\AppData\Local\Temp\ccbHz2Im.ltrans1.ltrans.o
rt_test_012_002_execute.lto_priv.0                C:\Users\Ridwane\AppData\Local\Temp\ccbHz2Im.ltrans0.ltrans.o
                                                  C:\Users\Ridwane\AppData\Local\Temp\ccbHz2Im.ltrans1.ltrans.o
rt_test_012_003_execute.lto_priv.0                C:\Users\Ridwane\AppData\Local\Temp\ccbHz2Im.ltrans0.ltrans.o
                                                  C:\Users\Ridwane\AppData\Local\Temp\ccbHz2Im.ltrans1.ltrans.o
rt_test_012_004_execute.lto_priv.0                C:\Users\Ridwane\AppData\Local\Temp\ccbHz2Im.ltrans0.ltrans.o
                                                  C:\Users\Ridwane\AppData\Local\Temp\ccbHz2Im.ltrans1.ltrans.o
rt_test_012_005_execute.lto_priv.0                C:\Users\Ridwane\AppData\Local\Temp\ccbHz2Im.ltrans0.ltrans.o
                                                  C:\Users\Ridwane\AppData\Local\Temp\ccbHz2Im.ltrans1.ltrans.o
rt_test_012_006_execute.lto_priv.0                C:\Users\Ridwane\AppData\Local\Temp\ccbHz2Im.ltrans0.ltrans.o
                                                  C:\Users\Ridwane\AppData\Local\Temp\ccbHz2Im.ltrans1.ltrans.o
rt_test_012_007_execute.lto_priv.0                C:\Users\Ridwane\AppData\Local\Temp\ccbHz2Im.ltrans0.ltrans.o
                                                  C:\Users\Ridwane\AppData\Local\Temp\ccbHz2Im.ltrans1.ltrans.o
rt_test_012_007_setup.lto_priv.0                  C:\Users\Ridwane\AppData\Local\Temp\ccbHz2Im.ltrans0.ltrans.o
                                                  C:\Users\Ridwane\AppData\Local\Temp\ccbHz2Im.ltrans1.ltrans.o
rt_test_012_008_execute.lto_priv.0                C:\Users\Ridwane\AppData\Local\Temp\ccbHz2Im.ltrans0.ltrans.o
                                                  C:\Users\Ridwane\AppData\Local\Temp\ccbHz2Im.ltrans1.ltrans.o
rt_test_012_009_execute.lto_priv.0                C:\Users\Ridwane\AppData\Local\Temp\ccbHz2Im.ltrans0.ltrans.o
                                                  C:\Users\Ridwane\AppData\Local\Temp\ccbHz2Im.ltrans1.ltrans.o
rt_test_012_010_execute.lto_priv.0                C:\Users\Ridwane\AppData\Local\Temp\ccbHz2Im.ltrans0.ltrans.o
                                                  C:\Users\Ridwane\AppData\Local\Temp\ccbHz2Im.ltrans1.ltrans.o
rt_test_012_010_setup.lto_priv.0                  C:\Users\Ridwane\AppData\Local\Temp\ccbHz2Im.ltrans0.ltrans.o
                                                  C:\Users\Ridwane\AppData\Local\Temp\ccbHz2Im.ltrans1.ltrans.o
rt_test_012_011_execute.lto_priv.0                C:\Users\Ridwane\AppData\Local\Temp\ccbHz2Im.ltrans0.ltrans.o
                                                  C:\Users\Ridwane\AppData\Local\Temp\ccbHz2Im.ltrans1.ltrans.o
rt_test_012_011_setup.lto_priv.0                  C:\Users\Ridwane\AppData\Local\Temp\ccbHz2Im.ltrans0.ltrans.o
                                                  C:\Users\Ridwane\AppData\Local\Temp\ccbHz2Im.ltrans1.ltrans.o
rt_test_012_012_execute.lto_priv.0                C:\Users\Ridwane\AppData\Local\Temp\ccbHz2Im.ltrans0.ltrans.o
                                                  C:\Users\Ridwane\AppData\Local\Temp\ccbHz2Im.ltrans1.ltrans.o
rt_test_root.c.0290d465                           C:\Users\Ridwane\AppData\Local\Temp\ccJ94MTF.debug.temp.o
                                                  C:\Users\Ridwane\AppData\Local\Temp\ccbHz2Im.ltrans1.ltrans.o
                                                  C:\Users\Ridwane\AppData\Local\Temp\ccbHz2Im.ltrans0.ltrans.o
rt_test_sequence_001                              ./build/obj/rt_test_sequence_001.o (symbol from plugin)
                                                  ./build/obj/rt_test_root.o (symbol from plugin)
rt_test_sequence_001.c.a05e5700                   C:\Users\Ridwane\AppData\Local\Temp\ccYHb7o7.debug.temp.o
                                                  C:\Users\Ridwane\AppData\Local\Temp\ccbHz2Im.ltrans1.ltrans.o
                                                  C:\Users\Ridwane\AppData\Local\Temp\ccbHz2Im.ltrans0.ltrans.o
rt_test_sequence_001_array                        ./build/obj/rt_test_sequence_001.o (symbol from plugin)
rt_test_sequence_002                              ./build/obj/rt_test_sequence_002.o (symbol from plugin)
                                                  ./build/obj/rt_test_root.o (symbol from plugin)
rt_test_sequence_002.c.7693c634                   C:\Users\Ridwane\AppData\Local\Temp\cclSvvPy.debug.temp.o
                                                  C:\Users\Ridwane\AppData\Local\Temp\ccbHz2Im.ltrans1.ltrans.o
                                                  C:\Users\Ridwane\AppData\Local\Temp\ccbHz2Im.ltrans0.ltrans.o
rt_test_sequence_002_array                        ./build/obj/rt_test_sequence_002.o (symbol from plugin)
rt_test_sequence_003                              ./build/obj/rt_test_sequence_003.o (symbol from plugin)
                                                  ./build/obj/rt_test_root.o (symbol from plugin)
rt_test_sequence_003.c.e62b3365                   C:\Users\Ridwane\AppData\Local\Temp\ccG32LiZ.debug.temp.o
                                                  C:\Users\Ridwane\AppData\Local\Temp\ccbHz2Im.ltrans1.ltrans.o
                                                  C:\Users\Ridwane\AppData\Local\Temp\ccbHz2Im.ltrans0.ltrans.o
rt_test_sequence_003_array                        ./build/obj/rt_test_sequence_003.o (symbol from plugin)
rt_test_sequence_004                              ./build/obj/rt_test_sequence_004.o (symbol from plugin)
                                                  ./build/obj/rt_test_root.o (symbol from plugin)
rt_test_sequence_004.c.af972b59                   C:\Users\Ridwane\AppData\Local\Temp\ccjYuyOp.debug.temp.o
                                                  C:\Users\Ridwane\AppData\Local\Temp\ccbHz2Im.ltrans1.ltrans.o
                                                  C:\Users\Ridwane\AppData\Local\Temp\ccbHz2Im.ltrans0.ltrans.o
rt_test_sequence_004_array                        ./build/obj/rt_test_sequence_004.o (symbol from plugin)
rt_test_sequence_005                              ./build/obj/rt_test_sequence_005.o (symbol from plugin)
                                                  ./build/obj/rt_test_root.o (symbol from plugin)
rt_test_sequence_005.c.f415dd57                   C:\Users\Ridwane\AppData\Local\Temp\ccYnoFfQ.debug.temp.o
                                                  C:\Users\Ridwane\AppData\Local\Temp\ccbHz2Im.ltrans1.ltrans.o
                                                  C:\Users\Ridwane\AppData\Local\Temp\ccbHz2Im.ltrans0.ltrans.o
rt_test_sequence_005_array                        ./build/obj/rt_test_sequence_005.o (symbol from plugin)
rt_test_sequence_006                              ./build/obj/rt_test_sequence_006.o (symbol from plugin)
                                                  ./build/obj/rt_test_root.o (symbol from plugin)
rt_test_sequence_006.c.fb9291de                   C:\Users\Ridwane\AppData\Local\Temp\ccRqaORg.debug.temp.o
                                                  C:\Users\Ridwane\AppData\Local\Temp\ccbHz2Im.ltrans1.ltrans.o
                                                  C:\Users\Ridwane\AppData\Local\Temp\ccbHz2Im.ltrans0.ltrans.o
rt_test_sequence_006_array                        ./build/obj/rt_test_sequence_006.o (symbol from plugin)
rt_test_sequence_007                              ./build/obj/rt_test_sequence_007.o (symbol from plugin)
                                                  ./build/obj/rt_test_root.o (symbol from plugin)
rt_test_sequence_007.c.9d832a79                   C:\Users\Ridwane\AppData\Local\Temp\ccmVqUpH.debug.temp.o
                                                  C:\Users\Ridwane\AppData\Local\Temp\ccbHz2Im.ltrans1.ltrans.o
                                                  C:\Users\Ridwane\AppData\Local\Temp\ccbHz2Im.ltrans0.ltrans.o
rt_test_sequence_007_array                        ./build/obj/rt_test_sequence_007.o (symbol from plugin)
rt_test_sequence_008                              ./build/obj/rt_test_sequence_008.o (symbol from plugin)
                                                  ./build/obj/rt_test_root.o (symbol from plugin)
rt_test_sequence_008.c.2cfdc47d                   C:\Users\Ridwane\AppData\Local\Temp\ccDC7ab8.debug.temp.o
                                                  C:\Users\Ridwane\AppData\Local\Temp\ccbHz2Im.ltrans1.ltrans.o
                                                  C:\Users\Ridwane\AppData\Local\Temp\ccbHz2Im.ltrans0.ltrans.o
rt_test_sequence_008_array                        ./build/obj/rt_test_sequence_008.o (symbol from plugin)
rt_test_sequence_009                              ./build/obj/rt_test_sequence_009.o (symbol from plugin)
                                                  ./build/obj/rt_test_root.o (symbol from plugin)
rt_test_sequence_009.c.6a20c73f                   C:\Users\Ridwane\AppData\Local\Temp\cc2V1vRy.debug.temp.o
                                                  C:\Users\Ridwane\AppData\Local\Temp\ccbHz2Im.ltrans1.ltrans.o
                                                  C:\Users\Ridwane\AppData\Local\Temp\ccbHz2Im.ltrans0.ltrans.o
rt_test_sequence_009_array                        ./build/obj/rt_test_sequence_009.o (symbol from plugin)
rt_test_sequence_010                              ./build/obj/rt_test_sequence_010.o (symbol from plugin)
                                                  ./build/obj/rt_test_root.o (symbol from plugin)
rt_test_sequence_010.c.c9f22a43                   C:\Users\Ridwane\AppData\Local\Temp\ccDP1lAZ.debug.temp.o
                                                  C:\Users\Ridwane\AppData\Local\Temp\ccbHz2Im.ltrans1.ltrans.o
                                                  C:\Users\Ridwane\AppData\Local\Temp\ccbHz2Im.ltrans0.ltrans.o
rt_test_sequence_010_array                        ./build/obj/rt_test_sequence_010.o (symbol from plugin)
rt_test_sequence_011                              ./build/obj/rt_test_sequence_011.o (symbol from plugin)
                                                  ./build/obj/rt_test_root.o (symbol from plugin)
rt_test_sequence_011.c.37d2c6e9                   C:\Users\Ridwane\AppData\Local\Temp\ccyNaIwq.debug.temp.o
                                                  C:\Users\Ridwane\AppData\Local\Temp\ccbHz2Im.ltrans1.ltrans.o
                                                  C:\Users\Ridwane\AppData\Local\Temp\ccbHz2Im.ltrans0.ltrans.o
rt_test_sequence_011_array                        ./build/obj/rt_test_sequence_011.o (symbol from plugin)
rt_test_sequence_012                              ./build/obj/rt_test_sequence_012.o (symbol from plugin)
                                                  ./build/obj/rt_test_root.o (symbol from plugin)
rt_test_sequence_012.c.57880f65                   C:\Users\Ridwane\AppData\Local\Temp\ccbS9apR.debug.temp.o
                                                  C:\Users\Ridwane\AppData\Local\Temp\ccbHz2Im.ltrans1.ltrans.o
                                                  C:\Users\Ridwane\AppData\Local\Temp\ccbHz2Im.ltrans0.ltrans.o
rt_test_sequence_012_array                        ./build/obj/rt_test_sequence_012.o (symbol from plugin)
rt_test_suite                                     ./build/obj/rt_test_root.o (symbol from plugin)
                                                  ./build/obj/main.o (symbol from plugin)
rt_test_suite_array                               ./build/obj/rt_test_root.o (symbol from plugin)
sdControl                                         ./build/obj/hal_serial.o (symbol from plugin)
sdGetWouldBlock                                   ./build/obj/hal_serial.o (symbol from plugin)
sdIncomingDataI                                   ./build/obj/hal_serial.o (symbol from plugin)
                                                  ./build/obj/hal_serial_lld.o (symbol from plugin)
sdInit                                            ./build/obj/hal_serial.o (symbol from plugin)
                                                  ./build/obj/hal.o (symbol from plugin)
sdObjectInit                                      ./build/obj/hal_serial.o (symbol from plugin)
                                                  ./build/obj/hal_serial_lld.o (symbol from plugin)
sdPutWouldBlock                                   ./build/obj/hal_serial.o (symbol from plugin)
sdRequestDataI                                    ./build/obj/hal_serial.o (symbol from plugin)
sdStart                                           ./build/obj/hal_serial.o (symbol from plugin)
                                                  ./build/obj/main.o (symbol from plugin)
sdStop                                            ./build/obj/hal_serial.o (symbol from plugin)
sd_lld_init                                       ./build/obj/hal_serial_lld.o (symbol from plugin)
                                                  ./build/obj/hal_serial.o (symbol from plugin)
sd_lld_serve_interrupt                            ./build/obj/hal_serial_lld.o (symbol from plugin)
                                                  ./build/obj/stm32_isr.o (symbol from plugin)
sd_lld_start                                      ./build/obj/hal_serial_lld.o (symbol from plugin)
                                                  ./build/obj/hal_serial.o (symbol from plugin)
sd_lld_stop                                       ./build/obj/hal_serial_lld.o (symbol from plugin)
                                                  ./build/obj/hal_serial.o (symbol from plugin)
sem1.lto_priv.0                                   C:\Users\Ridwane\AppData\Local\Temp\ccbHz2Im.ltrans0.ltrans.o
                                                  C:\Users\Ridwane\AppData\Local\Temp\ccbHz2Im.ltrans1.ltrans.o
shake.c.8b23fe14                                  C:\Users\Ridwane\AppData\Local\Temp\ccB7h9h1.debug.temp.o
                                                  C:\Users\Ridwane\AppData\Local\Temp\ccbHz2Im.ltrans1.ltrans.o
sign.c.44f69ee3                                   C:\Users\Ridwane\AppData\Local\Temp\ccJXIfX9.debug.temp.o
                                                  C:\Users\Ridwane\AppData\Local\Temp\ccbHz2Im.ltrans1.ltrans.o
stGetAlarm                                        ./build/obj/hal_st.o (symbol from plugin)
stGetCounter                                      ./build/obj/hal_st.o (symbol from plugin)
                                                  ./build/obj/rt_test_sequence_012.o (symbol from plugin)
                                                  ./build/obj/rt_test_sequence_006.o (symbol from plugin)
                                                  ./build/obj/rt_test_sequence_005.o (symbol from plugin)
                                                  ./build/obj/rt_test_sequence_004.o (symbol from plugin)
                                                  ./build/obj/rt_test_sequence_003.o (symbol from plugin)
                                                  ./build/obj/rt_test_root.o (symbol from plugin)
                                                  ./build/obj/ch_test.o (symbol from plugin)
                                                  ./build/obj/chthreads.o (symbol from plugin)
                                                  ./build/obj/chinstances.o (symbol from plugin)
                                                  ./build/obj/chvt.o (symbol from plugin)
stInit                                            ./build/obj/hal_st.o (symbol from plugin)
                                                  ./build/obj/hal.o (symbol from plugin)
stIsAlarmActive                                   ./build/obj/hal_st.o (symbol from plugin)
stSetAlarm                                        ./build/obj/hal_st.o (symbol from plugin)
                                                  ./build/obj/chvt.o (symbol from plugin)
stStartAlarm                                      ./build/obj/hal_st.o (symbol from plugin)
                                                  ./build/obj/chvt.o (symbol from plugin)
stStopAlarm                                       ./build/obj/hal_st.o (symbol from plugin)
                                                  ./build/obj/chvt.o (symbol from plugin)
st_lld_init                                       ./build/obj/hal_st_lld.o (symbol from plugin)
                                                  ./build/obj/hal_st.o (symbol from plugin)
st_lld_serve_interrupt                            ./build/obj/hal_st_lld.o (symbol from plugin)
                                                  ./build/obj/stm32_isr.o (symbol from plugin)
stm32_clock_init                                  ./build/obj/hal_lld.o (symbol from plugin)
                                                  ./build/obj/board.o (symbol from plugin)
stm32_dma.c.4b515f8d                              C:\Users\Ridwane\AppData\Local\Temp\cc7QxgBA.debug.temp.o
stm32_exti.c.52c5e5a6                             C:\Users\Ridwane\AppData\Local\Temp\ccWpFrTY.debug.temp.o
stm32_isr.c.71e3ea8f                              C:\Users\Ridwane\AppData\Local\Temp\ccWDpJnp.debug.temp.o
                                                  C:\Users\Ridwane\AppData\Local\Temp\ccbHz2Im.ltrans1.ltrans.o
                                                  C:\Users\Ridwane\AppData\Local\Temp\ccbHz2Im.ltrans0.ltrans.o
strcmp                                            c:/chibistudio/tools/gnu tools arm embedded/11.3 2022.08/bin/../lib/gcc/arm-none-eabi/11.3.1/thumb/v7e-m/nofp\libg.a(libc_a-strcmp.o)
                                                  C:\Users\Ridwane\AppData\Local\Temp\ccbHz2Im.ltrans1.ltrans.o
strncmp                                           c:/chibistudio/tools/gnu tools arm embedded/11.3 2022.08/bin/../lib/gcc/arm-none-eabi/11.3.1/thumb/v7e-m/nofp\libg.a(libc_a-strncmp.o)
                                                  C:\Users\Ridwane\AppData\Local\Temp\ccbHz2Im.ltrans0.ltrans.o
test_buffer                                       ./build/obj/rt_test_root.o (symbol from plugin)
                                                  ./build/obj/rt_test_sequence_011.o (symbol from plugin)
test_emit_token                                   ./build/obj/ch_test.o (symbol from plugin)
                                                  ./build/obj/oslib_test_sequence_006.o (symbol from plugin)
                                                  ./build/obj/oslib_test_sequence_005.o (symbol from plugin)
                                                  ./build/obj/oslib_test_sequence_004.o (symbol from plugin)
                                                  ./build/obj/oslib_test_sequence_002.o (symbol from plugin)
                                                  ./build/obj/rt_test_sequence_011.o (symbol from plugin)
                                                  ./build/obj/rt_test_sequence_010.o (symbol from plugin)
                                                  ./build/obj/rt_test_sequence_009.o (symbol from plugin)
                                                  ./build/obj/rt_test_sequence_008.o (symbol from plugin)
                                                  ./build/obj/rt_test_sequence_007.o (symbol from plugin)
                                                  ./build/obj/rt_test_sequence_006.o (symbol from plugin)
                                                  ./build/obj/rt_test_sequence_005.o (symbol from plugin)
test_execute_putchar                              ./build/obj/ch_test.o (symbol from plugin)
test_execute_stream                               ./build/obj/ch_test.o (symbol from plugin)
                                                  ./build/obj/main.o (symbol from plugin)
test_heap.lto_priv.0                              C:\Users\Ridwane\AppData\Local\Temp\ccbHz2Im.ltrans0.ltrans.o
                                                  C:\Users\Ridwane\AppData\Local\Temp\ccbHz2Im.ltrans1.ltrans.o
test_printf                                       C:\Users\Ridwane\AppData\Local\Temp\ccbHz2Im.ltrans0.ltrans.o
                                                  ./build/obj/ch_test_printf.o (symbol from plugin)
                                                  C:\Users\Ridwane\AppData\Local\Temp\ccbHz2Im.ltrans1.ltrans.o
                                                  ./build/obj/oslib_test_sequence_001.o (symbol from plugin)
                                                  ./build/obj/rt_test_sequence_012.o (symbol from plugin)
                                                  ./build/obj/rt_test_sequence_001.o (symbol from plugin)
                                                  ./build/obj/ch_test.o (symbol from plugin)
test_putchar                                      ./build/obj/ch_test_printf.o (symbol from plugin)
                                                  ./build/obj/ch_test.o (symbol from plugin)
test_stream_putchar.lto_priv.0                    C:\Users\Ridwane\AppData\Local\Temp\ccbHz2Im.ltrans0.ltrans.o
                                                  C:\Users\Ridwane\AppData\Local\Temp\ccbHz2Im.ltrans1.ltrans.o
test_terminate_threads                            ./build/obj/rt_test_root.o (symbol from plugin)
                                                  ./build/obj/rt_test_sequence_012.o (symbol from plugin)
test_vprintf                                      ./build/obj/ch_test_printf.o (symbol from plugin)
test_wait_threads                                 ./build/obj/rt_test_root.o (symbol from plugin)
                                                  ./build/obj/rt_test_sequence_012.o (symbol from plugin)
                                                  ./build/obj/rt_test_sequence_011.o (symbol from plugin)
                                                  ./build/obj/rt_test_sequence_010.o (symbol from plugin)
                                                  ./build/obj/rt_test_sequence_009.o (symbol from plugin)
                                                  ./build/obj/rt_test_sequence_008.o (symbol from plugin)
                                                  ./build/obj/rt_test_sequence_007.o (symbol from plugin)
                                                  ./build/obj/rt_test_sequence_006.o (symbol from plugin)
                                                  ./build/obj/rt_test_sequence_005.o (symbol from plugin)
test_wait_tick                                    ./build/obj/rt_test_root.o (symbol from plugin)
                                                  ./build/obj/rt_test_sequence_012.o (symbol from plugin)
                                                  ./build/obj/rt_test_sequence_010.o (symbol from plugin)
                                                  ./build/obj/rt_test_sequence_007.o (symbol from plugin)
                                                  ./build/obj/rt_test_sequence_004.o (symbol from plugin)
threads                                           ./build/obj/rt_test_root.o (symbol from plugin)
                                                  ./build/obj/rt_test_sequence_012.o (symbol from plugin)
                                                  ./build/obj/rt_test_sequence_011.o (symbol from plugin)
                                                  ./build/obj/rt_test_sequence_010.o (symbol from plugin)
                                                  ./build/obj/rt_test_sequence_009.o (symbol from plugin)
                                                  ./build/obj/rt_test_sequence_008.o (symbol from plugin)
                                                  ./build/obj/rt_test_sequence_007.o (symbol from plugin)
                                                  ./build/obj/rt_test_sequence_006.o (symbol from plugin)
                                                  ./build/obj/rt_test_sequence_005.o (symbol from plugin)
vrfy.c.949e96f3                                   C:\Users\Ridwane\AppData\Local\Temp\cciudy9u.debug.temp.o
                                                  C:\Users\Ridwane\AppData\Local\Temp\ccbHz2Im.ltrans1.ltrans.o
vt_enqueue.constprop.0                            C:\Users\Ridwane\AppData\Local\Temp\ccbHz2Im.ltrans1.ltrans.o
                                                  C:\Users\Ridwane\AppData\Local\Temp\ccbHz2Im.ltrans0.ltrans.o
vt_insert_first.constprop.0                       C:\Users\Ridwane\AppData\Local\Temp\ccbHz2Im.ltrans1.ltrans.o
                                                  C:\Users\Ridwane\AppData\Local\Temp\ccbHz2Im.ltrans0.ltrans.o
wa                                                ./build/obj/rt_test_root.o (symbol from plugin)
                                                  ./build/obj/rt_test_sequence_012.o (symbol from plugin)
                                                  ./build/obj/rt_test_sequence_011.o (symbol from plugin)
                                                  ./build/obj/rt_test_sequence_010.o (symbol from plugin)
                                                  ./build/obj/rt_test_sequence_009.o (symbol from plugin)
                                                  ./build/obj/rt_test_sequence_008.o (symbol from plugin)
                                                  ./build/obj/rt_test_sequence_007.o (symbol from plugin)
                                                  ./build/obj/rt_test_sequence_006.o (symbol from plugin)
                                                  ./build/obj/rt_test_sequence_005.o (symbol from plugin)
