Archive member included to satisfy reference by file (symbol)

c:/chibistudio/tools/gnu tools arm embedded/11.3 2022.08/bin/../lib/gcc/arm-none-eabi/11.3.1/thumb/v7e-m/nofp\libg_nano.a(libc_a-rand.o)
                              ./build/obj/main.o (symbol from plugin) (rand)
c:/chibistudio/tools/gnu tools arm embedded/11.3 2022.08/bin/../lib/gcc/arm-none-eabi/11.3.1/thumb/v7e-m/nofp\libg_nano.a(libc_a-impure.o)
                              c:/chibistudio/tools/gnu tools arm embedded/11.3 2022.08/bin/../lib/gcc/arm-none-eabi/11.3.1/thumb/v7e-m/nofp\libg_nano.a(libc_a-rand.o) (_impure_ptr)
c:/chibistudio/tools/gnu tools arm embedded/11.3 2022.08/bin/../lib/gcc/arm-none-eabi/11.3.1/thumb/v7e-m/nofp\libg_nano.a(libc_a-assert.o)
                              c:/chibistudio/tools/gnu tools arm embedded/11.3 2022.08/bin/../lib/gcc/arm-none-eabi/11.3.1/thumb/v7e-m/nofp\libg_nano.a(libc_a-rand.o) (__assert_func)
c:/chibistudio/tools/gnu tools arm embedded/11.3 2022.08/bin/../lib/gcc/arm-none-eabi/11.3.1/thumb/v7e-m/nofp\libg_nano.a(libc_a-malloc.o)
                              c:/chibistudio/tools/gnu tools arm embedded/11.3 2022.08/bin/../lib/gcc/arm-none-eabi/11.3.1/thumb/v7e-m/nofp\libg_nano.a(libc_a-rand.o) (malloc)
c:/chibistudio/tools/gnu tools arm embedded/11.3 2022.08/bin/../lib/gcc/arm-none-eabi/11.3.1/thumb/v7e-m/nofp\libg_nano.a(libc_a-mallocr.o)
                              c:/chibistudio/tools/gnu tools arm embedded/11.3 2022.08/bin/../lib/gcc/arm-none-eabi/11.3.1/thumb/v7e-m/nofp\libg_nano.a(libc_a-malloc.o) (_malloc_r)
c:/chibistudio/tools/gnu tools arm embedded/11.3 2022.08/bin/../lib/gcc/arm-none-eabi/11.3.1/thumb/v7e-m/nofp\libg_nano.a(libc_a-mlock.o)
                              c:/chibistudio/tools/gnu tools arm embedded/11.3 2022.08/bin/../lib/gcc/arm-none-eabi/11.3.1/thumb/v7e-m/nofp\libg_nano.a(libc_a-mallocr.o) (__malloc_lock)
c:/chibistudio/tools/gnu tools arm embedded/11.3 2022.08/bin/../lib/gcc/arm-none-eabi/11.3.1/thumb/v7e-m/nofp\libg_nano.a(libc_a-fprintf.o)
                              c:/chibistudio/tools/gnu tools arm embedded/11.3 2022.08/bin/../lib/gcc/arm-none-eabi/11.3.1/thumb/v7e-m/nofp\libg_nano.a(libc_a-assert.o) (fiprintf)
c:/chibistudio/tools/gnu tools arm embedded/11.3 2022.08/bin/../lib/gcc/arm-none-eabi/11.3.1/thumb/v7e-m/nofp\libg_nano.a(libc_a-lock.o)
                              c:/chibistudio/tools/gnu tools arm embedded/11.3 2022.08/bin/../lib/gcc/arm-none-eabi/11.3.1/thumb/v7e-m/nofp\libg_nano.a(libc_a-mlock.o) (__retarget_lock_acquire_recursive)
c:/chibistudio/tools/gnu tools arm embedded/11.3 2022.08/bin/../lib/gcc/arm-none-eabi/11.3.1/thumb/v7e-m/nofp\libg_nano.a(libc_a-abort.o)
                              c:/chibistudio/tools/gnu tools arm embedded/11.3 2022.08/bin/../lib/gcc/arm-none-eabi/11.3.1/thumb/v7e-m/nofp\libg_nano.a(libc_a-assert.o) (abort)
c:/chibistudio/tools/gnu tools arm embedded/11.3 2022.08/bin/../lib/gcc/arm-none-eabi/11.3.1/thumb/v7e-m/nofp\libg_nano.a(libc_a-freer.o)
                              c:/chibistudio/tools/gnu tools arm embedded/11.3 2022.08/bin/../lib/gcc/arm-none-eabi/11.3.1/thumb/v7e-m/nofp\libg_nano.a(libc_a-malloc.o) (_free_r)
c:/chibistudio/tools/gnu tools arm embedded/11.3 2022.08/bin/../lib/gcc/arm-none-eabi/11.3.1/thumb/v7e-m/nofp\libg_nano.a(libc_a-nano-vfprintf.o)
                              c:/chibistudio/tools/gnu tools arm embedded/11.3 2022.08/bin/../lib/gcc/arm-none-eabi/11.3.1/thumb/v7e-m/nofp\libg_nano.a(libc_a-fprintf.o) (_vfprintf_r)
c:/chibistudio/tools/gnu tools arm embedded/11.3 2022.08/bin/../lib/gcc/arm-none-eabi/11.3.1/thumb/v7e-m/nofp\libg_nano.a(libc_a-nano-vfprintf_i.o)
                              c:/chibistudio/tools/gnu tools arm embedded/11.3 2022.08/bin/../lib/gcc/arm-none-eabi/11.3.1/thumb/v7e-m/nofp\libg_nano.a(libc_a-nano-vfprintf.o) (_printf_i)
c:/chibistudio/tools/gnu tools arm embedded/11.3 2022.08/bin/../lib/gcc/arm-none-eabi/11.3.1/thumb/v7e-m/nofp\libg_nano.a(libc_a-findfp.o)
                              c:/chibistudio/tools/gnu tools arm embedded/11.3 2022.08/bin/../lib/gcc/arm-none-eabi/11.3.1/thumb/v7e-m/nofp\libg_nano.a(libc_a-nano-vfprintf.o) (__sinit)
c:/chibistudio/tools/gnu tools arm embedded/11.3 2022.08/bin/../lib/gcc/arm-none-eabi/11.3.1/thumb/v7e-m/nofp\libg_nano.a(libc_a-fvwrite.o)
                              c:/chibistudio/tools/gnu tools arm embedded/11.3 2022.08/bin/../lib/gcc/arm-none-eabi/11.3.1/thumb/v7e-m/nofp\libg_nano.a(libc_a-nano-vfprintf.o) (__sfvwrite_r)
c:/chibistudio/tools/gnu tools arm embedded/11.3 2022.08/bin/../lib/gcc/arm-none-eabi/11.3.1/thumb/v7e-m/nofp\libg_nano.a(libc_a-fwalk.o)
                              c:/chibistudio/tools/gnu tools arm embedded/11.3 2022.08/bin/../lib/gcc/arm-none-eabi/11.3.1/thumb/v7e-m/nofp\libg_nano.a(libc_a-findfp.o) (_fwalk_sglue)
c:/chibistudio/tools/gnu tools arm embedded/11.3 2022.08/bin/../lib/gcc/arm-none-eabi/11.3.1/thumb/v7e-m/nofp\libg_nano.a(libc_a-stdio.o)
                              c:/chibistudio/tools/gnu tools arm embedded/11.3 2022.08/bin/../lib/gcc/arm-none-eabi/11.3.1/thumb/v7e-m/nofp\libg_nano.a(libc_a-findfp.o) (__sread)
c:/chibistudio/tools/gnu tools arm embedded/11.3 2022.08/bin/../lib/gcc/arm-none-eabi/11.3.1/thumb/v7e-m/nofp\libg_nano.a(libc_a-wbuf.o)
                              c:/chibistudio/tools/gnu tools arm embedded/11.3 2022.08/bin/../lib/gcc/arm-none-eabi/11.3.1/thumb/v7e-m/nofp\libg_nano.a(libc_a-nano-vfprintf.o) (__swbuf_r)
c:/chibistudio/tools/gnu tools arm embedded/11.3 2022.08/bin/../lib/gcc/arm-none-eabi/11.3.1/thumb/v7e-m/nofp\libg_nano.a(libc_a-wsetup.o)
                              c:/chibistudio/tools/gnu tools arm embedded/11.3 2022.08/bin/../lib/gcc/arm-none-eabi/11.3.1/thumb/v7e-m/nofp\libg_nano.a(libc_a-nano-vfprintf.o) (__swsetup_r)
c:/chibistudio/tools/gnu tools arm embedded/11.3 2022.08/bin/../lib/gcc/arm-none-eabi/11.3.1/thumb/v7e-m/nofp\libg_nano.a(libc_a-memmove.o)
                              c:/chibistudio/tools/gnu tools arm embedded/11.3 2022.08/bin/../lib/gcc/arm-none-eabi/11.3.1/thumb/v7e-m/nofp\libg_nano.a(libc_a-fvwrite.o) (memmove)
c:/chibistudio/tools/gnu tools arm embedded/11.3 2022.08/bin/../lib/gcc/arm-none-eabi/11.3.1/thumb/v7e-m/nofp\libg_nano.a(libc_a-memset.o)
                              c:/chibistudio/tools/gnu tools arm embedded/11.3 2022.08/bin/../lib/gcc/arm-none-eabi/11.3.1/thumb/v7e-m/nofp\libg_nano.a(libc_a-findfp.o) (memset)
c:/chibistudio/tools/gnu tools arm embedded/11.3 2022.08/bin/../lib/gcc/arm-none-eabi/11.3.1/thumb/v7e-m/nofp\libg_nano.a(libc_a-signal.o)
                              c:/chibistudio/tools/gnu tools arm embedded/11.3 2022.08/bin/../lib/gcc/arm-none-eabi/11.3.1/thumb/v7e-m/nofp\libg_nano.a(libc_a-abort.o) (raise)
c:/chibistudio/tools/gnu tools arm embedded/11.3 2022.08/bin/../lib/gcc/arm-none-eabi/11.3.1/thumb/v7e-m/nofp\libg_nano.a(libc_a-signalr.o)
                              c:/chibistudio/tools/gnu tools arm embedded/11.3 2022.08/bin/../lib/gcc/arm-none-eabi/11.3.1/thumb/v7e-m/nofp\libg_nano.a(libc_a-signal.o) (_kill_r)
c:/chibistudio/tools/gnu tools arm embedded/11.3 2022.08/bin/../lib/gcc/arm-none-eabi/11.3.1/thumb/v7e-m/nofp\libg_nano.a(libc_a-memchr.o)
                              c:/chibistudio/tools/gnu tools arm embedded/11.3 2022.08/bin/../lib/gcc/arm-none-eabi/11.3.1/thumb/v7e-m/nofp\libg_nano.a(libc_a-nano-vfprintf.o) (memchr)
c:/chibistudio/tools/gnu tools arm embedded/11.3 2022.08/bin/../lib/gcc/arm-none-eabi/11.3.1/thumb/v7e-m/nofp\libg_nano.a(libc_a-memcpy-stub.o)
                              c:/chibistudio/tools/gnu tools arm embedded/11.3 2022.08/bin/../lib/gcc/arm-none-eabi/11.3.1/thumb/v7e-m/nofp\libg_nano.a(libc_a-fvwrite.o) (memcpy)
c:/chibistudio/tools/gnu tools arm embedded/11.3 2022.08/bin/../lib/gcc/arm-none-eabi/11.3.1/thumb/v7e-m/nofp\libg_nano.a(libc_a-reallocr.o)
                              c:/chibistudio/tools/gnu tools arm embedded/11.3 2022.08/bin/../lib/gcc/arm-none-eabi/11.3.1/thumb/v7e-m/nofp\libg_nano.a(libc_a-fvwrite.o) (_realloc_r)
c:/chibistudio/tools/gnu tools arm embedded/11.3 2022.08/bin/../lib/gcc/arm-none-eabi/11.3.1/thumb/v7e-m/nofp\libg_nano.a(libc_a-fflush.o)
                              c:/chibistudio/tools/gnu tools arm embedded/11.3 2022.08/bin/../lib/gcc/arm-none-eabi/11.3.1/thumb/v7e-m/nofp\libg_nano.a(libc_a-findfp.o) (_fflush_r)
c:/chibistudio/tools/gnu tools arm embedded/11.3 2022.08/bin/../lib/gcc/arm-none-eabi/11.3.1/thumb/v7e-m/nofp\libg_nano.a(libc_a-makebuf.o)
                              c:/chibistudio/tools/gnu tools arm embedded/11.3 2022.08/bin/../lib/gcc/arm-none-eabi/11.3.1/thumb/v7e-m/nofp\libg_nano.a(libc_a-wsetup.o) (__smakebuf_r)
c:/chibistudio/tools/gnu tools arm embedded/11.3 2022.08/bin/../lib/gcc/arm-none-eabi/11.3.1/thumb/v7e-m/nofp\libg_nano.a(libc_a-reent.o)
                              c:/chibistudio/tools/gnu tools arm embedded/11.3 2022.08/bin/../lib/gcc/arm-none-eabi/11.3.1/thumb/v7e-m/nofp\libg_nano.a(libc_a-signalr.o) (errno)
c:/chibistudio/tools/gnu tools arm embedded/11.3 2022.08/bin/../lib/gcc/arm-none-eabi/11.3.1/thumb/v7e-m/nofp\libg_nano.a(libc_a-msizer.o)
                              c:/chibistudio/tools/gnu tools arm embedded/11.3 2022.08/bin/../lib/gcc/arm-none-eabi/11.3.1/thumb/v7e-m/nofp\libg_nano.a(libc_a-reallocr.o) (_malloc_usable_size_r)
c:/chibistudio/tools/gnu tools arm embedded/11.3 2022.08/bin/../lib/gcc/arm-none-eabi/11.3.1/thumb/v7e-m/nofp\libg_nano.a(libc_a-memcmp.o)
                              C:\Users\Ridwane\AppData\Local\Temp\cck5XY5Q.ltrans0.ltrans.o (memcmp)
c:/chibistudio/tools/gnu tools arm embedded/11.3 2022.08/bin/../lib/gcc/arm-none-eabi/11.3.1/thumb/v7e-m/nofp\libg_nano.a(libc_a-strncmp.o)
                              C:\Users\Ridwane\AppData\Local\Temp\cck5XY5Q.ltrans0.ltrans.o (strncmp)
c:/chibistudio/tools/gnu tools arm embedded/11.3 2022.08/bin/../lib/gcc/arm-none-eabi/11.3.1/thumb/v7e-m/nofp\libg_nano.a(libc_a-strcmp.o)
                              C:\Users\Ridwane\AppData\Local\Temp\cck5XY5Q.ltrans1.ltrans.o (strcmp)

Discarded input sections

 .data          0x00000000        0x0 ./build/obj/crt0_v7m.o
 .bss           0x00000000        0x0 ./build/obj/crt0_v7m.o
 .data          0x00000000        0x0 ./build/obj/vectors.o
 .bss           0x00000000        0x0 ./build/obj/vectors.o
 .data          0x00000000        0x0 ./build/obj/chcoreasm.o
 .bss           0x00000000        0x0 ./build/obj/chcoreasm.o
 .text          0x00000000        0x0 C:\Users\Ridwane\AppData\Local\Temp\cck5XY5Q.ltrans0.ltrans.o
 .data          0x00000000        0x0 C:\Users\Ridwane\AppData\Local\Temp\cck5XY5Q.ltrans0.ltrans.o
 .bss           0x00000000        0x0 C:\Users\Ridwane\AppData\Local\Temp\cck5XY5Q.ltrans0.ltrans.o
 .text          0x00000000        0x0 C:\Users\Ridwane\AppData\Local\Temp\cck5XY5Q.ltrans1.ltrans.o
 .data          0x00000000        0x0 C:\Users\Ridwane\AppData\Local\Temp\cck5XY5Q.ltrans1.ltrans.o
 .bss           0x00000000        0x0 C:\Users\Ridwane\AppData\Local\Temp\cck5XY5Q.ltrans1.ltrans.o
 .text._open_r  0x00000000        0xc C:\Users\Ridwane\AppData\Local\Temp\cck5XY5Q.ltrans1.ltrans.o
 .comment       0x00000000       0x34 C:\Users\Ridwane\AppData\Local\Temp\cc8o5MEn.debug.temp.o
 .comment       0x00000000       0x34 C:\Users\Ridwane\AppData\Local\Temp\ccGk73vd.debug.temp.o
 .comment       0x00000000       0x34 C:\Users\Ridwane\AppData\Local\Temp\cca8hNi3.debug.temp.o
 .debug_info    0x00000000      0xbbe C:\Users\Ridwane\AppData\Local\Temp\ccEVsw5S.debug.temp.o
 .debug_abbrev  0x00000000      0x1f4 C:\Users\Ridwane\AppData\Local\Temp\ccEVsw5S.debug.temp.o
 .debug_line    0x00000000       0xaf C:\Users\Ridwane\AppData\Local\Temp\ccEVsw5S.debug.temp.o
 .debug_str     0x00000000      0x780 C:\Users\Ridwane\AppData\Local\Temp\ccEVsw5S.debug.temp.o
 .debug_line_str
                0x00000000      0x308 C:\Users\Ridwane\AppData\Local\Temp\ccEVsw5S.debug.temp.o
 .comment       0x00000000       0x34 C:\Users\Ridwane\AppData\Local\Temp\ccEVsw5S.debug.temp.o
 .debug_info    0x00000000      0x95a C:\Users\Ridwane\AppData\Local\Temp\ccumAU5I.debug.temp.o
 .debug_abbrev  0x00000000      0x209 C:\Users\Ridwane\AppData\Local\Temp\ccumAU5I.debug.temp.o
 .debug_line    0x00000000       0xa4 C:\Users\Ridwane\AppData\Local\Temp\ccumAU5I.debug.temp.o
 .debug_str     0x00000000      0x5b7 C:\Users\Ridwane\AppData\Local\Temp\ccumAU5I.debug.temp.o
 .debug_line_str
                0x00000000      0x32d C:\Users\Ridwane\AppData\Local\Temp\ccumAU5I.debug.temp.o
 .comment       0x00000000       0x34 C:\Users\Ridwane\AppData\Local\Temp\ccumAU5I.debug.temp.o
 .comment       0x00000000       0x34 C:\Users\Ridwane\AppData\Local\Temp\ccyW4p0y.debug.temp.o
 .debug_info    0x00000000      0x5a5 C:\Users\Ridwane\AppData\Local\Temp\ccgBZC8o.debug.temp.o
 .debug_abbrev  0x00000000      0x15f C:\Users\Ridwane\AppData\Local\Temp\ccgBZC8o.debug.temp.o
 .debug_line    0x00000000       0x75 C:\Users\Ridwane\AppData\Local\Temp\ccgBZC8o.debug.temp.o
 .debug_str     0x00000000      0x518 C:\Users\Ridwane\AppData\Local\Temp\ccgBZC8o.debug.temp.o
 .debug_line_str
                0x00000000      0x231 C:\Users\Ridwane\AppData\Local\Temp\ccgBZC8o.debug.temp.o
 .comment       0x00000000       0x34 C:\Users\Ridwane\AppData\Local\Temp\ccgBZC8o.debug.temp.o
 .debug_info    0x00000000       0x7a C:\Users\Ridwane\AppData\Local\Temp\ccYfUPgf.debug.temp.o
 .debug_abbrev  0x00000000       0x26 C:\Users\Ridwane\AppData\Local\Temp\ccYfUPgf.debug.temp.o
 .debug_line    0x00000000       0x31 C:\Users\Ridwane\AppData\Local\Temp\ccYfUPgf.debug.temp.o
 .debug_str     0x00000000      0x1a4 C:\Users\Ridwane\AppData\Local\Temp\ccYfUPgf.debug.temp.o
 .debug_line_str
                0x00000000       0x4e C:\Users\Ridwane\AppData\Local\Temp\ccYfUPgf.debug.temp.o
 .comment       0x00000000       0x34 C:\Users\Ridwane\AppData\Local\Temp\ccYfUPgf.debug.temp.o
 .debug_info    0x00000000      0x2e8 C:\Users\Ridwane\AppData\Local\Temp\ccCiuDk5.debug.temp.o
 .debug_abbrev  0x00000000      0x136 C:\Users\Ridwane\AppData\Local\Temp\ccCiuDk5.debug.temp.o
 .debug_line    0x00000000       0x6c C:\Users\Ridwane\AppData\Local\Temp\ccCiuDk5.debug.temp.o
 .debug_str     0x00000000      0x2a2 C:\Users\Ridwane\AppData\Local\Temp\ccCiuDk5.debug.temp.o
 .debug_line_str
                0x00000000      0x206 C:\Users\Ridwane\AppData\Local\Temp\ccCiuDk5.debug.temp.o
 .comment       0x00000000       0x34 C:\Users\Ridwane\AppData\Local\Temp\ccCiuDk5.debug.temp.o
 .comment       0x00000000       0x34 C:\Users\Ridwane\AppData\Local\Temp\cceQi06Y.debug.temp.o
 .comment       0x00000000       0x34 C:\Users\Ridwane\AppData\Local\Temp\ccKcZOOS.debug.temp.o
 .comment       0x00000000       0x34 C:\Users\Ridwane\AppData\Local\Temp\ccEBa4IM.debug.temp.o
 .comment       0x00000000       0x34 C:\Users\Ridwane\AppData\Local\Temp\ccUToRxG.debug.temp.o
 .debug_info    0x00000000       0x7a C:\Users\Ridwane\AppData\Local\Temp\ccacDEmA.debug.temp.o
 .debug_abbrev  0x00000000       0x26 C:\Users\Ridwane\AppData\Local\Temp\ccacDEmA.debug.temp.o
 .debug_line    0x00000000       0x31 C:\Users\Ridwane\AppData\Local\Temp\ccacDEmA.debug.temp.o
 .debug_str     0x00000000      0x1b8 C:\Users\Ridwane\AppData\Local\Temp\ccacDEmA.debug.temp.o
 .debug_line_str
                0x00000000       0x62 C:\Users\Ridwane\AppData\Local\Temp\ccacDEmA.debug.temp.o
 .comment       0x00000000       0x34 C:\Users\Ridwane\AppData\Local\Temp\ccacDEmA.debug.temp.o
 .debug_info    0x00000000       0x7a C:\Users\Ridwane\AppData\Local\Temp\ccsnV7qu.debug.temp.o
 .debug_abbrev  0x00000000       0x26 C:\Users\Ridwane\AppData\Local\Temp\ccsnV7qu.debug.temp.o
 .debug_line    0x00000000       0x31 C:\Users\Ridwane\AppData\Local\Temp\ccsnV7qu.debug.temp.o
 .debug_str     0x00000000      0x1b6 C:\Users\Ridwane\AppData\Local\Temp\ccsnV7qu.debug.temp.o
 .debug_line_str
                0x00000000       0x60 C:\Users\Ridwane\AppData\Local\Temp\ccsnV7qu.debug.temp.o
 .comment       0x00000000       0x34 C:\Users\Ridwane\AppData\Local\Temp\ccsnV7qu.debug.temp.o
 .debug_info    0x00000000       0x7a C:\Users\Ridwane\AppData\Local\Temp\ccqIbNwo.debug.temp.o
 .debug_abbrev  0x00000000       0x26 C:\Users\Ridwane\AppData\Local\Temp\ccqIbNwo.debug.temp.o
 .debug_line    0x00000000       0x31 C:\Users\Ridwane\AppData\Local\Temp\ccqIbNwo.debug.temp.o
 .debug_str     0x00000000      0x1b8 C:\Users\Ridwane\AppData\Local\Temp\ccqIbNwo.debug.temp.o
 .debug_line_str
                0x00000000       0x62 C:\Users\Ridwane\AppData\Local\Temp\ccqIbNwo.debug.temp.o
 .comment       0x00000000       0x34 C:\Users\Ridwane\AppData\Local\Temp\ccqIbNwo.debug.temp.o
 .comment       0x00000000       0x34 C:\Users\Ridwane\AppData\Local\Temp\ccyoI2yi.debug.temp.o
 .comment       0x00000000       0x34 C:\Users\Ridwane\AppData\Local\Temp\ccshFsOc.debug.temp.o
 .comment       0x00000000       0x34 C:\Users\Ridwane\AppData\Local\Temp\ccmaCS36.debug.temp.o
 .comment       0x00000000       0x34 C:\Users\Ridwane\AppData\Local\Temp\cc8kGSe1.debug.temp.o
 .debug_info    0x00000000       0x7a C:\Users\Ridwane\AppData\Local\Temp\ccCaOZsU.debug.temp.o
 .debug_abbrev  0x00000000       0x26 C:\Users\Ridwane\AppData\Local\Temp\ccCaOZsU.debug.temp.o
 .debug_line    0x00000000       0x31 C:\Users\Ridwane\AppData\Local\Temp\ccCaOZsU.debug.temp.o
 .debug_str     0x00000000      0x1a7 C:\Users\Ridwane\AppData\Local\Temp\ccCaOZsU.debug.temp.o
 .debug_line_str
                0x00000000       0x51 C:\Users\Ridwane\AppData\Local\Temp\ccCaOZsU.debug.temp.o
 .comment       0x00000000       0x34 C:\Users\Ridwane\AppData\Local\Temp\ccCaOZsU.debug.temp.o
 .comment       0x00000000       0x34 C:\Users\Ridwane\AppData\Local\Temp\cc6ZV6GN.debug.temp.o
 .comment       0x00000000       0x34 C:\Users\Ridwane\AppData\Local\Temp\ccEdjY1G.debug.temp.o
 .debug_info    0x00000000       0x7a C:\Users\Ridwane\AppData\Local\Temp\ccuAYEoA.debug.temp.o
 .debug_abbrev  0x00000000       0x26 C:\Users\Ridwane\AppData\Local\Temp\ccuAYEoA.debug.temp.o
 .debug_line    0x00000000       0x31 C:\Users\Ridwane\AppData\Local\Temp\ccuAYEoA.debug.temp.o
 .debug_str     0x00000000      0x1a1 C:\Users\Ridwane\AppData\Local\Temp\ccuAYEoA.debug.temp.o
 .debug_line_str
                0x00000000       0x4b C:\Users\Ridwane\AppData\Local\Temp\ccuAYEoA.debug.temp.o
 .comment       0x00000000       0x34 C:\Users\Ridwane\AppData\Local\Temp\ccuAYEoA.debug.temp.o
 .debug_info    0x00000000       0x7a C:\Users\Ridwane\AppData\Local\Temp\ccSK0SGt.debug.temp.o
 .debug_abbrev  0x00000000       0x26 C:\Users\Ridwane\AppData\Local\Temp\ccSK0SGt.debug.temp.o
 .debug_line    0x00000000       0x31 C:\Users\Ridwane\AppData\Local\Temp\ccSK0SGt.debug.temp.o
 .debug_str     0x00000000      0x1a1 C:\Users\Ridwane\AppData\Local\Temp\ccSK0SGt.debug.temp.o
 .debug_line_str
                0x00000000       0x4b C:\Users\Ridwane\AppData\Local\Temp\ccSK0SGt.debug.temp.o
 .comment       0x00000000       0x34 C:\Users\Ridwane\AppData\Local\Temp\ccSK0SGt.debug.temp.o
 .comment       0x00000000       0x34 C:\Users\Ridwane\AppData\Local\Temp\ccgV26Ym.debug.temp.o
 .comment       0x00000000       0x34 C:\Users\Ridwane\AppData\Local\Temp\cc0I1Zug.debug.temp.o
 .comment       0x00000000       0x34 C:\Users\Ridwane\AppData\Local\Temp\ccUbvXV9.debug.temp.o
 .comment       0x00000000       0x34 C:\Users\Ridwane\AppData\Local\Temp\ccaiVzA3.debug.temp.o
 .comment       0x00000000       0x34 C:\Users\Ridwane\AppData\Local\Temp\ccqolcfX.debug.temp.o
 .comment       0x00000000       0x34 C:\Users\Ridwane\AppData\Local\Temp\ccWmbsPQ.debug.temp.o
 .comment       0x00000000       0x34 C:\Users\Ridwane\AppData\Local\Temp\cciSG5pJ.debug.temp.o
 .comment       0x00000000       0x34 C:\Users\Ridwane\AppData\Local\Temp\cc029BXB.debug.temp.o
 .comment       0x00000000       0x34 C:\Users\Ridwane\AppData\Local\Temp\ccY9anIu.debug.temp.o
 .comment       0x00000000       0x34 C:\Users\Ridwane\AppData\Local\Temp\ccwr49mn.debug.temp.o
 .comment       0x00000000       0x34 C:\Users\Ridwane\AppData\Local\Temp\cckFvbfg.debug.temp.o
 .comment       0x00000000       0x34 C:\Users\Ridwane\AppData\Local\Temp\ccSqom28.debug.temp.o
 .comment       0x00000000       0x34 C:\Users\Ridwane\AppData\Local\Temp\ccuuTY31.debug.temp.o
 .comment       0x00000000       0x34 C:\Users\Ridwane\AppData\Local\Temp\cc2Lkl8U.debug.temp.o
 .comment       0x00000000       0x34 C:\Users\Ridwane\AppData\Local\Temp\cceur77N.debug.temp.o
 .comment       0x00000000       0x34 C:\Users\Ridwane\AppData\Local\Temp\cceuUSaG.debug.temp.o
 .comment       0x00000000       0x34 C:\Users\Ridwane\AppData\Local\Temp\cc0ibt6x.debug.temp.o
 .comment       0x00000000       0x34 C:\Users\Ridwane\AppData\Local\Temp\cciyl9fq.debug.temp.o
 .comment       0x00000000       0x34 C:\Users\Ridwane\AppData\Local\Temp\ccANvPpi.debug.temp.o
 .comment       0x00000000       0x34 C:\Users\Ridwane\AppData\Local\Temp\cc08mrua.debug.temp.o
 .comment       0x00000000       0x34 C:\Users\Ridwane\AppData\Local\Temp\cccHEdM2.debug.temp.o
 .comment       0x00000000       0x34 C:\Users\Ridwane\AppData\Local\Temp\cc0CkpZU.debug.temp.o
 .comment       0x00000000       0x34 C:\Users\Ridwane\AppData\Local\Temp\cccLKoqN.debug.temp.o
 .comment       0x00000000       0x34 C:\Users\Ridwane\AppData\Local\Temp\ccqQ2iMF.debug.temp.o
 .comment       0x00000000       0x34 C:\Users\Ridwane\AppData\Local\Temp\ccEVkd8x.debug.temp.o
 .comment       0x00000000       0x34 C:\Users\Ridwane\AppData\Local\Temp\ccM31Udu.debug.temp.o
 .comment       0x00000000       0x34 C:\Users\Ridwane\AppData\Local\Temp\cceEa8eq.debug.temp.o
 .comment       0x00000000       0x34 C:\Users\Ridwane\AppData\Local\Temp\ccOU8tkm.debug.temp.o
 .comment       0x00000000       0x34 C:\Users\Ridwane\AppData\Local\Temp\ccob7Ppi.debug.temp.o
 .comment       0x00000000       0x34 C:\Users\Ridwane\AppData\Local\Temp\ccQlUMIe.debug.temp.o
 .comment       0x00000000       0x34 C:\Users\Ridwane\AppData\Local\Temp\ccYXASWa.debug.temp.o
 .comment       0x00000000       0x34 C:\Users\Ridwane\AppData\Local\Temp\ccQl65o7.debug.temp.o
 .comment       0x00000000       0x34 C:\Users\Ridwane\AppData\Local\Temp\ccIJBjR3.debug.temp.o
 .comment       0x00000000       0x34 C:\Users\Ridwane\AppData\Local\Temp\ccqOnHe0.debug.temp.o
 .comment       0x00000000       0x34 C:\Users\Ridwane\AppData\Local\Temp\ccmgUaPW.debug.temp.o
 .comment       0x00000000       0x34 C:\Users\Ridwane\AppData\Local\Temp\cco7vFlS.debug.temp.o
 .comment       0x00000000       0x34 C:\Users\Ridwane\AppData\Local\Temp\ccKIgpUN.debug.temp.o
 .comment       0x00000000       0x34 C:\Users\Ridwane\AppData\Local\Temp\ccSWMzoJ.debug.temp.o
 .comment       0x00000000       0x34 C:\Users\Ridwane\AppData\Local\Temp\ccU7ol6E.debug.temp.o
 .comment       0x00000000       0x34 C:\Users\Ridwane\AppData\Local\Temp\cc80MbJA.debug.temp.o
 .comment       0x00000000       0x34 C:\Users\Ridwane\AppData\Local\Temp\ccmUa2lw.debug.temp.o
 .comment       0x00000000       0x34 C:\Users\Ridwane\AppData\Local\Temp\ccKM3d5r.debug.temp.o
 .comment       0x00000000       0x34 C:\Users\Ridwane\AppData\Local\Temp\cc2rh7Rn.debug.temp.o
 .comment       0x00000000       0x34 C:\Users\Ridwane\AppData\Local\Temp\cck7u0Ej.debug.temp.o
 .comment       0x00000000       0x34 C:\Users\Ridwane\AppData\Local\Temp\cccLAAFf.debug.temp.o
 .comment       0x00000000       0x34 C:\Users\Ridwane\AppData\Local\Temp\ccaYCeBb.debug.temp.o
 .comment       0x00000000       0x34 C:\Users\Ridwane\AppData\Local\Temp\ccucy7y6.debug.temp.o
 .debug_info    0x00000000      0x523 C:\Users\Ridwane\AppData\Local\Temp\cc48Dgr1.debug.temp.o
 .debug_abbrev  0x00000000      0x1c9 C:\Users\Ridwane\AppData\Local\Temp\cc48Dgr1.debug.temp.o
 .debug_line    0x00000000       0x76 C:\Users\Ridwane\AppData\Local\Temp\cc48Dgr1.debug.temp.o
 .debug_str     0x00000000      0x352 C:\Users\Ridwane\AppData\Local\Temp\cc48Dgr1.debug.temp.o
 .debug_line_str
                0x00000000      0x22b C:\Users\Ridwane\AppData\Local\Temp\cc48Dgr1.debug.temp.o
 .comment       0x00000000       0x34 C:\Users\Ridwane\AppData\Local\Temp\cc48Dgr1.debug.temp.o
 .comment       0x00000000       0x34 C:\Users\Ridwane\AppData\Local\Temp\ccYFp4wW.debug.temp.o
 .comment       0x00000000       0x34 C:\Users\Ridwane\AppData\Local\Temp\ccu65pyR.debug.temp.o
 .comment       0x00000000       0x34 C:\Users\Ridwane\AppData\Local\Temp\ccKQowBM.debug.temp.o
 .comment       0x00000000       0x34 C:\Users\Ridwane\AppData\Local\Temp\cc0AHCEH.debug.temp.o
 .comment       0x00000000       0x34 C:\Users\Ridwane\AppData\Local\Temp\ccawVIOC.debug.temp.o
 .comment       0x00000000       0x34 C:\Users\Ridwane\AppData\Local\Temp\cc6Tbp1x.debug.temp.o
 .comment       0x00000000       0x34 C:\Users\Ridwane\AppData\Local\Temp\cckpXTjt.debug.temp.o
 .debug_info    0x00000000     0x2b31 C:\Users\Ridwane\AppData\Local\Temp\cckdwBDo.debug.temp.o
 .debug_abbrev  0x00000000      0x2a0 C:\Users\Ridwane\AppData\Local\Temp\cckdwBDo.debug.temp.o
 .debug_line    0x00000000       0x64 C:\Users\Ridwane\AppData\Local\Temp\cckdwBDo.debug.temp.o
 .debug_str     0x00000000      0x97f C:\Users\Ridwane\AppData\Local\Temp\cckdwBDo.debug.temp.o
 .debug_line_str
                0x00000000      0x1c0 C:\Users\Ridwane\AppData\Local\Temp\cckdwBDo.debug.temp.o
 .comment       0x00000000       0x34 C:\Users\Ridwane\AppData\Local\Temp\cckdwBDo.debug.temp.o
 .comment       0x00000000       0x34 C:\Users\Ridwane\AppData\Local\Temp\ccE7SD0i.debug.temp.o
 .comment       0x00000000       0x34 C:\Users\Ridwane\AppData\Local\Temp\ccY1fGnd.debug.temp.o
 .comment       0x00000000       0x34 C:\Users\Ridwane\AppData\Local\Temp\ccqyQMF7.debug.temp.o
 .comment       0x00000000       0x34 C:\Users\Ridwane\AppData\Local\Temp\ccaCPxb2.debug.temp.o
 .text          0x00000000        0x0 c:/chibistudio/tools/gnu tools arm embedded/11.3 2022.08/bin/../lib/gcc/arm-none-eabi/11.3.1/thumb/v7e-m/nofp\libg_nano.a(libc_a-rand.o)
 .data          0x00000000        0x0 c:/chibistudio/tools/gnu tools arm embedded/11.3 2022.08/bin/../lib/gcc/arm-none-eabi/11.3.1/thumb/v7e-m/nofp\libg_nano.a(libc_a-rand.o)
 .bss           0x00000000        0x0 c:/chibistudio/tools/gnu tools arm embedded/11.3 2022.08/bin/../lib/gcc/arm-none-eabi/11.3.1/thumb/v7e-m/nofp\libg_nano.a(libc_a-rand.o)
 .text.srand    0x00000000       0x5c c:/chibistudio/tools/gnu tools arm embedded/11.3 2022.08/bin/../lib/gcc/arm-none-eabi/11.3.1/thumb/v7e-m/nofp\libg_nano.a(libc_a-rand.o)
 .text          0x00000000        0x0 c:/chibistudio/tools/gnu tools arm embedded/11.3 2022.08/bin/../lib/gcc/arm-none-eabi/11.3.1/thumb/v7e-m/nofp\libg_nano.a(libc_a-impure.o)
 .data          0x00000000        0x0 c:/chibistudio/tools/gnu tools arm embedded/11.3 2022.08/bin/../lib/gcc/arm-none-eabi/11.3.1/thumb/v7e-m/nofp\libg_nano.a(libc_a-impure.o)
 .bss           0x00000000        0x0 c:/chibistudio/tools/gnu tools arm embedded/11.3 2022.08/bin/../lib/gcc/arm-none-eabi/11.3.1/thumb/v7e-m/nofp\libg_nano.a(libc_a-impure.o)
 .text          0x00000000        0x0 c:/chibistudio/tools/gnu tools arm embedded/11.3 2022.08/bin/../lib/gcc/arm-none-eabi/11.3.1/thumb/v7e-m/nofp\libg_nano.a(libc_a-assert.o)
 .data          0x00000000        0x0 c:/chibistudio/tools/gnu tools arm embedded/11.3 2022.08/bin/../lib/gcc/arm-none-eabi/11.3.1/thumb/v7e-m/nofp\libg_nano.a(libc_a-assert.o)
 .bss           0x00000000        0x0 c:/chibistudio/tools/gnu tools arm embedded/11.3 2022.08/bin/../lib/gcc/arm-none-eabi/11.3.1/thumb/v7e-m/nofp\libg_nano.a(libc_a-assert.o)
 .text.__assert
                0x00000000        0xa c:/chibistudio/tools/gnu tools arm embedded/11.3 2022.08/bin/../lib/gcc/arm-none-eabi/11.3.1/thumb/v7e-m/nofp\libg_nano.a(libc_a-assert.o)
 .text          0x00000000        0x0 c:/chibistudio/tools/gnu tools arm embedded/11.3 2022.08/bin/../lib/gcc/arm-none-eabi/11.3.1/thumb/v7e-m/nofp\libg_nano.a(libc_a-malloc.o)
 .data          0x00000000        0x0 c:/chibistudio/tools/gnu tools arm embedded/11.3 2022.08/bin/../lib/gcc/arm-none-eabi/11.3.1/thumb/v7e-m/nofp\libg_nano.a(libc_a-malloc.o)
 .bss           0x00000000        0x0 c:/chibistudio/tools/gnu tools arm embedded/11.3 2022.08/bin/../lib/gcc/arm-none-eabi/11.3.1/thumb/v7e-m/nofp\libg_nano.a(libc_a-malloc.o)
 .text.free     0x00000000       0x10 c:/chibistudio/tools/gnu tools arm embedded/11.3 2022.08/bin/../lib/gcc/arm-none-eabi/11.3.1/thumb/v7e-m/nofp\libg_nano.a(libc_a-malloc.o)
 .text          0x00000000        0x0 c:/chibistudio/tools/gnu tools arm embedded/11.3 2022.08/bin/../lib/gcc/arm-none-eabi/11.3.1/thumb/v7e-m/nofp\libg_nano.a(libc_a-mallocr.o)
 .data          0x00000000        0x0 c:/chibistudio/tools/gnu tools arm embedded/11.3 2022.08/bin/../lib/gcc/arm-none-eabi/11.3.1/thumb/v7e-m/nofp\libg_nano.a(libc_a-mallocr.o)
 .bss           0x00000000        0x0 c:/chibistudio/tools/gnu tools arm embedded/11.3 2022.08/bin/../lib/gcc/arm-none-eabi/11.3.1/thumb/v7e-m/nofp\libg_nano.a(libc_a-mallocr.o)
 .text          0x00000000        0x0 c:/chibistudio/tools/gnu tools arm embedded/11.3 2022.08/bin/../lib/gcc/arm-none-eabi/11.3.1/thumb/v7e-m/nofp\libg_nano.a(libc_a-mlock.o)
 .data          0x00000000        0x0 c:/chibistudio/tools/gnu tools arm embedded/11.3 2022.08/bin/../lib/gcc/arm-none-eabi/11.3.1/thumb/v7e-m/nofp\libg_nano.a(libc_a-mlock.o)
 .bss           0x00000000        0x0 c:/chibistudio/tools/gnu tools arm embedded/11.3 2022.08/bin/../lib/gcc/arm-none-eabi/11.3.1/thumb/v7e-m/nofp\libg_nano.a(libc_a-mlock.o)
 .text          0x00000000        0x0 c:/chibistudio/tools/gnu tools arm embedded/11.3 2022.08/bin/../lib/gcc/arm-none-eabi/11.3.1/thumb/v7e-m/nofp\libg_nano.a(libc_a-fprintf.o)
 .data          0x00000000        0x0 c:/chibistudio/tools/gnu tools arm embedded/11.3 2022.08/bin/../lib/gcc/arm-none-eabi/11.3.1/thumb/v7e-m/nofp\libg_nano.a(libc_a-fprintf.o)
 .bss           0x00000000        0x0 c:/chibistudio/tools/gnu tools arm embedded/11.3 2022.08/bin/../lib/gcc/arm-none-eabi/11.3.1/thumb/v7e-m/nofp\libg_nano.a(libc_a-fprintf.o)
 .text._fprintf_r
                0x00000000       0x1a c:/chibistudio/tools/gnu tools arm embedded/11.3 2022.08/bin/../lib/gcc/arm-none-eabi/11.3.1/thumb/v7e-m/nofp\libg_nano.a(libc_a-fprintf.o)
 .text          0x00000000        0x0 c:/chibistudio/tools/gnu tools arm embedded/11.3 2022.08/bin/../lib/gcc/arm-none-eabi/11.3.1/thumb/v7e-m/nofp\libg_nano.a(libc_a-lock.o)
 .data          0x00000000        0x0 c:/chibistudio/tools/gnu tools arm embedded/11.3 2022.08/bin/../lib/gcc/arm-none-eabi/11.3.1/thumb/v7e-m/nofp\libg_nano.a(libc_a-lock.o)
 .bss           0x00000000        0x0 c:/chibistudio/tools/gnu tools arm embedded/11.3 2022.08/bin/../lib/gcc/arm-none-eabi/11.3.1/thumb/v7e-m/nofp\libg_nano.a(libc_a-lock.o)
 .text.__retarget_lock_init
                0x00000000        0x2 c:/chibistudio/tools/gnu tools arm embedded/11.3 2022.08/bin/../lib/gcc/arm-none-eabi/11.3.1/thumb/v7e-m/nofp\libg_nano.a(libc_a-lock.o)
 .text.__retarget_lock_init_recursive
                0x00000000        0x2 c:/chibistudio/tools/gnu tools arm embedded/11.3 2022.08/bin/../lib/gcc/arm-none-eabi/11.3.1/thumb/v7e-m/nofp\libg_nano.a(libc_a-lock.o)
 .text.__retarget_lock_close
                0x00000000        0x2 c:/chibistudio/tools/gnu tools arm embedded/11.3 2022.08/bin/../lib/gcc/arm-none-eabi/11.3.1/thumb/v7e-m/nofp\libg_nano.a(libc_a-lock.o)
 .text.__retarget_lock_close_recursive
                0x00000000        0x2 c:/chibistudio/tools/gnu tools arm embedded/11.3 2022.08/bin/../lib/gcc/arm-none-eabi/11.3.1/thumb/v7e-m/nofp\libg_nano.a(libc_a-lock.o)
 .text.__retarget_lock_acquire
                0x00000000        0x2 c:/chibistudio/tools/gnu tools arm embedded/11.3 2022.08/bin/../lib/gcc/arm-none-eabi/11.3.1/thumb/v7e-m/nofp\libg_nano.a(libc_a-lock.o)
 .text.__retarget_lock_try_acquire
                0x00000000        0x4 c:/chibistudio/tools/gnu tools arm embedded/11.3 2022.08/bin/../lib/gcc/arm-none-eabi/11.3.1/thumb/v7e-m/nofp\libg_nano.a(libc_a-lock.o)
 .text.__retarget_lock_try_acquire_recursive
                0x00000000        0x4 c:/chibistudio/tools/gnu tools arm embedded/11.3 2022.08/bin/../lib/gcc/arm-none-eabi/11.3.1/thumb/v7e-m/nofp\libg_nano.a(libc_a-lock.o)
 .text.__retarget_lock_release
                0x00000000        0x2 c:/chibistudio/tools/gnu tools arm embedded/11.3 2022.08/bin/../lib/gcc/arm-none-eabi/11.3.1/thumb/v7e-m/nofp\libg_nano.a(libc_a-lock.o)
 .bss.__lock___arc4random_mutex
                0x00000000        0x1 c:/chibistudio/tools/gnu tools arm embedded/11.3 2022.08/bin/../lib/gcc/arm-none-eabi/11.3.1/thumb/v7e-m/nofp\libg_nano.a(libc_a-lock.o)
 .bss.__lock___at_quick_exit_mutex
                0x00000000        0x1 c:/chibistudio/tools/gnu tools arm embedded/11.3 2022.08/bin/../lib/gcc/arm-none-eabi/11.3.1/thumb/v7e-m/nofp\libg_nano.a(libc_a-lock.o)
 .bss.__lock___atexit_recursive_mutex
                0x00000000        0x1 c:/chibistudio/tools/gnu tools arm embedded/11.3 2022.08/bin/../lib/gcc/arm-none-eabi/11.3.1/thumb/v7e-m/nofp\libg_nano.a(libc_a-lock.o)
 .bss.__lock___dd_hash_mutex
                0x00000000        0x1 c:/chibistudio/tools/gnu tools arm embedded/11.3 2022.08/bin/../lib/gcc/arm-none-eabi/11.3.1/thumb/v7e-m/nofp\libg_nano.a(libc_a-lock.o)
 .bss.__lock___env_recursive_mutex
                0x00000000        0x1 c:/chibistudio/tools/gnu tools arm embedded/11.3 2022.08/bin/../lib/gcc/arm-none-eabi/11.3.1/thumb/v7e-m/nofp\libg_nano.a(libc_a-lock.o)
 .bss.__lock___tz_mutex
                0x00000000        0x1 c:/chibistudio/tools/gnu tools arm embedded/11.3 2022.08/bin/../lib/gcc/arm-none-eabi/11.3.1/thumb/v7e-m/nofp\libg_nano.a(libc_a-lock.o)
 .text          0x00000000        0x0 c:/chibistudio/tools/gnu tools arm embedded/11.3 2022.08/bin/../lib/gcc/arm-none-eabi/11.3.1/thumb/v7e-m/nofp\libg_nano.a(libc_a-abort.o)
 .data          0x00000000        0x0 c:/chibistudio/tools/gnu tools arm embedded/11.3 2022.08/bin/../lib/gcc/arm-none-eabi/11.3.1/thumb/v7e-m/nofp\libg_nano.a(libc_a-abort.o)
 .bss           0x00000000        0x0 c:/chibistudio/tools/gnu tools arm embedded/11.3 2022.08/bin/../lib/gcc/arm-none-eabi/11.3.1/thumb/v7e-m/nofp\libg_nano.a(libc_a-abort.o)
 .text          0x00000000        0x0 c:/chibistudio/tools/gnu tools arm embedded/11.3 2022.08/bin/../lib/gcc/arm-none-eabi/11.3.1/thumb/v7e-m/nofp\libg_nano.a(libc_a-freer.o)
 .data          0x00000000        0x0 c:/chibistudio/tools/gnu tools arm embedded/11.3 2022.08/bin/../lib/gcc/arm-none-eabi/11.3.1/thumb/v7e-m/nofp\libg_nano.a(libc_a-freer.o)
 .bss           0x00000000        0x0 c:/chibistudio/tools/gnu tools arm embedded/11.3 2022.08/bin/../lib/gcc/arm-none-eabi/11.3.1/thumb/v7e-m/nofp\libg_nano.a(libc_a-freer.o)
 .text          0x00000000        0x0 c:/chibistudio/tools/gnu tools arm embedded/11.3 2022.08/bin/../lib/gcc/arm-none-eabi/11.3.1/thumb/v7e-m/nofp\libg_nano.a(libc_a-nano-vfprintf.o)
 .data          0x00000000        0x0 c:/chibistudio/tools/gnu tools arm embedded/11.3 2022.08/bin/../lib/gcc/arm-none-eabi/11.3.1/thumb/v7e-m/nofp\libg_nano.a(libc_a-nano-vfprintf.o)
 .bss           0x00000000        0x0 c:/chibistudio/tools/gnu tools arm embedded/11.3 2022.08/bin/../lib/gcc/arm-none-eabi/11.3.1/thumb/v7e-m/nofp\libg_nano.a(libc_a-nano-vfprintf.o)
 .text.__sprint_r
                0x00000000       0x1a c:/chibistudio/tools/gnu tools arm embedded/11.3 2022.08/bin/../lib/gcc/arm-none-eabi/11.3.1/thumb/v7e-m/nofp\libg_nano.a(libc_a-nano-vfprintf.o)
 .text.vfprintf
                0x00000000       0x14 c:/chibistudio/tools/gnu tools arm embedded/11.3 2022.08/bin/../lib/gcc/arm-none-eabi/11.3.1/thumb/v7e-m/nofp\libg_nano.a(libc_a-nano-vfprintf.o)
 .text          0x00000000        0x0 c:/chibistudio/tools/gnu tools arm embedded/11.3 2022.08/bin/../lib/gcc/arm-none-eabi/11.3.1/thumb/v7e-m/nofp\libg_nano.a(libc_a-nano-vfprintf_i.o)
 .data          0x00000000        0x0 c:/chibistudio/tools/gnu tools arm embedded/11.3 2022.08/bin/../lib/gcc/arm-none-eabi/11.3.1/thumb/v7e-m/nofp\libg_nano.a(libc_a-nano-vfprintf_i.o)
 .bss           0x00000000        0x0 c:/chibistudio/tools/gnu tools arm embedded/11.3 2022.08/bin/../lib/gcc/arm-none-eabi/11.3.1/thumb/v7e-m/nofp\libg_nano.a(libc_a-nano-vfprintf_i.o)
 .text          0x00000000        0x0 c:/chibistudio/tools/gnu tools arm embedded/11.3 2022.08/bin/../lib/gcc/arm-none-eabi/11.3.1/thumb/v7e-m/nofp\libg_nano.a(libc_a-findfp.o)
 .data          0x00000000        0x0 c:/chibistudio/tools/gnu tools arm embedded/11.3 2022.08/bin/../lib/gcc/arm-none-eabi/11.3.1/thumb/v7e-m/nofp\libg_nano.a(libc_a-findfp.o)
 .bss           0x00000000        0x0 c:/chibistudio/tools/gnu tools arm embedded/11.3 2022.08/bin/../lib/gcc/arm-none-eabi/11.3.1/thumb/v7e-m/nofp\libg_nano.a(libc_a-findfp.o)
 .text.__fp_lock
                0x00000000       0x18 c:/chibistudio/tools/gnu tools arm embedded/11.3 2022.08/bin/../lib/gcc/arm-none-eabi/11.3.1/thumb/v7e-m/nofp\libg_nano.a(libc_a-findfp.o)
 .text.__fp_unlock
                0x00000000       0x18 c:/chibistudio/tools/gnu tools arm embedded/11.3 2022.08/bin/../lib/gcc/arm-none-eabi/11.3.1/thumb/v7e-m/nofp\libg_nano.a(libc_a-findfp.o)
 .text.__sfp    0x00000000       0xa8 c:/chibistudio/tools/gnu tools arm embedded/11.3 2022.08/bin/../lib/gcc/arm-none-eabi/11.3.1/thumb/v7e-m/nofp\libg_nano.a(libc_a-findfp.o)
 .text.__fp_lock_all
                0x00000000       0x1c c:/chibistudio/tools/gnu tools arm embedded/11.3 2022.08/bin/../lib/gcc/arm-none-eabi/11.3.1/thumb/v7e-m/nofp\libg_nano.a(libc_a-findfp.o)
 .text.__fp_unlock_all
                0x00000000       0x1c c:/chibistudio/tools/gnu tools arm embedded/11.3 2022.08/bin/../lib/gcc/arm-none-eabi/11.3.1/thumb/v7e-m/nofp\libg_nano.a(libc_a-findfp.o)
 .text          0x00000000        0x0 c:/chibistudio/tools/gnu tools arm embedded/11.3 2022.08/bin/../lib/gcc/arm-none-eabi/11.3.1/thumb/v7e-m/nofp\libg_nano.a(libc_a-fvwrite.o)
 .data          0x00000000        0x0 c:/chibistudio/tools/gnu tools arm embedded/11.3 2022.08/bin/../lib/gcc/arm-none-eabi/11.3.1/thumb/v7e-m/nofp\libg_nano.a(libc_a-fvwrite.o)
 .bss           0x00000000        0x0 c:/chibistudio/tools/gnu tools arm embedded/11.3 2022.08/bin/../lib/gcc/arm-none-eabi/11.3.1/thumb/v7e-m/nofp\libg_nano.a(libc_a-fvwrite.o)
 .text.__sfvwrite_r
                0x00000000      0x294 c:/chibistudio/tools/gnu tools arm embedded/11.3 2022.08/bin/../lib/gcc/arm-none-eabi/11.3.1/thumb/v7e-m/nofp\libg_nano.a(libc_a-fvwrite.o)
 .debug_info    0x00000000      0xb39 c:/chibistudio/tools/gnu tools arm embedded/11.3 2022.08/bin/../lib/gcc/arm-none-eabi/11.3.1/thumb/v7e-m/nofp\libg_nano.a(libc_a-fvwrite.o)
 .debug_abbrev  0x00000000      0x21b c:/chibistudio/tools/gnu tools arm embedded/11.3 2022.08/bin/../lib/gcc/arm-none-eabi/11.3.1/thumb/v7e-m/nofp\libg_nano.a(libc_a-fvwrite.o)
 .debug_loclists
                0x00000000      0x420 c:/chibistudio/tools/gnu tools arm embedded/11.3 2022.08/bin/../lib/gcc/arm-none-eabi/11.3.1/thumb/v7e-m/nofp\libg_nano.a(libc_a-fvwrite.o)
 .debug_aranges
                0x00000000       0x20 c:/chibistudio/tools/gnu tools arm embedded/11.3 2022.08/bin/../lib/gcc/arm-none-eabi/11.3.1/thumb/v7e-m/nofp\libg_nano.a(libc_a-fvwrite.o)
 .debug_rnglists
                0x00000000       0x2e c:/chibistudio/tools/gnu tools arm embedded/11.3 2022.08/bin/../lib/gcc/arm-none-eabi/11.3.1/thumb/v7e-m/nofp\libg_nano.a(libc_a-fvwrite.o)
 .debug_line    0x00000000      0x601 c:/chibistudio/tools/gnu tools arm embedded/11.3 2022.08/bin/../lib/gcc/arm-none-eabi/11.3.1/thumb/v7e-m/nofp\libg_nano.a(libc_a-fvwrite.o)
 .debug_str     0x00000000      0x5ca c:/chibistudio/tools/gnu tools arm embedded/11.3 2022.08/bin/../lib/gcc/arm-none-eabi/11.3.1/thumb/v7e-m/nofp\libg_nano.a(libc_a-fvwrite.o)
 .comment       0x00000000       0x34 c:/chibistudio/tools/gnu tools arm embedded/11.3 2022.08/bin/../lib/gcc/arm-none-eabi/11.3.1/thumb/v7e-m/nofp\libg_nano.a(libc_a-fvwrite.o)
 .debug_frame   0x00000000       0x3c c:/chibistudio/tools/gnu tools arm embedded/11.3 2022.08/bin/../lib/gcc/arm-none-eabi/11.3.1/thumb/v7e-m/nofp\libg_nano.a(libc_a-fvwrite.o)
 .ARM.attributes
                0x00000000       0x2e c:/chibistudio/tools/gnu tools arm embedded/11.3 2022.08/bin/../lib/gcc/arm-none-eabi/11.3.1/thumb/v7e-m/nofp\libg_nano.a(libc_a-fvwrite.o)
 .text          0x00000000        0x0 c:/chibistudio/tools/gnu tools arm embedded/11.3 2022.08/bin/../lib/gcc/arm-none-eabi/11.3.1/thumb/v7e-m/nofp\libg_nano.a(libc_a-fwalk.o)
 .data          0x00000000        0x0 c:/chibistudio/tools/gnu tools arm embedded/11.3 2022.08/bin/../lib/gcc/arm-none-eabi/11.3.1/thumb/v7e-m/nofp\libg_nano.a(libc_a-fwalk.o)
 .bss           0x00000000        0x0 c:/chibistudio/tools/gnu tools arm embedded/11.3 2022.08/bin/../lib/gcc/arm-none-eabi/11.3.1/thumb/v7e-m/nofp\libg_nano.a(libc_a-fwalk.o)
 .text          0x00000000        0x0 c:/chibistudio/tools/gnu tools arm embedded/11.3 2022.08/bin/../lib/gcc/arm-none-eabi/11.3.1/thumb/v7e-m/nofp\libg_nano.a(libc_a-stdio.o)
 .data          0x00000000        0x0 c:/chibistudio/tools/gnu tools arm embedded/11.3 2022.08/bin/../lib/gcc/arm-none-eabi/11.3.1/thumb/v7e-m/nofp\libg_nano.a(libc_a-stdio.o)
 .bss           0x00000000        0x0 c:/chibistudio/tools/gnu tools arm embedded/11.3 2022.08/bin/../lib/gcc/arm-none-eabi/11.3.1/thumb/v7e-m/nofp\libg_nano.a(libc_a-stdio.o)
 .text.__seofread
                0x00000000        0x4 c:/chibistudio/tools/gnu tools arm embedded/11.3 2022.08/bin/../lib/gcc/arm-none-eabi/11.3.1/thumb/v7e-m/nofp\libg_nano.a(libc_a-stdio.o)
 .text          0x00000000        0x0 c:/chibistudio/tools/gnu tools arm embedded/11.3 2022.08/bin/../lib/gcc/arm-none-eabi/11.3.1/thumb/v7e-m/nofp\libg_nano.a(libc_a-wbuf.o)
 .data          0x00000000        0x0 c:/chibistudio/tools/gnu tools arm embedded/11.3 2022.08/bin/../lib/gcc/arm-none-eabi/11.3.1/thumb/v7e-m/nofp\libg_nano.a(libc_a-wbuf.o)
 .bss           0x00000000        0x0 c:/chibistudio/tools/gnu tools arm embedded/11.3 2022.08/bin/../lib/gcc/arm-none-eabi/11.3.1/thumb/v7e-m/nofp\libg_nano.a(libc_a-wbuf.o)
 .text.__swbuf  0x00000000       0x10 c:/chibistudio/tools/gnu tools arm embedded/11.3 2022.08/bin/../lib/gcc/arm-none-eabi/11.3.1/thumb/v7e-m/nofp\libg_nano.a(libc_a-wbuf.o)
 .text          0x00000000        0x0 c:/chibistudio/tools/gnu tools arm embedded/11.3 2022.08/bin/../lib/gcc/arm-none-eabi/11.3.1/thumb/v7e-m/nofp\libg_nano.a(libc_a-wsetup.o)
 .data          0x00000000        0x0 c:/chibistudio/tools/gnu tools arm embedded/11.3 2022.08/bin/../lib/gcc/arm-none-eabi/11.3.1/thumb/v7e-m/nofp\libg_nano.a(libc_a-wsetup.o)
 .bss           0x00000000        0x0 c:/chibistudio/tools/gnu tools arm embedded/11.3 2022.08/bin/../lib/gcc/arm-none-eabi/11.3.1/thumb/v7e-m/nofp\libg_nano.a(libc_a-wsetup.o)
 .text          0x00000000        0x0 c:/chibistudio/tools/gnu tools arm embedded/11.3 2022.08/bin/../lib/gcc/arm-none-eabi/11.3.1/thumb/v7e-m/nofp\libg_nano.a(libc_a-memmove.o)
 .data          0x00000000        0x0 c:/chibistudio/tools/gnu tools arm embedded/11.3 2022.08/bin/../lib/gcc/arm-none-eabi/11.3.1/thumb/v7e-m/nofp\libg_nano.a(libc_a-memmove.o)
 .bss           0x00000000        0x0 c:/chibistudio/tools/gnu tools arm embedded/11.3 2022.08/bin/../lib/gcc/arm-none-eabi/11.3.1/thumb/v7e-m/nofp\libg_nano.a(libc_a-memmove.o)
 .text          0x00000000        0x0 c:/chibistudio/tools/gnu tools arm embedded/11.3 2022.08/bin/../lib/gcc/arm-none-eabi/11.3.1/thumb/v7e-m/nofp\libg_nano.a(libc_a-memset.o)
 .data          0x00000000        0x0 c:/chibistudio/tools/gnu tools arm embedded/11.3 2022.08/bin/../lib/gcc/arm-none-eabi/11.3.1/thumb/v7e-m/nofp\libg_nano.a(libc_a-memset.o)
 .bss           0x00000000        0x0 c:/chibistudio/tools/gnu tools arm embedded/11.3 2022.08/bin/../lib/gcc/arm-none-eabi/11.3.1/thumb/v7e-m/nofp\libg_nano.a(libc_a-memset.o)
 .text          0x00000000        0x0 c:/chibistudio/tools/gnu tools arm embedded/11.3 2022.08/bin/../lib/gcc/arm-none-eabi/11.3.1/thumb/v7e-m/nofp\libg_nano.a(libc_a-signal.o)
 .data          0x00000000        0x0 c:/chibistudio/tools/gnu tools arm embedded/11.3 2022.08/bin/../lib/gcc/arm-none-eabi/11.3.1/thumb/v7e-m/nofp\libg_nano.a(libc_a-signal.o)
 .bss           0x00000000        0x0 c:/chibistudio/tools/gnu tools arm embedded/11.3 2022.08/bin/../lib/gcc/arm-none-eabi/11.3.1/thumb/v7e-m/nofp\libg_nano.a(libc_a-signal.o)
 .text._init_signal_r
                0x00000000       0x28 c:/chibistudio/tools/gnu tools arm embedded/11.3 2022.08/bin/../lib/gcc/arm-none-eabi/11.3.1/thumb/v7e-m/nofp\libg_nano.a(libc_a-signal.o)
 .text._signal_r
                0x00000000       0x30 c:/chibistudio/tools/gnu tools arm embedded/11.3 2022.08/bin/../lib/gcc/arm-none-eabi/11.3.1/thumb/v7e-m/nofp\libg_nano.a(libc_a-signal.o)
 .text.__sigtramp_r
                0x00000000       0x48 c:/chibistudio/tools/gnu tools arm embedded/11.3 2022.08/bin/../lib/gcc/arm-none-eabi/11.3.1/thumb/v7e-m/nofp\libg_nano.a(libc_a-signal.o)
 .text.signal   0x00000000       0x10 c:/chibistudio/tools/gnu tools arm embedded/11.3 2022.08/bin/../lib/gcc/arm-none-eabi/11.3.1/thumb/v7e-m/nofp\libg_nano.a(libc_a-signal.o)
 .text._init_signal
                0x00000000        0xc c:/chibistudio/tools/gnu tools arm embedded/11.3 2022.08/bin/../lib/gcc/arm-none-eabi/11.3.1/thumb/v7e-m/nofp\libg_nano.a(libc_a-signal.o)
 .text.__sigtramp
                0x00000000       0x10 c:/chibistudio/tools/gnu tools arm embedded/11.3 2022.08/bin/../lib/gcc/arm-none-eabi/11.3.1/thumb/v7e-m/nofp\libg_nano.a(libc_a-signal.o)
 .text          0x00000000        0x0 c:/chibistudio/tools/gnu tools arm embedded/11.3 2022.08/bin/../lib/gcc/arm-none-eabi/11.3.1/thumb/v7e-m/nofp\libg_nano.a(libc_a-signalr.o)
 .data          0x00000000        0x0 c:/chibistudio/tools/gnu tools arm embedded/11.3 2022.08/bin/../lib/gcc/arm-none-eabi/11.3.1/thumb/v7e-m/nofp\libg_nano.a(libc_a-signalr.o)
 .bss           0x00000000        0x0 c:/chibistudio/tools/gnu tools arm embedded/11.3 2022.08/bin/../lib/gcc/arm-none-eabi/11.3.1/thumb/v7e-m/nofp\libg_nano.a(libc_a-signalr.o)
 .data          0x00000000        0x0 c:/chibistudio/tools/gnu tools arm embedded/11.3 2022.08/bin/../lib/gcc/arm-none-eabi/11.3.1/thumb/v7e-m/nofp\libg_nano.a(libc_a-memchr.o)
 .bss           0x00000000        0x0 c:/chibistudio/tools/gnu tools arm embedded/11.3 2022.08/bin/../lib/gcc/arm-none-eabi/11.3.1/thumb/v7e-m/nofp\libg_nano.a(libc_a-memchr.o)
 .text          0x00000000        0x0 c:/chibistudio/tools/gnu tools arm embedded/11.3 2022.08/bin/../lib/gcc/arm-none-eabi/11.3.1/thumb/v7e-m/nofp\libg_nano.a(libc_a-memcpy-stub.o)
 .data          0x00000000        0x0 c:/chibistudio/tools/gnu tools arm embedded/11.3 2022.08/bin/../lib/gcc/arm-none-eabi/11.3.1/thumb/v7e-m/nofp\libg_nano.a(libc_a-memcpy-stub.o)
 .bss           0x00000000        0x0 c:/chibistudio/tools/gnu tools arm embedded/11.3 2022.08/bin/../lib/gcc/arm-none-eabi/11.3.1/thumb/v7e-m/nofp\libg_nano.a(libc_a-memcpy-stub.o)
 .text          0x00000000        0x0 c:/chibistudio/tools/gnu tools arm embedded/11.3 2022.08/bin/../lib/gcc/arm-none-eabi/11.3.1/thumb/v7e-m/nofp\libg_nano.a(libc_a-reallocr.o)
 .data          0x00000000        0x0 c:/chibistudio/tools/gnu tools arm embedded/11.3 2022.08/bin/../lib/gcc/arm-none-eabi/11.3.1/thumb/v7e-m/nofp\libg_nano.a(libc_a-reallocr.o)
 .bss           0x00000000        0x0 c:/chibistudio/tools/gnu tools arm embedded/11.3 2022.08/bin/../lib/gcc/arm-none-eabi/11.3.1/thumb/v7e-m/nofp\libg_nano.a(libc_a-reallocr.o)
 .text._realloc_r
                0x00000000       0x5e c:/chibistudio/tools/gnu tools arm embedded/11.3 2022.08/bin/../lib/gcc/arm-none-eabi/11.3.1/thumb/v7e-m/nofp\libg_nano.a(libc_a-reallocr.o)
 .debug_info    0x00000000      0x8c6 c:/chibistudio/tools/gnu tools arm embedded/11.3 2022.08/bin/../lib/gcc/arm-none-eabi/11.3.1/thumb/v7e-m/nofp\libg_nano.a(libc_a-reallocr.o)
 .debug_abbrev  0x00000000      0x217 c:/chibistudio/tools/gnu tools arm embedded/11.3 2022.08/bin/../lib/gcc/arm-none-eabi/11.3.1/thumb/v7e-m/nofp\libg_nano.a(libc_a-reallocr.o)
 .debug_loclists
                0x00000000       0xf0 c:/chibistudio/tools/gnu tools arm embedded/11.3 2022.08/bin/../lib/gcc/arm-none-eabi/11.3.1/thumb/v7e-m/nofp\libg_nano.a(libc_a-reallocr.o)
 .debug_aranges
                0x00000000       0x20 c:/chibistudio/tools/gnu tools arm embedded/11.3 2022.08/bin/../lib/gcc/arm-none-eabi/11.3.1/thumb/v7e-m/nofp\libg_nano.a(libc_a-reallocr.o)
 .debug_rnglists
                0x00000000       0x13 c:/chibistudio/tools/gnu tools arm embedded/11.3 2022.08/bin/../lib/gcc/arm-none-eabi/11.3.1/thumb/v7e-m/nofp\libg_nano.a(libc_a-reallocr.o)
 .debug_line    0x00000000      0x260 c:/chibistudio/tools/gnu tools arm embedded/11.3 2022.08/bin/../lib/gcc/arm-none-eabi/11.3.1/thumb/v7e-m/nofp\libg_nano.a(libc_a-reallocr.o)
 .debug_str     0x00000000      0x59c c:/chibistudio/tools/gnu tools arm embedded/11.3 2022.08/bin/../lib/gcc/arm-none-eabi/11.3.1/thumb/v7e-m/nofp\libg_nano.a(libc_a-reallocr.o)
 .comment       0x00000000       0x34 c:/chibistudio/tools/gnu tools arm embedded/11.3 2022.08/bin/../lib/gcc/arm-none-eabi/11.3.1/thumb/v7e-m/nofp\libg_nano.a(libc_a-reallocr.o)
 .debug_frame   0x00000000       0x3c c:/chibistudio/tools/gnu tools arm embedded/11.3 2022.08/bin/../lib/gcc/arm-none-eabi/11.3.1/thumb/v7e-m/nofp\libg_nano.a(libc_a-reallocr.o)
 .ARM.attributes
                0x00000000       0x2e c:/chibistudio/tools/gnu tools arm embedded/11.3 2022.08/bin/../lib/gcc/arm-none-eabi/11.3.1/thumb/v7e-m/nofp\libg_nano.a(libc_a-reallocr.o)
 .text          0x00000000        0x0 c:/chibistudio/tools/gnu tools arm embedded/11.3 2022.08/bin/../lib/gcc/arm-none-eabi/11.3.1/thumb/v7e-m/nofp\libg_nano.a(libc_a-fflush.o)
 .data          0x00000000        0x0 c:/chibistudio/tools/gnu tools arm embedded/11.3 2022.08/bin/../lib/gcc/arm-none-eabi/11.3.1/thumb/v7e-m/nofp\libg_nano.a(libc_a-fflush.o)
 .bss           0x00000000        0x0 c:/chibistudio/tools/gnu tools arm embedded/11.3 2022.08/bin/../lib/gcc/arm-none-eabi/11.3.1/thumb/v7e-m/nofp\libg_nano.a(libc_a-fflush.o)
 .text.fflush   0x00000000       0x28 c:/chibistudio/tools/gnu tools arm embedded/11.3 2022.08/bin/../lib/gcc/arm-none-eabi/11.3.1/thumb/v7e-m/nofp\libg_nano.a(libc_a-fflush.o)
 .text          0x00000000        0x0 c:/chibistudio/tools/gnu tools arm embedded/11.3 2022.08/bin/../lib/gcc/arm-none-eabi/11.3.1/thumb/v7e-m/nofp\libg_nano.a(libc_a-makebuf.o)
 .data          0x00000000        0x0 c:/chibistudio/tools/gnu tools arm embedded/11.3 2022.08/bin/../lib/gcc/arm-none-eabi/11.3.1/thumb/v7e-m/nofp\libg_nano.a(libc_a-makebuf.o)
 .bss           0x00000000        0x0 c:/chibistudio/tools/gnu tools arm embedded/11.3 2022.08/bin/../lib/gcc/arm-none-eabi/11.3.1/thumb/v7e-m/nofp\libg_nano.a(libc_a-makebuf.o)
 .text          0x00000000        0x0 c:/chibistudio/tools/gnu tools arm embedded/11.3 2022.08/bin/../lib/gcc/arm-none-eabi/11.3.1/thumb/v7e-m/nofp\libg_nano.a(libc_a-reent.o)
 .data          0x00000000        0x0 c:/chibistudio/tools/gnu tools arm embedded/11.3 2022.08/bin/../lib/gcc/arm-none-eabi/11.3.1/thumb/v7e-m/nofp\libg_nano.a(libc_a-reent.o)
 .bss           0x00000000        0x0 c:/chibistudio/tools/gnu tools arm embedded/11.3 2022.08/bin/../lib/gcc/arm-none-eabi/11.3.1/thumb/v7e-m/nofp\libg_nano.a(libc_a-reent.o)
 .text._reclaim_reent
                0x00000000       0xac c:/chibistudio/tools/gnu tools arm embedded/11.3 2022.08/bin/../lib/gcc/arm-none-eabi/11.3.1/thumb/v7e-m/nofp\libg_nano.a(libc_a-reent.o)
 .text          0x00000000        0x0 c:/chibistudio/tools/gnu tools arm embedded/11.3 2022.08/bin/../lib/gcc/arm-none-eabi/11.3.1/thumb/v7e-m/nofp\libg_nano.a(libc_a-msizer.o)
 .data          0x00000000        0x0 c:/chibistudio/tools/gnu tools arm embedded/11.3 2022.08/bin/../lib/gcc/arm-none-eabi/11.3.1/thumb/v7e-m/nofp\libg_nano.a(libc_a-msizer.o)
 .bss           0x00000000        0x0 c:/chibistudio/tools/gnu tools arm embedded/11.3 2022.08/bin/../lib/gcc/arm-none-eabi/11.3.1/thumb/v7e-m/nofp\libg_nano.a(libc_a-msizer.o)
 .text._malloc_usable_size_r
                0x00000000       0x10 c:/chibistudio/tools/gnu tools arm embedded/11.3 2022.08/bin/../lib/gcc/arm-none-eabi/11.3.1/thumb/v7e-m/nofp\libg_nano.a(libc_a-msizer.o)
 .debug_info    0x00000000      0x793 c:/chibistudio/tools/gnu tools arm embedded/11.3 2022.08/bin/../lib/gcc/arm-none-eabi/11.3.1/thumb/v7e-m/nofp\libg_nano.a(libc_a-msizer.o)
 .debug_abbrev  0x00000000      0x196 c:/chibistudio/tools/gnu tools arm embedded/11.3 2022.08/bin/../lib/gcc/arm-none-eabi/11.3.1/thumb/v7e-m/nofp\libg_nano.a(libc_a-msizer.o)
 .debug_loclists
                0x00000000       0x62 c:/chibistudio/tools/gnu tools arm embedded/11.3 2022.08/bin/../lib/gcc/arm-none-eabi/11.3.1/thumb/v7e-m/nofp\libg_nano.a(libc_a-msizer.o)
 .debug_aranges
                0x00000000       0x20 c:/chibistudio/tools/gnu tools arm embedded/11.3 2022.08/bin/../lib/gcc/arm-none-eabi/11.3.1/thumb/v7e-m/nofp\libg_nano.a(libc_a-msizer.o)
 .debug_rnglists
                0x00000000       0x13 c:/chibistudio/tools/gnu tools arm embedded/11.3 2022.08/bin/../lib/gcc/arm-none-eabi/11.3.1/thumb/v7e-m/nofp\libg_nano.a(libc_a-msizer.o)
 .debug_line    0x00000000      0x1f0 c:/chibistudio/tools/gnu tools arm embedded/11.3 2022.08/bin/../lib/gcc/arm-none-eabi/11.3.1/thumb/v7e-m/nofp\libg_nano.a(libc_a-msizer.o)
 .debug_str     0x00000000      0x56f c:/chibistudio/tools/gnu tools arm embedded/11.3 2022.08/bin/../lib/gcc/arm-none-eabi/11.3.1/thumb/v7e-m/nofp\libg_nano.a(libc_a-msizer.o)
 .comment       0x00000000       0x34 c:/chibistudio/tools/gnu tools arm embedded/11.3 2022.08/bin/../lib/gcc/arm-none-eabi/11.3.1/thumb/v7e-m/nofp\libg_nano.a(libc_a-msizer.o)
 .debug_frame   0x00000000       0x20 c:/chibistudio/tools/gnu tools arm embedded/11.3 2022.08/bin/../lib/gcc/arm-none-eabi/11.3.1/thumb/v7e-m/nofp\libg_nano.a(libc_a-msizer.o)
 .ARM.attributes
                0x00000000       0x2e c:/chibistudio/tools/gnu tools arm embedded/11.3 2022.08/bin/../lib/gcc/arm-none-eabi/11.3.1/thumb/v7e-m/nofp\libg_nano.a(libc_a-msizer.o)
 .text          0x00000000        0x0 c:/chibistudio/tools/gnu tools arm embedded/11.3 2022.08/bin/../lib/gcc/arm-none-eabi/11.3.1/thumb/v7e-m/nofp\libg_nano.a(libc_a-memcmp.o)
 .data          0x00000000        0x0 c:/chibistudio/tools/gnu tools arm embedded/11.3 2022.08/bin/../lib/gcc/arm-none-eabi/11.3.1/thumb/v7e-m/nofp\libg_nano.a(libc_a-memcmp.o)
 .bss           0x00000000        0x0 c:/chibistudio/tools/gnu tools arm embedded/11.3 2022.08/bin/../lib/gcc/arm-none-eabi/11.3.1/thumb/v7e-m/nofp\libg_nano.a(libc_a-memcmp.o)
 .text          0x00000000        0x0 c:/chibistudio/tools/gnu tools arm embedded/11.3 2022.08/bin/../lib/gcc/arm-none-eabi/11.3.1/thumb/v7e-m/nofp\libg_nano.a(libc_a-strncmp.o)
 .data          0x00000000        0x0 c:/chibistudio/tools/gnu tools arm embedded/11.3 2022.08/bin/../lib/gcc/arm-none-eabi/11.3.1/thumb/v7e-m/nofp\libg_nano.a(libc_a-strncmp.o)
 .bss           0x00000000        0x0 c:/chibistudio/tools/gnu tools arm embedded/11.3 2022.08/bin/../lib/gcc/arm-none-eabi/11.3.1/thumb/v7e-m/nofp\libg_nano.a(libc_a-strncmp.o)
 .data          0x00000000        0x0 c:/chibistudio/tools/gnu tools arm embedded/11.3 2022.08/bin/../lib/gcc/arm-none-eabi/11.3.1/thumb/v7e-m/nofp\libg_nano.a(libc_a-strcmp.o)
 .bss           0x00000000        0x0 c:/chibistudio/tools/gnu tools arm embedded/11.3 2022.08/bin/../lib/gcc/arm-none-eabi/11.3.1/thumb/v7e-m/nofp\libg_nano.a(libc_a-strcmp.o)

Memory Configuration

Name             Origin             Length             Attributes
flash0           0x08000000         0x00100000         xr
flash1           0x00000000         0x00000000         xr
flash2           0x00000000         0x00000000         xr
flash3           0x00000000         0x00000000         xr
flash4           0x00000000         0x00000000         xr
flash5           0x00000000         0x00000000         xr
flash6           0x00000000         0x00000000         xr
flash7           0x00000000         0x00000000         xr
ram0             0x20000000         0x00020000         xw
ram1             0x20000000         0x0001c000         xw
ram2             0x2001c000         0x00004000         xw
ram3             0x00000000         0x00000000         xw
ram4             0x10000000         0x00010000         xw
ram5             0x40024000         0x00001000         xw
ram6             0x00000000         0x00000000         xw
ram7             0x00000000         0x00000000         xw
*default*        0x00000000         0xffffffff

Linker script and memory map

LOAD ./build/obj/crt0_v7m.o
LOAD ./build/obj/vectors.o
LOAD ./build/obj/chcoreasm.o
LOAD ./build/obj/crt1.o
LOAD C:\Users\Ridwane\AppData\Local\Temp\cck5XY5Q.ltrans0.ltrans.o
LOAD C:\Users\Ridwane\AppData\Local\Temp\cck5XY5Q.ltrans1.ltrans.o
LOAD C:\Users\Ridwane\AppData\Local\Temp\cc8o5MEn.debug.temp.o
LOAD C:\Users\Ridwane\AppData\Local\Temp\ccGk73vd.debug.temp.o
LOAD C:\Users\Ridwane\AppData\Local\Temp\cca8hNi3.debug.temp.o
LOAD C:\Users\Ridwane\AppData\Local\Temp\ccEVsw5S.debug.temp.o
LOAD C:\Users\Ridwane\AppData\Local\Temp\ccumAU5I.debug.temp.o
LOAD C:\Users\Ridwane\AppData\Local\Temp\ccyW4p0y.debug.temp.o
LOAD C:\Users\Ridwane\AppData\Local\Temp\ccgBZC8o.debug.temp.o
LOAD C:\Users\Ridwane\AppData\Local\Temp\ccYfUPgf.debug.temp.o
LOAD C:\Users\Ridwane\AppData\Local\Temp\ccCiuDk5.debug.temp.o
LOAD C:\Users\Ridwane\AppData\Local\Temp\cceQi06Y.debug.temp.o
LOAD C:\Users\Ridwane\AppData\Local\Temp\ccKcZOOS.debug.temp.o
LOAD C:\Users\Ridwane\AppData\Local\Temp\ccEBa4IM.debug.temp.o
LOAD C:\Users\Ridwane\AppData\Local\Temp\ccUToRxG.debug.temp.o
LOAD C:\Users\Ridwane\AppData\Local\Temp\ccacDEmA.debug.temp.o
LOAD C:\Users\Ridwane\AppData\Local\Temp\ccsnV7qu.debug.temp.o
LOAD C:\Users\Ridwane\AppData\Local\Temp\ccqIbNwo.debug.temp.o
LOAD C:\Users\Ridwane\AppData\Local\Temp\ccyoI2yi.debug.temp.o
LOAD C:\Users\Ridwane\AppData\Local\Temp\ccshFsOc.debug.temp.o
LOAD C:\Users\Ridwane\AppData\Local\Temp\ccmaCS36.debug.temp.o
LOAD C:\Users\Ridwane\AppData\Local\Temp\cc8kGSe1.debug.temp.o
LOAD C:\Users\Ridwane\AppData\Local\Temp\ccCaOZsU.debug.temp.o
LOAD C:\Users\Ridwane\AppData\Local\Temp\cc6ZV6GN.debug.temp.o
LOAD C:\Users\Ridwane\AppData\Local\Temp\ccEdjY1G.debug.temp.o
LOAD C:\Users\Ridwane\AppData\Local\Temp\ccuAYEoA.debug.temp.o
LOAD C:\Users\Ridwane\AppData\Local\Temp\ccSK0SGt.debug.temp.o
LOAD C:\Users\Ridwane\AppData\Local\Temp\ccgV26Ym.debug.temp.o
LOAD C:\Users\Ridwane\AppData\Local\Temp\cc0I1Zug.debug.temp.o
LOAD C:\Users\Ridwane\AppData\Local\Temp\ccUbvXV9.debug.temp.o
LOAD C:\Users\Ridwane\AppData\Local\Temp\ccaiVzA3.debug.temp.o
LOAD C:\Users\Ridwane\AppData\Local\Temp\ccqolcfX.debug.temp.o
LOAD C:\Users\Ridwane\AppData\Local\Temp\ccWmbsPQ.debug.temp.o
LOAD C:\Users\Ridwane\AppData\Local\Temp\cciSG5pJ.debug.temp.o
LOAD C:\Users\Ridwane\AppData\Local\Temp\cc029BXB.debug.temp.o
LOAD C:\Users\Ridwane\AppData\Local\Temp\ccY9anIu.debug.temp.o
LOAD C:\Users\Ridwane\AppData\Local\Temp\ccwr49mn.debug.temp.o
LOAD C:\Users\Ridwane\AppData\Local\Temp\cckFvbfg.debug.temp.o
LOAD C:\Users\Ridwane\AppData\Local\Temp\ccSqom28.debug.temp.o
LOAD C:\Users\Ridwane\AppData\Local\Temp\ccuuTY31.debug.temp.o
LOAD C:\Users\Ridwane\AppData\Local\Temp\cc2Lkl8U.debug.temp.o
LOAD C:\Users\Ridwane\AppData\Local\Temp\cceur77N.debug.temp.o
LOAD C:\Users\Ridwane\AppData\Local\Temp\cceuUSaG.debug.temp.o
LOAD C:\Users\Ridwane\AppData\Local\Temp\cc0ibt6x.debug.temp.o
LOAD C:\Users\Ridwane\AppData\Local\Temp\cciyl9fq.debug.temp.o
LOAD C:\Users\Ridwane\AppData\Local\Temp\ccANvPpi.debug.temp.o
LOAD C:\Users\Ridwane\AppData\Local\Temp\cc08mrua.debug.temp.o
LOAD C:\Users\Ridwane\AppData\Local\Temp\cccHEdM2.debug.temp.o
LOAD C:\Users\Ridwane\AppData\Local\Temp\cc0CkpZU.debug.temp.o
LOAD C:\Users\Ridwane\AppData\Local\Temp\cccLKoqN.debug.temp.o
LOAD C:\Users\Ridwane\AppData\Local\Temp\ccqQ2iMF.debug.temp.o
LOAD C:\Users\Ridwane\AppData\Local\Temp\ccEVkd8x.debug.temp.o
LOAD C:\Users\Ridwane\AppData\Local\Temp\ccM31Udu.debug.temp.o
LOAD C:\Users\Ridwane\AppData\Local\Temp\cceEa8eq.debug.temp.o
LOAD C:\Users\Ridwane\AppData\Local\Temp\ccOU8tkm.debug.temp.o
LOAD C:\Users\Ridwane\AppData\Local\Temp\ccob7Ppi.debug.temp.o
LOAD C:\Users\Ridwane\AppData\Local\Temp\ccQlUMIe.debug.temp.o
LOAD C:\Users\Ridwane\AppData\Local\Temp\ccYXASWa.debug.temp.o
LOAD C:\Users\Ridwane\AppData\Local\Temp\ccQl65o7.debug.temp.o
LOAD C:\Users\Ridwane\AppData\Local\Temp\ccIJBjR3.debug.temp.o
LOAD C:\Users\Ridwane\AppData\Local\Temp\ccqOnHe0.debug.temp.o
LOAD C:\Users\Ridwane\AppData\Local\Temp\ccmgUaPW.debug.temp.o
LOAD C:\Users\Ridwane\AppData\Local\Temp\cco7vFlS.debug.temp.o
LOAD C:\Users\Ridwane\AppData\Local\Temp\ccKIgpUN.debug.temp.o
LOAD C:\Users\Ridwane\AppData\Local\Temp\ccSWMzoJ.debug.temp.o
LOAD C:\Users\Ridwane\AppData\Local\Temp\ccU7ol6E.debug.temp.o
LOAD C:\Users\Ridwane\AppData\Local\Temp\cc80MbJA.debug.temp.o
LOAD C:\Users\Ridwane\AppData\Local\Temp\ccmUa2lw.debug.temp.o
LOAD C:\Users\Ridwane\AppData\Local\Temp\ccKM3d5r.debug.temp.o
LOAD C:\Users\Ridwane\AppData\Local\Temp\cc2rh7Rn.debug.temp.o
LOAD C:\Users\Ridwane\AppData\Local\Temp\cck7u0Ej.debug.temp.o
LOAD C:\Users\Ridwane\AppData\Local\Temp\cccLAAFf.debug.temp.o
LOAD C:\Users\Ridwane\AppData\Local\Temp\ccaYCeBb.debug.temp.o
LOAD C:\Users\Ridwane\AppData\Local\Temp\ccucy7y6.debug.temp.o
LOAD C:\Users\Ridwane\AppData\Local\Temp\cc48Dgr1.debug.temp.o
LOAD C:\Users\Ridwane\AppData\Local\Temp\ccYFp4wW.debug.temp.o
LOAD C:\Users\Ridwane\AppData\Local\Temp\ccu65pyR.debug.temp.o
LOAD C:\Users\Ridwane\AppData\Local\Temp\ccKQowBM.debug.temp.o
LOAD C:\Users\Ridwane\AppData\Local\Temp\cc0AHCEH.debug.temp.o
LOAD C:\Users\Ridwane\AppData\Local\Temp\ccawVIOC.debug.temp.o
LOAD C:\Users\Ridwane\AppData\Local\Temp\cc6Tbp1x.debug.temp.o
LOAD C:\Users\Ridwane\AppData\Local\Temp\cckpXTjt.debug.temp.o
LOAD C:\Users\Ridwane\AppData\Local\Temp\cckdwBDo.debug.temp.o
LOAD C:\Users\Ridwane\AppData\Local\Temp\ccE7SD0i.debug.temp.o
LOAD C:\Users\Ridwane\AppData\Local\Temp\ccY1fGnd.debug.temp.o
LOAD C:\Users\Ridwane\AppData\Local\Temp\ccqyQMF7.debug.temp.o
LOAD C:\Users\Ridwane\AppData\Local\Temp\ccaCPxb2.debug.temp.o
LOAD ./build/obj/hal.o
LOAD ./build/obj/hal_st.o
LOAD ./build/obj/hal_buffered_serial.o
LOAD ./build/obj/hal_buffers.o
LOAD ./build/obj/hal_queues.o
LOAD ./build/obj/hal_flash.o
LOAD ./build/obj/hal_mmcsd.o
LOAD ./build/obj/hal_pal.o
LOAD ./build/obj/hal_serial.o
LOAD ./build/obj/nvic.o
LOAD ./build/obj/stm32_isr.o
LOAD ./build/obj/hal_lld.o
LOAD ./build/obj/hal_efl_lld.o
LOAD ./build/obj/stm32_dma.o
LOAD ./build/obj/stm32_exti.o
LOAD ./build/obj/hal_pal_lld.o
LOAD ./build/obj/hal_st_lld.o
LOAD ./build/obj/hal_serial_lld.o
LOAD ./build/obj/board.o
LOAD ./build/obj/osal.o
LOAD ./build/obj/chsys.o
LOAD ./build/obj/chrfcu.o
LOAD ./build/obj/chdebug.o
LOAD ./build/obj/chtrace.o
LOAD ./build/obj/chvt.o
LOAD ./build/obj/chschd.o
LOAD ./build/obj/chinstances.o
LOAD ./build/obj/chthreads.o
LOAD ./build/obj/chtm.o
LOAD ./build/obj/chregistry.o
LOAD ./build/obj/chsem.o
LOAD ./build/obj/chmtx.o
LOAD ./build/obj/chcond.o
LOAD ./build/obj/chevents.o
LOAD ./build/obj/chmsg.o
LOAD ./build/obj/chdynamic.o
LOAD ./build/obj/chmboxes.o
LOAD ./build/obj/chmemcore.o
LOAD ./build/obj/chmemheaps.o
LOAD ./build/obj/chmempools.o
LOAD ./build/obj/chpipes.o
LOAD ./build/obj/chobjcaches.o
LOAD ./build/obj/chdelegates.o
LOAD ./build/obj/chfactory.o
LOAD ./build/obj/chcore.o
LOAD ./build/obj/ch_test.o
LOAD ./build/obj/ch_test_printf.o
LOAD ./build/obj/rt_test_root.o
LOAD ./build/obj/rt_test_sequence_001.o
LOAD ./build/obj/rt_test_sequence_002.o
LOAD ./build/obj/rt_test_sequence_003.o
LOAD ./build/obj/rt_test_sequence_004.o
LOAD ./build/obj/rt_test_sequence_005.o
LOAD ./build/obj/rt_test_sequence_006.o
LOAD ./build/obj/rt_test_sequence_007.o
LOAD ./build/obj/rt_test_sequence_008.o
LOAD ./build/obj/rt_test_sequence_009.o
LOAD ./build/obj/rt_test_sequence_010.o
LOAD ./build/obj/rt_test_sequence_011.o
LOAD ./build/obj/rt_test_sequence_012.o
LOAD ./build/obj/oslib_test_root.o
LOAD ./build/obj/oslib_test_sequence_001.o
LOAD ./build/obj/oslib_test_sequence_002.o
LOAD ./build/obj/oslib_test_sequence_003.o
LOAD ./build/obj/oslib_test_sequence_004.o
LOAD ./build/obj/oslib_test_sequence_005.o
LOAD ./build/obj/oslib_test_sequence_006.o
LOAD ./build/obj/oslib_test_sequence_007.o
LOAD ./build/obj/oslib_test_sequence_008.o
LOAD ./build/obj/oslib_test_sequence_009.o
LOAD ./build/obj/syscalls.o
LOAD ./build/obj/chprintf.o
LOAD ./build/obj/main.o
LOAD ./build/obj/sign.o
LOAD ./build/obj/nist.o
LOAD ./build/obj/codec.o
LOAD ./build/obj/common.o
LOAD ./build/obj/fft.o
LOAD ./build/obj/fpr.o
LOAD ./build/obj/keygen.o
LOAD ./build/obj/rng.o
LOAD ./build/obj/shake.o
LOAD ./build/obj/vrfy.o
LOAD ./build/obj/katrng.o

.mstack         0x20000000      0x400
                0x20000000                . = ALIGN (0x8)
                0x20000000                __main_stack_base__ = .
                0x20000400                . = (. + __main_stack_size__)
 *fill*         0x20000000      0x400 
                0x20000400                . = ALIGN (0x8)
                0x20000400                __main_stack_end__ = .

.pstack         0x20000400      0x400
                0x20000400                . = ALIGN (0x8)
                0x20000400                __process_stack_base__ = .
                0x20000400                __main_thread_stack_base__ = .
                0x20000800                . = (. + __process_stack_size__)
 *fill*         0x20000400      0x400 
                0x20000800                . = ALIGN (0x8)
                0x20000800                __process_stack_end__ = .
                0x20000800                __main_thread_stack_end__ = .

.vectors        0x08000000      0x1e0
                0x08000000                __textvectors_base__ = LOADADDR (.vectors)
                0x08000000                __vectors_base__ = .
 *(.vectors)
 .vectors       0x08000000      0x1e0 ./build/obj/vectors.o
                0x08000000                _vectors
                0x080001e0                __vectors_end__ = .

.xtors          0x080001e0        0x0
                0x080001e0                __init_array_base__ = .
 *(SORT_BY_NAME(.init_array.*))
 *(.init_array)
                0x080001e0                __init_array_end__ = .
                0x080001e0                __fini_array_base__ = .
 *(.fini_array)
 *(SORT_BY_NAME(.fini_array.*))
                0x080001e0                __fini_array_end__ = .

.text           0x080001e0    0x10558
                0x080001e0                __text_base__ = .
 *(.text)
 .text          0x080001e0       0xd8 ./build/obj/crt0_v7m.o
                0x080001e0                _crt0_entry
 .text          0x080002b8        0x8 ./build/obj/vectors.o
                0x080002b8                Reset_Handler
                0x080002ba                VectorE8
                0x080002ba                Vector9C
                0x080002ba                VectorAC
                0x080002ba                DebugMon_Handler
                0x080002ba                Vector1A0
                0x080002ba                Vector5C
                0x080002ba                Vector11C
                0x080002ba                HardFault_Handler
                0x080002ba                Vector1B8
                0x080002ba                Vector19C
                0x080002ba                Vector8C
                0x080002ba                SysTick_Handler
                0x080002ba                VectorDC
                0x080002ba                PendSV_Handler
                0x080002ba                Vector168
                0x080002ba                NMI_Handler
                0x080002ba                Vector110
                0x080002ba                Vector120
                0x080002ba                Vector1D8
                0x080002ba                VectorC8
                0x080002ba                Vector94
                0x080002ba                VectorA8
                0x080002ba                VectorB4
                0x080002ba                Vector74
                0x080002ba                Vector160
                0x080002ba                Vector1B0
                0x080002ba                UsageFault_Handler
                0x080002ba                VectorEC
                0x080002ba                Vector40
                0x080002ba                VectorF8
                0x080002ba                Vector108
                0x080002ba                VectorBC
                0x080002ba                Vector190
                0x080002ba                Vector150
                0x080002ba                Vector124
                0x080002ba                Vector1C4
                0x080002ba                Vector1CC
                0x080002ba                Vector148
                0x080002ba                Vector188
                0x080002ba                Vector198
                0x080002ba                Vector118
                0x080002ba                Vector64
                0x080002ba                Vector58
                0x080002ba                VectorCC
                0x080002ba                Vector54
                0x080002ba                Vector98
                0x080002ba                Vector138
                0x080002ba                Vector24
                0x080002ba                Vector1AC
                0x080002ba                Vector178
                0x080002ba                Vector84
                0x080002ba                SecureFault_Handler
                0x080002ba                Vector1A4
                0x080002ba                VectorD0
                0x080002ba                Vector1B4
                0x080002ba                Vector140
                0x080002ba                VectorE4
                0x080002ba                VectorC0
                0x080002ba                Vector158
                0x080002ba                Vector130
                0x080002ba                Vector1C0
                0x080002ba                Vector134
                0x080002ba                Vector1D0
                0x080002ba                VectorF0
                0x080002ba                Vector12C
                0x080002ba                Vector13C
                0x080002ba                Vector100
                0x080002ba                VectorE0
                0x080002ba                VectorF4
                0x080002ba                MemManage_Handler
                0x080002ba                Vector6C
                0x080002ba                VectorA0
                0x080002ba                VectorC4
                0x080002ba                Vector7C
                0x080002ba                Vector180
                0x080002ba                Vector90
                0x080002ba                Vector114
                0x080002ba                Vector164
                0x080002ba                Vector60
                0x080002ba                Vector1BC
                0x080002ba                Vector1D4
                0x080002ba                Vector17C
                0x080002ba                Vector48
                0x080002ba                Vector1A8
                0x080002ba                Vector16C
                0x080002ba                Vector70
                0x080002ba                Vector4C
                0x080002ba                Vector144
                0x080002ba                Vector80
                0x080002ba                Vector15C
                0x080002ba                Vector68
                0x080002ba                Vector78
                0x080002ba                Vector18C
                0x080002ba                Vector170
                0x080002ba                Vector88
                0x080002ba                Vector104
                0x080002ba                Vector184
                0x080002ba                Vector10C
                0x080002ba                Vector14C
                0x080002ba                BusFault_Handler
                0x080002ba                Vector50
                0x080002ba                Vector1C8
                0x080002ba                Vector194
                0x080002ba                Vector1DC
                0x080002ba                Vector154
                0x080002ba                Vector44
                0x080002ba                Vector28
                0x080002ba                VectorB8
                0x080002ba                VectorFC
                0x080002ba                Vector34
                0x080002ba                Vector128
                0x080002ba                VectorA4
                0x080002ba                Vector20
                0x080002ba                Vector174
                0x080002be                _unhandled_exception
 .text          0x080002c0       0x2a ./build/obj/chcoreasm.o
                0x080002c0                __port_switch
                0x080002d0                __port_thread_start
                0x080002e2                __port_switch_from_isr
                0x080002e6                __port_exit_from_isr
 *fill*         0x080002ea        0x6 
 .text          0x080002f0       0xa0 c:/chibistudio/tools/gnu tools arm embedded/11.3 2022.08/bin/../lib/gcc/arm-none-eabi/11.3.1/thumb/v7e-m/nofp\libg_nano.a(libc_a-memchr.o)
                0x080002f0                memchr
 .text          0x08000390       0x14 c:/chibistudio/tools/gnu tools arm embedded/11.3 2022.08/bin/../lib/gcc/arm-none-eabi/11.3.1/thumb/v7e-m/nofp\libg_nano.a(libc_a-strcmp.o)
                0x08000390                strcmp
 *(.text.*)
 *fill*         0x080003a4        0xc 
 .text._ctl.lto_priv.0
                0x080003b0        0xc C:\Users\Ridwane\AppData\Local\Temp\cck5XY5Q.ltrans0.ltrans.o
                0x080003b0                _ctl.lto_priv.0
 *fill*         0x080003bc        0x4 
 .text.notify1.lto_priv.0
                0x080003c0       0x10 C:\Users\Ridwane\AppData\Local\Temp\cck5XY5Q.ltrans0.ltrans.o
                0x080003c0                notify1.lto_priv.0
 .text.notify2.lto_priv.0
                0x080003d0       0x10 C:\Users\Ridwane\AppData\Local\Temp\cck5XY5Q.ltrans0.ltrans.o
                0x080003d0                notify2.lto_priv.0
 .text.__idle_thread.lto_priv.0
                0x080003e0        0x4 C:\Users\Ridwane\AppData\Local\Temp\cck5XY5Q.ltrans0.ltrans.o
                0x080003e0                __idle_thread.lto_priv.0
 *fill*         0x080003e4        0xc 
 .text.chCoreAllocFromTop
                0x080003f0       0x3c C:\Users\Ridwane\AppData\Local\Temp\cck5XY5Q.ltrans0.ltrans.o
                0x080003f0                chCoreAllocFromTop
 *fill*         0x0800042c        0x4 
 .text.__ch_delegate_fn0
                0x08000430        0xc C:\Users\Ridwane\AppData\Local\Temp\cck5XY5Q.ltrans0.ltrans.o
 *fill*         0x0800043c        0x4 
 .text.__ch_delegate_fn1
                0x08000440       0x1c C:\Users\Ridwane\AppData\Local\Temp\cck5XY5Q.ltrans0.ltrans.o
 *fill*         0x0800045c        0x4 
 .text.__ch_delegate_fn2
                0x08000460       0x1c C:\Users\Ridwane\AppData\Local\Temp\cck5XY5Q.ltrans0.ltrans.o
 *fill*         0x0800047c        0x4 
 .text.__ch_delegate_fn3
                0x08000480       0x20 C:\Users\Ridwane\AppData\Local\Temp\cck5XY5Q.ltrans0.ltrans.o
 .text.__ch_delegate_fn4
                0x080004a0       0x24 C:\Users\Ridwane\AppData\Local\Temp\cck5XY5Q.ltrans0.ltrans.o
 *fill*         0x080004c4        0xc 
 .text.chCoreAllocAlignedI.lto_priv.0
                0x080004d0       0x20 C:\Users\Ridwane\AppData\Local\Temp\cck5XY5Q.ltrans0.ltrans.o
                0x080004d0                chCoreAllocAlignedI.lto_priv.0
 .text.test_stream_putchar.lto_priv.0
                0x080004f0       0x18 C:\Users\Ridwane\AppData\Local\Temp\cck5XY5Q.ltrans0.ltrans.o
                0x080004f0                test_stream_putchar.lto_priv.0
 *fill*         0x08000508        0x8 
 .text.__test_assert_sequence
                0x08000510       0x3c C:\Users\Ridwane\AppData\Local\Temp\cck5XY5Q.ltrans0.ltrans.o
 *fill*         0x0800054c        0x4 
 .text.rt_test_002_001_execute.lto_priv.0
                0x08000550      0x128 C:\Users\Ridwane\AppData\Local\Temp\cck5XY5Q.ltrans0.ltrans.o
                0x08000550                rt_test_002_001_execute.lto_priv.0
 *fill*         0x08000678        0x8 
 .text.rt_test_002_003_execute.lto_priv.0
                0x08000680       0x24 C:\Users\Ridwane\AppData\Local\Temp\cck5XY5Q.ltrans0.ltrans.o
                0x08000680                rt_test_002_003_execute.lto_priv.0
 *fill*         0x080006a4        0xc 
 .text.rt_test_003_001_execute.lto_priv.0
                0x080006b0       0x18 C:\Users\Ridwane\AppData\Local\Temp\cck5XY5Q.ltrans0.ltrans.o
                0x080006b0                rt_test_003_001_execute.lto_priv.0
 *fill*         0x080006c8        0x8 
 .text.rt_test_003_002_execute.lto_priv.0
                0x080006d0        0xc C:\Users\Ridwane\AppData\Local\Temp\cck5XY5Q.ltrans0.ltrans.o
                0x080006d0                rt_test_003_002_execute.lto_priv.0
 *fill*         0x080006dc        0x4 
 .text.thread   0x080006e0       0x1c C:\Users\Ridwane\AppData\Local\Temp\cck5XY5Q.ltrans0.ltrans.o
 *fill*         0x080006fc        0x4 
 .text.rt_test_006_001_setup.lto_priv.0
                0x08000700        0xc C:\Users\Ridwane\AppData\Local\Temp\cck5XY5Q.ltrans0.ltrans.o
                0x08000700                rt_test_006_001_setup.lto_priv.0
 *fill*         0x0800070c        0x4 
 .text.rt_test_007_001_setup.lto_priv.0
                0x08000710       0x10 C:\Users\Ridwane\AppData\Local\Temp\cck5XY5Q.ltrans0.ltrans.o
                0x08000710                rt_test_007_001_setup.lto_priv.0
 .text.rt_test_007_005_setup.lto_priv.0
                0x08000720       0x10 C:\Users\Ridwane\AppData\Local\Temp\cck5XY5Q.ltrans0.ltrans.o
                0x08000720                rt_test_007_005_setup.lto_priv.0
 .text.rt_test_007_002_setup
                0x08000730       0x10 C:\Users\Ridwane\AppData\Local\Temp\cck5XY5Q.ltrans0.ltrans.o
                0x08000730                rt_test_007_002_setup.lto_priv.0
 .text.rt_test_007_003_setup
                0x08000740       0x10 C:\Users\Ridwane\AppData\Local\Temp\cck5XY5Q.ltrans0.ltrans.o
                0x08000740                rt_test_007_003_setup.lto_priv.0
 .text.rt_test_007_004_setup
                0x08000750       0x10 C:\Users\Ridwane\AppData\Local\Temp\cck5XY5Q.ltrans0.ltrans.o
                0x08000750                rt_test_007_004_setup.lto_priv.0
 .text.rt_test_008_005_setup.lto_priv.0
                0x08000760       0x10 C:\Users\Ridwane\AppData\Local\Temp\cck5XY5Q.ltrans0.ltrans.o
                0x08000760                rt_test_008_005_setup.lto_priv.0
 .text.rt_test_008_001_setup
                0x08000770       0x10 C:\Users\Ridwane\AppData\Local\Temp\cck5XY5Q.ltrans0.ltrans.o
                0x08000770                rt_test_008_001_setup.lto_priv.0
 .text.rt_test_008_004_setup.lto_priv.0
                0x08000780       0x1c C:\Users\Ridwane\AppData\Local\Temp\cck5XY5Q.ltrans0.ltrans.o
                0x08000780                rt_test_008_004_setup.lto_priv.0
 *fill*         0x0800079c        0x4 
 .text.rt_test_008_008_setup.lto_priv.0
                0x080007a0       0x1c C:\Users\Ridwane\AppData\Local\Temp\cck5XY5Q.ltrans0.ltrans.o
                0x080007a0                rt_test_008_008_setup.lto_priv.0
 *fill*         0x080007bc        0x4 
 .text.rt_test_008_007_setup
                0x080007c0       0x1c C:\Users\Ridwane\AppData\Local\Temp\cck5XY5Q.ltrans0.ltrans.o
                0x080007c0                rt_test_008_007_setup.lto_priv.0
 *fill*         0x080007dc        0x4 
 .text.rt_test_008_009_setup.lto_priv.0
                0x080007e0       0x28 C:\Users\Ridwane\AppData\Local\Temp\cck5XY5Q.ltrans0.ltrans.o
                0x080007e0                rt_test_008_009_setup.lto_priv.0
 *fill*         0x08000808        0x8 
 .text.h1       0x08000810       0x1c C:\Users\Ridwane\AppData\Local\Temp\cck5XY5Q.ltrans0.ltrans.o
 *fill*         0x0800082c        0x4 
 .text.h2       0x08000830       0x1c C:\Users\Ridwane\AppData\Local\Temp\cck5XY5Q.ltrans0.ltrans.o
 *fill*         0x0800084c        0x4 
 .text.h3       0x08000850       0x1c C:\Users\Ridwane\AppData\Local\Temp\cck5XY5Q.ltrans0.ltrans.o
 *fill*         0x0800086c        0x4 
 .text.rt_test_010_001_execute.lto_priv.0
                0x08000870       0xfc C:\Users\Ridwane\AppData\Local\Temp\cck5XY5Q.ltrans0.ltrans.o
                0x08000870                rt_test_010_001_execute.lto_priv.0
 *fill*         0x0800096c        0x4 
 .text.rt_test_010_002_setup
                0x08000970       0x18 C:\Users\Ridwane\AppData\Local\Temp\cck5XY5Q.ltrans0.ltrans.o
                0x08000970                rt_test_010_002_setup.lto_priv.0
 *fill*         0x08000988        0x8 
 .text.rt_test_010_002_execute.lto_priv.0
                0x08000990       0x50 C:\Users\Ridwane\AppData\Local\Temp\cck5XY5Q.ltrans0.ltrans.o
                0x08000990                rt_test_010_002_execute.lto_priv.0
 .text.rt_test_010_003_setup
                0x080009e0       0x18 C:\Users\Ridwane\AppData\Local\Temp\cck5XY5Q.ltrans0.ltrans.o
                0x080009e0                rt_test_010_003_setup.lto_priv.0
 *fill*         0x080009f8        0x8 
 .text.rt_test_010_004_setup
                0x08000a00       0x18 C:\Users\Ridwane\AppData\Local\Temp\cck5XY5Q.ltrans0.ltrans.o
                0x08000a00                rt_test_010_004_setup.lto_priv.0
 *fill*         0x08000a18        0x8 
 .text.rt_test_010_005_setup
                0x08000a20       0x18 C:\Users\Ridwane\AppData\Local\Temp\cck5XY5Q.ltrans0.ltrans.o
                0x08000a20                rt_test_010_005_setup.lto_priv.0
 *fill*         0x08000a38        0x8 
 .text.rt_test_010_006_setup.lto_priv.0
                0x08000a40       0x18 C:\Users\Ridwane\AppData\Local\Temp\cck5XY5Q.ltrans0.ltrans.o
                0x08000a40                rt_test_010_006_setup.lto_priv.0
 *fill*         0x08000a58        0x8 
 .text.rt_test_010_007_setup.lto_priv.0
                0x08000a60       0x28 C:\Users\Ridwane\AppData\Local\Temp\cck5XY5Q.ltrans0.ltrans.o
                0x08000a60                rt_test_010_007_setup.lto_priv.0
 *fill*         0x08000a88        0x8 
 .text.dyn_thread1
                0x08000a90       0x1c C:\Users\Ridwane\AppData\Local\Temp\cck5XY5Q.ltrans0.ltrans.o
                0x08000a90                dyn_thread1.lto_priv.0
 *fill*         0x08000aac        0x4 
 .text.rt_test_011_001_setup.lto_priv.0
                0x08000ab0       0x34 C:\Users\Ridwane\AppData\Local\Temp\cck5XY5Q.ltrans0.ltrans.o
                0x08000ab0                rt_test_011_001_setup.lto_priv.0
 *fill*         0x08000ae4        0xc 
 .text.rt_test_011_002_setup.lto_priv.0
                0x08000af0       0x18 C:\Users\Ridwane\AppData\Local\Temp\cck5XY5Q.ltrans0.ltrans.o
                0x08000af0                rt_test_011_002_setup.lto_priv.0
 *fill*         0x08000b08        0x8 
 .text.tmo      0x08000b10        0x4 C:\Users\Ridwane\AppData\Local\Temp\cck5XY5Q.ltrans0.ltrans.o
 *fill*         0x08000b14        0xc 
 .text.rt_test_012_007_setup.lto_priv.0
                0x08000b20       0x10 C:\Users\Ridwane\AppData\Local\Temp\cck5XY5Q.ltrans0.ltrans.o
                0x08000b20                rt_test_012_007_setup.lto_priv.0
 .text.rt_test_012_010_setup.lto_priv.0
                0x08000b30       0x10 C:\Users\Ridwane\AppData\Local\Temp\cck5XY5Q.ltrans0.ltrans.o
                0x08000b30                rt_test_012_010_setup.lto_priv.0
 .text.rt_test_012_011_setup.lto_priv.0
                0x08000b40       0x10 C:\Users\Ridwane\AppData\Local\Temp\cck5XY5Q.ltrans0.ltrans.o
                0x08000b40                rt_test_012_011_setup.lto_priv.0
 .text.oslib_test_002_003_setup.lto_priv.0
                0x08000b50       0x34 C:\Users\Ridwane\AppData\Local\Temp\cck5XY5Q.ltrans0.ltrans.o
                0x08000b50                oslib_test_002_003_setup.lto_priv.0
 *fill*         0x08000b84        0xc 
 .text.oslib_test_002_001_setup
                0x08000b90       0x34 C:\Users\Ridwane\AppData\Local\Temp\cck5XY5Q.ltrans0.ltrans.o
                0x08000b90                oslib_test_002_001_setup.lto_priv.0
 *fill*         0x08000bc4        0xc 
 .text.oslib_test_002_002_setup
                0x08000bd0       0x34 C:\Users\Ridwane\AppData\Local\Temp\cck5XY5Q.ltrans0.ltrans.o
                0x08000bd0                oslib_test_002_002_setup.lto_priv.0
 *fill*         0x08000c04        0xc 
 .text.oslib_test_003_001_setup.lto_priv.0
                0x08000c10       0x48 C:\Users\Ridwane\AppData\Local\Temp\cck5XY5Q.ltrans0.ltrans.o
                0x08000c10                oslib_test_003_001_setup.lto_priv.0
 *fill*         0x08000c58        0x8 
 .text.oslib_test_003_002_setup.lto_priv.0
                0x08000c60       0x48 C:\Users\Ridwane\AppData\Local\Temp\cck5XY5Q.ltrans0.ltrans.o
                0x08000c60                oslib_test_003_002_setup.lto_priv.0
 *fill*         0x08000ca8        0x8 
 .text.dis_func0
                0x08000cb0       0x20 C:\Users\Ridwane\AppData\Local\Temp\cck5XY5Q.ltrans0.ltrans.o
 .text.dis_func1
                0x08000cd0       0x18 C:\Users\Ridwane\AppData\Local\Temp\cck5XY5Q.ltrans0.ltrans.o
 *fill*         0x08000ce8        0x8 
 .text.dis_func2
                0x08000cf0       0x2c C:\Users\Ridwane\AppData\Local\Temp\cck5XY5Q.ltrans0.ltrans.o
 *fill*         0x08000d1c        0x4 
 .text.dis_func3
                0x08000d20       0x38 C:\Users\Ridwane\AppData\Local\Temp\cck5XY5Q.ltrans0.ltrans.o
 *fill*         0x08000d58        0x8 
 .text.dis_func4
                0x08000d60       0x48 C:\Users\Ridwane\AppData\Local\Temp\cck5XY5Q.ltrans0.ltrans.o
 *fill*         0x08000da8        0x8 
 .text.dis_func_end
                0x08000db0       0x28 C:\Users\Ridwane\AppData\Local\Temp\cck5XY5Q.ltrans0.ltrans.o
 *fill*         0x08000dd8        0x8 
 .text.obj_write
                0x08000de0       0x20 C:\Users\Ridwane\AppData\Local\Temp\cck5XY5Q.ltrans0.ltrans.o
 .text.null_provider
                0x08000e00        0x4 C:\Users\Ridwane\AppData\Local\Temp\cck5XY5Q.ltrans0.ltrans.o
 *fill*         0x08000e04        0xc 
 .text.oslib_test_007_001_setup.lto_priv.0
                0x08000e10       0x14 C:\Users\Ridwane\AppData\Local\Temp\cck5XY5Q.ltrans0.ltrans.o
                0x08000e10                oslib_test_007_001_setup.lto_priv.0
 *fill*         0x08000e24        0xc 
 .text.oslib_test_007_001_execute.lto_priv.0
                0x08000e30      0x198 C:\Users\Ridwane\AppData\Local\Temp\cck5XY5Q.ltrans0.ltrans.o
                0x08000e30                oslib_test_007_001_execute.lto_priv.0
 *fill*         0x08000fc8        0x8 
 .text.oslib_test_007_003_setup.lto_priv.0
                0x08000fd0       0x1c C:\Users\Ridwane\AppData\Local\Temp\cck5XY5Q.ltrans0.ltrans.o
                0x08000fd0                oslib_test_007_003_setup.lto_priv.0
 *fill*         0x08000fec        0x4 
 .text.oslib_test_007_002_setup
                0x08000ff0       0x1c C:\Users\Ridwane\AppData\Local\Temp\cck5XY5Q.ltrans0.ltrans.o
                0x08000ff0                oslib_test_007_002_setup.lto_priv.0
 *fill*         0x0800100c        0x4 
 .text.oslib_test_008_001_setup.lto_priv.0
                0x08001010       0x34 C:\Users\Ridwane\AppData\Local\Temp\cck5XY5Q.ltrans0.ltrans.o
                0x08001010                oslib_test_008_001_setup.lto_priv.0
 *fill*         0x08001044        0xc 
 .text.__sch_wakeup.lto_priv.0
                0x08001050       0x70 C:\Users\Ridwane\AppData\Local\Temp\cck5XY5Q.ltrans0.ltrans.o
                0x08001050                __sch_wakeup.lto_priv.0
 .text.chSemSignalI
                0x080010c0       0x38 C:\Users\Ridwane\AppData\Local\Temp\cck5XY5Q.ltrans0.ltrans.o
                0x080010c0                chSemSignalI
 *fill*         0x080010f8        0x8 
 .text.chMtxUnlockS
                0x08001100       0x68 C:\Users\Ridwane\AppData\Local\Temp\cck5XY5Q.ltrans0.ltrans.o
 *fill*         0x08001168        0x8 
 .text.chEvtBroadcastFlagsI
                0x08001170       0x74 C:\Users\Ridwane\AppData\Local\Temp\cck5XY5Q.ltrans0.ltrans.o
 *fill*         0x080011e4        0xc 
 .text.sd_lld_serve_interrupt
                0x080011f0      0x1d4 C:\Users\Ridwane\AppData\Local\Temp\cck5XY5Q.ltrans0.ltrans.o
 *fill*         0x080013c4        0xc 
 .text.chThdYield
                0x080013d0       0x50 C:\Users\Ridwane\AppData\Local\Temp\cck5XY5Q.ltrans0.ltrans.o
 .text.chMsgSend
                0x08001420       0x6c C:\Users\Ridwane\AppData\Local\Temp\cck5XY5Q.ltrans0.ltrans.o
 *fill*         0x0800148c        0x4 
 .text.msg_thread1
                0x08001490       0x28 C:\Users\Ridwane\AppData\Local\Temp\cck5XY5Q.ltrans0.ltrans.o
 *fill*         0x080014b8        0x8 
 .text.thread1.lto_priv.1
                0x080014c0       0x6c C:\Users\Ridwane\AppData\Local\Temp\cck5XY5Q.ltrans0.ltrans.o
 *fill*         0x0800152c        0x4 
 .text.bmk_thread3
                0x08001530       0x88 C:\Users\Ridwane\AppData\Local\Temp\cck5XY5Q.ltrans0.ltrans.o
 *fill*         0x080015b8        0x8 
 .text.bmk_thread4
                0x080015c0       0x3c C:\Users\Ridwane\AppData\Local\Temp\cck5XY5Q.ltrans0.ltrans.o
 *fill*         0x080015fc        0x4 
 .text.bmk_thread7
                0x08001600       0x6c C:\Users\Ridwane\AppData\Local\Temp\cck5XY5Q.ltrans0.ltrans.o
 *fill*         0x0800166c        0x4 
 .text.bmk_thread8
                0x08001670       0x74 C:\Users\Ridwane\AppData\Local\Temp\cck5XY5Q.ltrans0.ltrans.o
 *fill*         0x080016e4        0xc 
 .text.chDelegateCallVeneer
                0x080016f0       0x24 C:\Users\Ridwane\AppData\Local\Temp\cck5XY5Q.ltrans0.ltrans.o
 *fill*         0x08001714        0xc 
 .text.rt_test_007_001_teardown.lto_priv.0
                0x08001720        0xc C:\Users\Ridwane\AppData\Local\Temp\cck5XY5Q.ltrans0.ltrans.o
                0x08001720                rt_test_007_001_teardown.lto_priv.0
 *fill*         0x0800172c        0x4 
 .text.oslib_test_002_003_teardown.lto_priv.0
                0x08001730        0x4 C:\Users\Ridwane\AppData\Local\Temp\cck5XY5Q.ltrans0.ltrans.o
                0x08001730                oslib_test_002_003_teardown.lto_priv.0
 *fill*         0x08001734        0xc 
 .text.oslib_test_002_001_teardown
                0x08001740        0x4 C:\Users\Ridwane\AppData\Local\Temp\cck5XY5Q.ltrans0.ltrans.o
                0x08001740                oslib_test_002_001_teardown.lto_priv.0
 *fill*         0x08001744        0xc 
 .text.oslib_test_002_002_teardown
                0x08001750        0x4 C:\Users\Ridwane\AppData\Local\Temp\cck5XY5Q.ltrans0.ltrans.o
                0x08001750                oslib_test_002_002_teardown.lto_priv.0
 *fill*         0x08001754        0xc 
 .text.oslib_test_003_002_execute.lto_priv.0
                0x08001760       0x88 C:\Users\Ridwane\AppData\Local\Temp\cck5XY5Q.ltrans0.ltrans.o
                0x08001760                oslib_test_003_002_execute.lto_priv.0
 *fill*         0x080017e8        0x8 
 .text.__cpu_init
                0x080017f0        0x4 C:\Users\Ridwane\AppData\Local\Temp\cck5XY5Q.ltrans0.ltrans.o
                0x080017f0                __cpu_init
 *fill*         0x080017f4        0xc 
 .text.__late_init
                0x08001800        0x4 C:\Users\Ridwane\AppData\Local\Temp\cck5XY5Q.ltrans0.ltrans.o
                0x08001800                __late_init
 *fill*         0x08001804        0xc 
 .text.__default_exit
                0x08001810        0x4 C:\Users\Ridwane\AppData\Local\Temp\cck5XY5Q.ltrans0.ltrans.o
                0x08001810                __default_exit
 *fill*         0x08001814        0xc 
 .text.__init_ram_areas
                0x08001820       0x6c C:\Users\Ridwane\AppData\Local\Temp\cck5XY5Q.ltrans0.ltrans.o
                0x08001820                __init_ram_areas
 *fill*         0x0800188c        0x4 
 .text.VectorD4
                0x08001890       0x58 C:\Users\Ridwane\AppData\Local\Temp\cck5XY5Q.ltrans0.ltrans.o
                0x08001890                VectorD4
 *fill*         0x080018e8        0x8 
 .text.VectorD8
                0x080018f0       0x58 C:\Users\Ridwane\AppData\Local\Temp\cck5XY5Q.ltrans0.ltrans.o
                0x080018f0                VectorD8
 *fill*         0x08001948        0x8 
 .text.VectorB0
                0x08001950      0x168 C:\Users\Ridwane\AppData\Local\Temp\cck5XY5Q.ltrans0.ltrans.o
                0x08001950                VectorB0
 *fill*         0x08001ab8        0x8 
 .text.usart_init.lto_priv.0
                0x08001ac0       0x64 C:\Users\Ridwane\AppData\Local\Temp\cck5XY5Q.ltrans0.ltrans.o
                0x08001ac0                usart_init.lto_priv.0
 *fill*         0x08001b24        0xc 
 .text.__early_init
                0x08001b30      0x290 C:\Users\Ridwane\AppData\Local\Temp\cck5XY5Q.ltrans0.ltrans.o
                0x08001b30                __early_init
 .text.chVTDoResetI
                0x08001dc0       0xa4 C:\Users\Ridwane\AppData\Local\Temp\cck5XY5Q.ltrans0.ltrans.o
                0x08001dc0                chVTDoResetI
 *fill*         0x08001e64        0xc 
 .text.test_wait_tick
                0x08001e70       0x68 C:\Users\Ridwane\AppData\Local\Temp\cck5XY5Q.ltrans0.ltrans.o
 *fill*         0x08001ed8        0x8 
 .text.job_slow
                0x08001ee0       0x70 C:\Users\Ridwane\AppData\Local\Temp\cck5XY5Q.ltrans0.ltrans.o
 .text.__sch_reschedule_ahead.lto_priv.0
                0x08001f50       0x3c C:\Users\Ridwane\AppData\Local\Temp\cck5XY5Q.ltrans0.ltrans.o
                0x08001f50                __sch_reschedule_ahead.lto_priv.0
                0x08001f50                chSchDoPreemption
 *fill*         0x08001f8c        0x4 
 .text.vtcb     0x08001f90       0x50 C:\Users\Ridwane\AppData\Local\Temp\cck5XY5Q.ltrans0.ltrans.o
 .text.rt_test_005_003_execute.lto_priv.0
                0x08001fe0       0xbc C:\Users\Ridwane\AppData\Local\Temp\cck5XY5Q.ltrans0.ltrans.o
                0x08001fe0                rt_test_005_003_execute.lto_priv.0
 *fill*         0x0800209c        0x4 
 .text.rt_test_005_004_execute.lto_priv.0
                0x080020a0      0x108 C:\Users\Ridwane\AppData\Local\Temp\cck5XY5Q.ltrans0.ltrans.o
                0x080020a0                rt_test_005_004_execute.lto_priv.0
 *fill*         0x080021a8        0x8 
 .text.thread1.lto_priv.0
                0x080021b0       0x6c C:\Users\Ridwane\AppData\Local\Temp\cck5XY5Q.ltrans0.ltrans.o
 *fill*         0x0800221c        0x4 
 .text.thread4  0x08002220       0x34 C:\Users\Ridwane\AppData\Local\Temp\cck5XY5Q.ltrans0.ltrans.o
 *fill*         0x08002254        0xc 
 .text.obj_read
                0x08002260       0xc8 C:\Users\Ridwane\AppData\Local\Temp\cck5XY5Q.ltrans0.ltrans.o
 *fill*         0x08002328        0x8 
 .text.oslib_test_006_001_execute.lto_priv.0
                0x08002330      0x5e8 C:\Users\Ridwane\AppData\Local\Temp\cck5XY5Q.ltrans0.ltrans.o
                0x08002330                oslib_test_006_001_execute.lto_priv.0
 *fill*         0x08002918        0x8 
 .text.chSchGoSleepTimeoutS
                0x08002920       0x70 C:\Users\Ridwane\AppData\Local\Temp\cck5XY5Q.ltrans0.ltrans.o
                0x08002920                chSchGoSleepTimeoutS
 .text.oqWriteTimeout
                0x08002990       0xd8 C:\Users\Ridwane\AppData\Local\Temp\cck5XY5Q.ltrans0.ltrans.o
 *fill*         0x08002a68        0x8 
 .text._write.lto_priv.0
                0x08002a70        0xc C:\Users\Ridwane\AppData\Local\Temp\cck5XY5Q.ltrans0.ltrans.o
                0x08002a70                _write.lto_priv.0
 *fill*         0x08002a7c        0x4 
 .text._writet.lto_priv.0
                0x08002a80        0x8 C:\Users\Ridwane\AppData\Local\Temp\cck5XY5Q.ltrans0.ltrans.o
                0x08002a80                _writet.lto_priv.0
 *fill*         0x08002a88        0x8 
 .text.iqGetTimeout
                0x08002a90       0x6c C:\Users\Ridwane\AppData\Local\Temp\cck5XY5Q.ltrans0.ltrans.o
 *fill*         0x08002afc        0x4 
 .text._get.lto_priv.0
                0x08002b00        0xc C:\Users\Ridwane\AppData\Local\Temp\cck5XY5Q.ltrans0.ltrans.o
                0x08002b00                _get.lto_priv.0
 *fill*         0x08002b0c        0x4 
 .text._gett.lto_priv.0
                0x08002b10        0x8 C:\Users\Ridwane\AppData\Local\Temp\cck5XY5Q.ltrans0.ltrans.o
                0x08002b10                _gett.lto_priv.0
 *fill*         0x08002b18        0x8 
 .text.iqReadTimeout
                0x08002b20       0xe0 C:\Users\Ridwane\AppData\Local\Temp\cck5XY5Q.ltrans0.ltrans.o
 .text._read.lto_priv.0
                0x08002c00        0xc C:\Users\Ridwane\AppData\Local\Temp\cck5XY5Q.ltrans0.ltrans.o
                0x08002c00                _read.lto_priv.0
 *fill*         0x08002c0c        0x4 
 .text._readt.lto_priv.0
                0x08002c10        0x8 C:\Users\Ridwane\AppData\Local\Temp\cck5XY5Q.ltrans0.ltrans.o
                0x08002c10                _readt.lto_priv.0
 *fill*         0x08002c18        0x8 
 .text.oqPutTimeout
                0x08002c20       0x78 C:\Users\Ridwane\AppData\Local\Temp\cck5XY5Q.ltrans0.ltrans.o
 *fill*         0x08002c98        0x8 
 .text._put.lto_priv.0
                0x08002ca0        0xc C:\Users\Ridwane\AppData\Local\Temp\cck5XY5Q.ltrans0.ltrans.o
                0x08002ca0                _put.lto_priv.0
 *fill*         0x08002cac        0x4 
 .text._putt.lto_priv.0
                0x08002cb0        0x8 C:\Users\Ridwane\AppData\Local\Temp\cck5XY5Q.ltrans0.ltrans.o
                0x08002cb0                _putt.lto_priv.0
 *fill*         0x08002cb8        0x8 
 .text.chMBPostTimeout
                0x08002cc0       0xd0 C:\Users\Ridwane\AppData\Local\Temp\cck5XY5Q.ltrans0.ltrans.o
 .text.chMBFetchTimeoutS
                0x08002d90       0xa4 C:\Users\Ridwane\AppData\Local\Temp\cck5XY5Q.ltrans0.ltrans.o
 *fill*         0x08002e34        0xc 
 .text.oslib_test_002_003_execute.lto_priv.0
                0x08002e40      0x170 C:\Users\Ridwane\AppData\Local\Temp\cck5XY5Q.ltrans0.ltrans.o
                0x08002e40                oslib_test_002_003_execute.lto_priv.0
 .text.Thread1.lto_priv.0
                0x08002fb0       0x9c C:\Users\Ridwane\AppData\Local\Temp\cck5XY5Q.ltrans0.ltrans.o
 *fill*         0x0800304c        0x4 
 .text.chGuardedPoolAllocTimeout
                0x08003050       0x68 C:\Users\Ridwane\AppData\Local\Temp\cck5XY5Q.ltrans0.ltrans.o
 *fill*         0x080030b8        0x8 
 .text.oslib_test_007_002_execute.lto_priv.0
                0x080030c0      0x160 C:\Users\Ridwane\AppData\Local\Temp\cck5XY5Q.ltrans0.ltrans.o
                0x080030c0                oslib_test_007_002_execute.lto_priv.0
 .text.oslib_test_007_003_execute.lto_priv.0
                0x08003220       0x30 C:\Users\Ridwane\AppData\Local\Temp\cck5XY5Q.ltrans0.ltrans.o
                0x08003220                oslib_test_007_003_execute.lto_priv.0
 .text.rt_test_002_002_execute.lto_priv.0
                0x08003250      0x134 C:\Users\Ridwane\AppData\Local\Temp\cck5XY5Q.ltrans0.ltrans.o
                0x08003250                rt_test_002_002_execute.lto_priv.0
 *fill*         0x08003384        0xc 
 .text.rt_test_004_001_execute.lto_priv.0
                0x08003390       0xa8 C:\Users\Ridwane\AppData\Local\Temp\cck5XY5Q.ltrans0.ltrans.o
                0x08003390                rt_test_004_001_execute.lto_priv.0
 *fill*         0x08003438        0x8 
 .text.rt_test_005_001_execute.lto_priv.0
                0x08003440       0xec C:\Users\Ridwane\AppData\Local\Temp\cck5XY5Q.ltrans0.ltrans.o
                0x08003440                rt_test_005_001_execute.lto_priv.0
 *fill*         0x0800352c        0x4 
 .text.thread2  0x08003530       0x70 C:\Users\Ridwane\AppData\Local\Temp\cck5XY5Q.ltrans0.ltrans.o
 .text.evt_thread3
                0x080035a0       0x80 C:\Users\Ridwane\AppData\Local\Temp\cck5XY5Q.ltrans0.ltrans.o
 .text.evt_thread7
                0x08003620       0x6c C:\Users\Ridwane\AppData\Local\Temp\cck5XY5Q.ltrans0.ltrans.o
 *fill*         0x0800368c        0x4 
 .text.rt_test_010_006_execute.lto_priv.0
                0x08003690      0x128 C:\Users\Ridwane\AppData\Local\Temp\cck5XY5Q.ltrans0.ltrans.o
                0x08003690                rt_test_010_006_execute.lto_priv.0
 *fill*         0x080037b8        0x8 
 .text.msg_loop_test
                0x080037c0       0xb8 C:\Users\Ridwane\AppData\Local\Temp\cck5XY5Q.ltrans0.ltrans.o
 *fill*         0x08003878        0x8 
 .text.chSchWakeupS
                0x08003880       0x60 C:\Users\Ridwane\AppData\Local\Temp\cck5XY5Q.ltrans0.ltrans.o
                0x08003880                chSchWakeupS
 .text.rt_test_007_001_execute.lto_priv.0
                0x080038e0      0x108 C:\Users\Ridwane\AppData\Local\Temp\cck5XY5Q.ltrans0.ltrans.o
                0x080038e0                rt_test_007_001_execute.lto_priv.0
 *fill*         0x080039e8        0x8 
 .text.thread3  0x080039f0       0x7c C:\Users\Ridwane\AppData\Local\Temp\cck5XY5Q.ltrans0.ltrans.o
 *fill*         0x08003a6c        0x4 
 .text.bmk_thread1
                0x08003a70       0x6c C:\Users\Ridwane\AppData\Local\Temp\cck5XY5Q.ltrans0.ltrans.o
 *fill*         0x08003adc        0x4 
 .text.chThdCreateSuspendedI
                0x08003ae0       0x88 C:\Users\Ridwane\AppData\Local\Temp\cck5XY5Q.ltrans0.ltrans.o
                0x08003ae0                chThdCreateSuspendedI
 *fill*         0x08003b68        0x8 
 .text.chThdCreateStatic
                0x08003b70       0x7c C:\Users\Ridwane\AppData\Local\Temp\cck5XY5Q.ltrans0.ltrans.o
                0x08003b70                chThdCreateStatic
 *fill*         0x08003bec        0x4 
 .text.rt_test_007_005_execute.lto_priv.0
                0x08003bf0       0x88 C:\Users\Ridwane\AppData\Local\Temp\cck5XY5Q.ltrans0.ltrans.o
                0x08003bf0                rt_test_007_005_execute.lto_priv.0
 *fill*         0x08003c78        0x8 
 .text.rt_test_007_006_execute.lto_priv.0
                0x08003c80      0x214 C:\Users\Ridwane\AppData\Local\Temp\cck5XY5Q.ltrans0.ltrans.o
                0x08003c80                rt_test_007_006_execute.lto_priv.0
 *fill*         0x08003e94        0xc 
 .text.chThdExit
                0x08003ea0       0x88 C:\Users\Ridwane\AppData\Local\Temp\cck5XY5Q.ltrans0.ltrans.o
                0x08003ea0                chThdExit
 *fill*         0x08003f28        0x8 
 .text.Thread1.lto_priv.1
                0x08003f30       0x94 C:\Users\Ridwane\AppData\Local\Temp\cck5XY5Q.ltrans0.ltrans.o
 *fill*         0x08003fc4        0xc 
 .text.chTMStartMeasurementX
                0x08003fd0        0xc C:\Users\Ridwane\AppData\Local\Temp\cck5XY5Q.ltrans0.ltrans.o
                0x08003fd0                chTMStartMeasurementX
 *fill*         0x08003fdc        0x4 
 .text.chTMStopMeasurementX
                0x08003fe0       0x44 C:\Users\Ridwane\AppData\Local\Temp\cck5XY5Q.ltrans0.ltrans.o
                0x08003fe0                chTMStopMeasurementX
 *fill*         0x08004024        0xc 
 .text.chMtxLockS
                0x08004030       0xe4 C:\Users\Ridwane\AppData\Local\Temp\cck5XY5Q.ltrans0.ltrans.o
                0x08004030                chMtxLockS
 *fill*         0x08004114        0xc 
 .text.thread4B
                0x08004120       0x4c C:\Users\Ridwane\AppData\Local\Temp\cck5XY5Q.ltrans0.ltrans.o
 *fill*         0x0800416c        0x4 
 .text.chMtxUnlock
                0x08004170       0x84 C:\Users\Ridwane\AppData\Local\Temp\cck5XY5Q.ltrans0.ltrans.o
                0x08004170                chMtxUnlock
 *fill*         0x080041f4        0xc 
 .text.chHeapStatus
                0x08004200       0x6c C:\Users\Ridwane\AppData\Local\Temp\cck5XY5Q.ltrans0.ltrans.o
                0x08004200                chHeapStatus
 *fill*         0x0800426c        0x4 
 .text.thread1.lto_priv.2
                0x08004270       0x3c C:\Users\Ridwane\AppData\Local\Temp\cck5XY5Q.ltrans0.ltrans.o
 *fill*         0x080042ac        0x4 
 .text.thread4A
                0x080042b0       0x78 C:\Users\Ridwane\AppData\Local\Temp\cck5XY5Q.ltrans0.ltrans.o
 *fill*         0x08004328        0x8 
 .text.thread6  0x08004330       0xa0 C:\Users\Ridwane\AppData\Local\Temp\cck5XY5Q.ltrans0.ltrans.o
 .text.thread8  0x080043d0       0xc0 C:\Users\Ridwane\AppData\Local\Temp\cck5XY5Q.ltrans0.ltrans.o
 .text.thread9  0x08004490       0x3c C:\Users\Ridwane\AppData\Local\Temp\cck5XY5Q.ltrans0.ltrans.o
 *fill*         0x080044cc        0x4 
 .text.rt_test_008_004_execute.lto_priv.0
                0x080044d0      0x120 C:\Users\Ridwane\AppData\Local\Temp\cck5XY5Q.ltrans0.ltrans.o
                0x080044d0                rt_test_008_004_execute.lto_priv.0
 .text.rt_test_008_005_execute.lto_priv.0
                0x080045f0      0x190 C:\Users\Ridwane\AppData\Local\Temp\cck5XY5Q.ltrans0.ltrans.o
                0x080045f0                rt_test_008_005_execute.lto_priv.0
 .text.chHeapAllocAligned
                0x08004780       0xfc C:\Users\Ridwane\AppData\Local\Temp\cck5XY5Q.ltrans0.ltrans.o
                0x08004780                chHeapAllocAligned
 *fill*         0x0800487c        0x4 
 .text.chHeapFree
                0x08004880       0xa0 C:\Users\Ridwane\AppData\Local\Temp\cck5XY5Q.ltrans0.ltrans.o
                0x08004880                chHeapFree
 .text.chThdRelease.part.0
                0x08004920       0x3c C:\Users\Ridwane\AppData\Local\Temp\cck5XY5Q.ltrans0.ltrans.o
 *fill*         0x0800495c        0x4 
 .text.chThdWait
                0x08004960       0x70 C:\Users\Ridwane\AppData\Local\Temp\cck5XY5Q.ltrans0.ltrans.o
 .text.rt_test_010_003_execute.lto_priv.0
                0x080049d0      0x11c C:\Users\Ridwane\AppData\Local\Temp\cck5XY5Q.ltrans0.ltrans.o
                0x080049d0                rt_test_010_003_execute.lto_priv.0
 *fill*         0x08004aec        0x4 
 .text.rt_test_005_002_execute.lto_priv.0
                0x08004af0      0x250 C:\Users\Ridwane\AppData\Local\Temp\cck5XY5Q.ltrans0.ltrans.o
                0x08004af0                rt_test_005_002_execute.lto_priv.0
 .text.rt_test_006_001_execute.lto_priv.0
                0x08004d40      0x114 C:\Users\Ridwane\AppData\Local\Temp\cck5XY5Q.ltrans0.ltrans.o
                0x08004d40                rt_test_006_001_execute.lto_priv.0
 *fill*         0x08004e54        0xc 
 .text.rt_test_007_002_execute.lto_priv.0
                0x08004e60      0x1ac C:\Users\Ridwane\AppData\Local\Temp\cck5XY5Q.ltrans0.ltrans.o
                0x08004e60                rt_test_007_002_execute.lto_priv.0
 *fill*         0x0800500c        0x4 
 .text.rt_test_007_003_execute.lto_priv.0
                0x08005010      0x1bc C:\Users\Ridwane\AppData\Local\Temp\cck5XY5Q.ltrans0.ltrans.o
                0x08005010                rt_test_007_003_execute.lto_priv.0
 *fill*         0x080051cc        0x4 
 .text.rt_test_007_004_execute.lto_priv.0
                0x080051d0      0x100 C:\Users\Ridwane\AppData\Local\Temp\cck5XY5Q.ltrans0.ltrans.o
                0x080051d0                rt_test_007_004_execute.lto_priv.0
 .text.rt_test_007_005_teardown
                0x080052d0       0x24 C:\Users\Ridwane\AppData\Local\Temp\cck5XY5Q.ltrans0.ltrans.o
                0x080052d0                rt_test_007_005_teardown.lto_priv.0
 *fill*         0x080052f4        0xc 
 .text.rt_test_007_006_teardown.lto_priv.0
                0x08005300       0x24 C:\Users\Ridwane\AppData\Local\Temp\cck5XY5Q.ltrans0.ltrans.o
                0x08005300                rt_test_007_006_teardown.lto_priv.0
 *fill*         0x08005324        0xc 
 .text.rt_test_008_001_execute.lto_priv.0
                0x08005330      0x130 C:\Users\Ridwane\AppData\Local\Temp\cck5XY5Q.ltrans0.ltrans.o
                0x08005330                rt_test_008_001_execute.lto_priv.0
 .text.rt_test_008_004_teardown
                0x08005460       0x24 C:\Users\Ridwane\AppData\Local\Temp\cck5XY5Q.ltrans0.ltrans.o
                0x08005460                rt_test_008_004_teardown.lto_priv.0
 *fill*         0x08005484        0xc 
 .text.rt_test_008_007_execute.lto_priv.0
                0x08005490      0x1cc C:\Users\Ridwane\AppData\Local\Temp\cck5XY5Q.ltrans0.ltrans.o
                0x08005490                rt_test_008_007_execute.lto_priv.0
 *fill*         0x0800565c        0x4 
 .text.rt_test_008_008_execute.lto_priv.0
                0x08005660      0x138 C:\Users\Ridwane\AppData\Local\Temp\cck5XY5Q.ltrans0.ltrans.o
                0x08005660                rt_test_008_008_execute.lto_priv.0
 *fill*         0x08005798        0x8 
 .text.rt_test_008_009_execute.lto_priv.0
                0x080057a0      0x100 C:\Users\Ridwane\AppData\Local\Temp\cck5XY5Q.ltrans0.ltrans.o
                0x080057a0                rt_test_008_009_execute.lto_priv.0
 .text.rt_test_009_001_execute.lto_priv.0
                0x080058a0       0xe8 C:\Users\Ridwane\AppData\Local\Temp\cck5XY5Q.ltrans0.ltrans.o
                0x080058a0                rt_test_009_001_execute.lto_priv.0
 *fill*         0x08005988        0x8 
 .text.rt_test_010_004_execute.lto_priv.0
                0x08005990      0x180 C:\Users\Ridwane\AppData\Local\Temp\cck5XY5Q.ltrans0.ltrans.o
                0x08005990                rt_test_010_004_execute.lto_priv.0
 .text.rt_test_010_005_execute.lto_priv.0
                0x08005b10      0x174 C:\Users\Ridwane\AppData\Local\Temp\cck5XY5Q.ltrans0.ltrans.o
                0x08005b10                rt_test_010_005_execute.lto_priv.0
 *fill*         0x08005c84        0xc 
 .text.rt_test_010_007_execute.lto_priv.0
                0x08005c90      0x1f0 C:\Users\Ridwane\AppData\Local\Temp\cck5XY5Q.ltrans0.ltrans.o
                0x08005c90                rt_test_010_007_execute.lto_priv.0
 .text.rt_test_011_001_execute.lto_priv.0
                0x08005e80      0x1e8 C:\Users\Ridwane\AppData\Local\Temp\cck5XY5Q.ltrans0.ltrans.o
                0x08005e80                rt_test_011_001_execute.lto_priv.0
 *fill*         0x08006068        0x8 
 .text.rt_test_011_002_execute.lto_priv.0
                0x08006070      0x1a4 C:\Users\Ridwane\AppData\Local\Temp\cck5XY5Q.ltrans0.ltrans.o
                0x08006070                rt_test_011_002_execute.lto_priv.0
 *fill*         0x08006214        0xc 
 .text.oslib_test_004_001_execute.lto_priv.0
                0x08006220      0x1e4 C:\Users\Ridwane\AppData\Local\Temp\cck5XY5Q.ltrans0.ltrans.o
                0x08006220                oslib_test_004_001_execute.lto_priv.0
 *fill*         0x08006404        0xc 
 .text.oslib_test_005_001_execute.lto_priv.0
                0x08006410      0x148 C:\Users\Ridwane\AppData\Local\Temp\cck5XY5Q.ltrans0.ltrans.o
                0x08006410                oslib_test_005_001_execute.lto_priv.0
 *fill*         0x08006558        0x8 
 .text.dyn_create_object_heap.lto_priv.0
                0x08006560       0x64 C:\Users\Ridwane\AppData\Local\Temp\cck5XY5Q.ltrans0.ltrans.o
                0x08006560                dyn_create_object_heap.lto_priv.0
 *fill*         0x080065c4        0xc 
 .text.chFactoryReleaseObject
                0x080065d0       0x64 C:\Users\Ridwane\AppData\Local\Temp\cck5XY5Q.ltrans0.ltrans.o
                0x080065d0                chFactoryReleaseObject
 *fill*         0x08006634        0xc 
 .text.chFactoryReleaseBuffer
                0x08006640       0x50 C:\Users\Ridwane\AppData\Local\Temp\cck5XY5Q.ltrans0.ltrans.o
                0x08006640                chFactoryReleaseBuffer
 .text.chFactoryReleaseSemaphore
                0x08006690       0x64 C:\Users\Ridwane\AppData\Local\Temp\cck5XY5Q.ltrans0.ltrans.o
                0x08006690                chFactoryReleaseSemaphore
 *fill*         0x080066f4        0xc 
 .text.chFactoryReleaseMailbox
                0x08006700       0x50 C:\Users\Ridwane\AppData\Local\Temp\cck5XY5Q.ltrans0.ltrans.o
                0x08006700                chFactoryReleaseMailbox
 .text.chFactoryReleaseObjectsFIFO
                0x08006750       0x50 C:\Users\Ridwane\AppData\Local\Temp\cck5XY5Q.ltrans0.ltrans.o
                0x08006750                chFactoryReleaseObjectsFIFO
 .text.chFactoryReleasePipe
                0x080067a0       0x50 C:\Users\Ridwane\AppData\Local\Temp\cck5XY5Q.ltrans0.ltrans.o
                0x080067a0                chFactoryReleasePipe
 .text.SVC_Handler
                0x080067f0       0x14 C:\Users\Ridwane\AppData\Local\Temp\cck5XY5Q.ltrans0.ltrans.o
                0x080067f0                SVC_Handler
 *fill*         0x08006804        0xc 
 .text.__test_assert
                0x08006810       0x18 C:\Users\Ridwane\AppData\Local\Temp\cck5XY5Q.ltrans0.ltrans.o
                0x08006810                __test_assert
 *fill*         0x08006828        0x8 
 .text.oslib_test_002_001_execute.lto_priv.0
                0x08006830      0x320 C:\Users\Ridwane\AppData\Local\Temp\cck5XY5Q.ltrans0.ltrans.o
                0x08006830                oslib_test_002_001_execute.lto_priv.0
 .text.oslib_test_002_002_execute.lto_priv.0
                0x08006b50      0x424 C:\Users\Ridwane\AppData\Local\Temp\cck5XY5Q.ltrans0.ltrans.o
                0x08006b50                oslib_test_002_002_execute.lto_priv.0
 *fill*         0x08006f74        0xc 
 .text.oslib_test_003_001_execute.lto_priv.0
                0x08006f80      0x48c C:\Users\Ridwane\AppData\Local\Temp\cck5XY5Q.ltrans0.ltrans.o
                0x08006f80                oslib_test_003_001_execute.lto_priv.0
 *fill*         0x0800740c        0x4 
 .text.oslib_test_008_001_execute.lto_priv.0
                0x08007410      0x43c C:\Users\Ridwane\AppData\Local\Temp\cck5XY5Q.ltrans0.ltrans.o
                0x08007410                oslib_test_008_001_execute.lto_priv.0
 *fill*         0x0800784c        0x4 
 .text.test_printf
                0x08007850      0x430 C:\Users\Ridwane\AppData\Local\Temp\cck5XY5Q.ltrans0.ltrans.o
                0x08007850                test_printf
 .text.rt_test_001_001_execute.lto_priv.0
                0x08007c80       0xdc C:\Users\Ridwane\AppData\Local\Temp\cck5XY5Q.ltrans0.ltrans.o
                0x08007c80                rt_test_001_001_execute.lto_priv.0
 *fill*         0x08007d5c        0x4 
 .text.oslib_test_001_001_execute
                0x08007d60        0x4 C:\Users\Ridwane\AppData\Local\Temp\cck5XY5Q.ltrans0.ltrans.o
                0x08007d60                oslib_test_001_001_execute.lto_priv.0
 *fill*         0x08007d64        0xc 
 .text.rt_test_001_002_execute.lto_priv.0
                0x08007d70       0xbc C:\Users\Ridwane\AppData\Local\Temp\cck5XY5Q.ltrans0.ltrans.o
                0x08007d70                rt_test_001_002_execute.lto_priv.0
 *fill*         0x08007e2c        0x4 
 .text.rt_test_001_003_execute.lto_priv.0
                0x08007e30      0x3b0 C:\Users\Ridwane\AppData\Local\Temp\cck5XY5Q.ltrans0.ltrans.o
                0x08007e30                rt_test_001_003_execute.lto_priv.0
 .text.rt_test_012_001_execute.lto_priv.0
                0x080081e0       0xb0 C:\Users\Ridwane\AppData\Local\Temp\cck5XY5Q.ltrans0.ltrans.o
                0x080081e0                rt_test_012_001_execute.lto_priv.0
 .text.rt_test_012_002_execute.lto_priv.0
                0x08008290       0xb0 C:\Users\Ridwane\AppData\Local\Temp\cck5XY5Q.ltrans0.ltrans.o
                0x08008290                rt_test_012_002_execute.lto_priv.0
 .text.rt_test_012_003_execute.lto_priv.0
                0x08008340      0x124 C:\Users\Ridwane\AppData\Local\Temp\cck5XY5Q.ltrans0.ltrans.o
                0x08008340                rt_test_012_003_execute.lto_priv.0
 *fill*         0x08008464        0xc 
 .text.rt_test_012_004_execute.lto_priv.0
                0x08008470      0x114 C:\Users\Ridwane\AppData\Local\Temp\cck5XY5Q.ltrans0.ltrans.o
                0x08008470                rt_test_012_004_execute.lto_priv.0
 *fill*         0x08008584        0xc 
 .text.rt_test_012_005_execute.lto_priv.0
                0x08008590       0xb4 C:\Users\Ridwane\AppData\Local\Temp\cck5XY5Q.ltrans0.ltrans.o
                0x08008590                rt_test_012_005_execute.lto_priv.0
 *fill*         0x08008644        0xc 
 .text.rt_test_012_006_execute.lto_priv.0
                0x08008650       0xd8 C:\Users\Ridwane\AppData\Local\Temp\cck5XY5Q.ltrans0.ltrans.o
                0x08008650                rt_test_012_006_execute.lto_priv.0
 *fill*         0x08008728        0x8 
 .text.rt_test_012_007_execute.lto_priv.0
                0x08008730      0x18c C:\Users\Ridwane\AppData\Local\Temp\cck5XY5Q.ltrans0.ltrans.o
                0x08008730                rt_test_012_007_execute.lto_priv.0
 *fill*         0x080088bc        0x4 
 .text.rt_test_012_008_execute.lto_priv.0
                0x080088c0      0x144 C:\Users\Ridwane\AppData\Local\Temp\cck5XY5Q.ltrans0.ltrans.o
                0x080088c0                rt_test_012_008_execute.lto_priv.0
 *fill*         0x08008a04        0xc 
 .text.rt_test_012_009_execute.lto_priv.0
                0x08008a10       0xcc C:\Users\Ridwane\AppData\Local\Temp\cck5XY5Q.ltrans0.ltrans.o
                0x08008a10                rt_test_012_009_execute.lto_priv.0
 *fill*         0x08008adc        0x4 
 .text.rt_test_012_010_execute.lto_priv.0
                0x08008ae0      0x1f8 C:\Users\Ridwane\AppData\Local\Temp\cck5XY5Q.ltrans0.ltrans.o
                0x08008ae0                rt_test_012_010_execute.lto_priv.0
 *fill*         0x08008cd8        0x8 
 .text.rt_test_012_011_execute.lto_priv.0
                0x08008ce0       0xd8 C:\Users\Ridwane\AppData\Local\Temp\cck5XY5Q.ltrans0.ltrans.o
                0x08008ce0                rt_test_012_011_execute.lto_priv.0
 *fill*         0x08008db8        0x8 
 .text.rt_test_012_012_execute.lto_priv.0
                0x08008dc0      0x14c C:\Users\Ridwane\AppData\Local\Temp\cck5XY5Q.ltrans0.ltrans.o
                0x08008dc0                rt_test_012_012_execute.lto_priv.0
 *fill*         0x08008f0c        0x4 
 .text.oslib_test_001_002_execute.lto_priv.0
                0x08008f10       0xc4 C:\Users\Ridwane\AppData\Local\Temp\cck5XY5Q.ltrans0.ltrans.o
                0x08008f10                oslib_test_001_002_execute.lto_priv.0
 *fill*         0x08008fd4        0xc 
 .text.oslib_test_001_003_execute.lto_priv.0
                0x08008fe0      0x1ec C:\Users\Ridwane\AppData\Local\Temp\cck5XY5Q.ltrans0.ltrans.o
                0x08008fe0                oslib_test_001_003_execute.lto_priv.0
 *fill*         0x080091cc        0x4 
 .text.process_block
                0x080091d0      0x8b4 C:\Users\Ridwane\AppData\Local\Temp\cck5XY5Q.ltrans1.ltrans.o
 *fill*         0x08009a84        0xc 
 .text.SubWord  0x08009a90       0x2c C:\Users\Ridwane\AppData\Local\Temp\cck5XY5Q.ltrans1.ltrans.o
 *fill*         0x08009abc        0x4 
 .text.aes256_encrypt
                0x08009ac0      0x200 C:\Users\Ridwane\AppData\Local\Temp\cck5XY5Q.ltrans1.ltrans.o
 .text.falcon_inner_trim_i8_decode.constprop.0
                0x08009cc0       0xa8 C:\Users\Ridwane\AppData\Local\Temp\cck5XY5Q.ltrans1.ltrans.o
 *fill*         0x08009d68        0x8 
 .text.mq_NTT.constprop.0
                0x08009d70       0xd4 C:\Users\Ridwane\AppData\Local\Temp\cck5XY5Q.ltrans1.ltrans.o
 *fill*         0x08009e44        0xc 
 .text.aes256_keysched.constprop.0
                0x08009e50       0x80 C:\Users\Ridwane\AppData\Local\Temp\cck5XY5Q.ltrans1.ltrans.o
 .text.falcon_inner_i_shake256_inject.constprop.0
                0x08009ed0       0x64 C:\Users\Ridwane\AppData\Local\Temp\cck5XY5Q.ltrans1.ltrans.o
 *fill*         0x08009f34        0xc 
 .text._pal_lld_setgroupmode.constprop.0
                0x08009f40       0x90 C:\Users\Ridwane\AppData\Local\Temp\cck5XY5Q.ltrans1.ltrans.o
 .text.sdObjectInit.constprop.0
                0x08009fd0       0x58 C:\Users\Ridwane\AppData\Local\Temp\cck5XY5Q.ltrans1.ltrans.o
 *fill*         0x0800a028        0x8 
 .text.oslib_test_008_002_execute
                0x0800a030       0x7c C:\Users\Ridwane\AppData\Local\Temp\cck5XY5Q.ltrans1.ltrans.o
 *fill*         0x0800a0ac        0x4 
 .text.chFactoryCreateSemaphore.constprop.0
                0x0800a0b0       0xc0 C:\Users\Ridwane\AppData\Local\Temp\cck5XY5Q.ltrans1.ltrans.o
 .text.oslib_test_009_004_teardown
                0x0800a170       0xac C:\Users\Ridwane\AppData\Local\Temp\cck5XY5Q.ltrans1.ltrans.o
 *fill*         0x0800a21c        0x4 
 .text.oslib_test_009_001_teardown
                0x0800a220       0x68 C:\Users\Ridwane\AppData\Local\Temp\cck5XY5Q.ltrans1.ltrans.o
 *fill*         0x0800a288        0x8 
 .text.oslib_test_009_002_teardown
                0x0800a290       0xac C:\Users\Ridwane\AppData\Local\Temp\cck5XY5Q.ltrans1.ltrans.o
 *fill*         0x0800a33c        0x4 
 .text.oslib_test_009_005_teardown
                0x0800a340       0xac C:\Users\Ridwane\AppData\Local\Temp\cck5XY5Q.ltrans1.ltrans.o
 *fill*         0x0800a3ec        0x4 
 .text.oslib_test_009_006_teardown
                0x0800a3f0       0xac C:\Users\Ridwane\AppData\Local\Temp\cck5XY5Q.ltrans1.ltrans.o
 *fill*         0x0800a49c        0x4 
 .text.chFactoryFindPipe.constprop.0
                0x0800a4a0       0x60 C:\Users\Ridwane\AppData\Local\Temp\cck5XY5Q.ltrans1.ltrans.o
 .text.chFactoryFindObjectsFIFO.constprop.0
                0x0800a500       0x60 C:\Users\Ridwane\AppData\Local\Temp\cck5XY5Q.ltrans1.ltrans.o
 .text.chFactoryFindMailbox.constprop.0
                0x0800a560       0x60 C:\Users\Ridwane\AppData\Local\Temp\cck5XY5Q.ltrans1.ltrans.o
 .text.chFactoryFindSemaphore.constprop.0
                0x0800a5c0       0x60 C:\Users\Ridwane\AppData\Local\Temp\cck5XY5Q.ltrans1.ltrans.o
 .text.chFactoryFindBuffer.constprop.0
                0x0800a620       0x60 C:\Users\Ridwane\AppData\Local\Temp\cck5XY5Q.ltrans1.ltrans.o
 .text.chFactoryFindObject.constprop.0
                0x0800a680       0x60 C:\Users\Ridwane\AppData\Local\Temp\cck5XY5Q.ltrans1.ltrans.o
 .text.chFactoryRegisterObject.constprop.0
                0x0800a6e0       0xc4 C:\Users\Ridwane\AppData\Local\Temp\cck5XY5Q.ltrans1.ltrans.o
 *fill*         0x0800a7a4        0xc 
 .text.oslib_test_009_001_execute
                0x0800a7b0      0x160 C:\Users\Ridwane\AppData\Local\Temp\cck5XY5Q.ltrans1.ltrans.o
 .text.chFactoryCreatePipe.constprop.0
                0x0800a910       0x70 C:\Users\Ridwane\AppData\Local\Temp\cck5XY5Q.ltrans1.ltrans.o
 .text.oslib_test_009_006_execute
                0x0800a980      0x120 C:\Users\Ridwane\AppData\Local\Temp\cck5XY5Q.ltrans1.ltrans.o
 .text.chFactoryCreateMailbox.constprop.0
                0x0800aaa0       0x60 C:\Users\Ridwane\AppData\Local\Temp\cck5XY5Q.ltrans1.ltrans.o
 .text.oslib_test_009_004_execute
                0x0800ab00      0x120 C:\Users\Ridwane\AppData\Local\Temp\cck5XY5Q.ltrans1.ltrans.o
 .text.oslib_test_009_002_execute
                0x0800ac20      0x194 C:\Users\Ridwane\AppData\Local\Temp\cck5XY5Q.ltrans1.ltrans.o
 *fill*         0x0800adb4        0xc 
 .text.oslib_test_009_003_teardown
                0x0800adc0       0x68 C:\Users\Ridwane\AppData\Local\Temp\cck5XY5Q.ltrans1.ltrans.o
 *fill*         0x0800ae28        0x8 
 .text.oslib_test_009_003_execute
                0x0800ae30      0x120 C:\Users\Ridwane\AppData\Local\Temp\cck5XY5Q.ltrans1.ltrans.o
 .text.falcon_inner_prng_refill
                0x0800af50      0x2e8 C:\Users\Ridwane\AppData\Local\Temp\cck5XY5Q.ltrans1.ltrans.o
 *fill*         0x0800b238        0x8 
 .text.AES256_CTR_DRBG_Update.constprop.0
                0x0800b240       0x74 C:\Users\Ridwane\AppData\Local\Temp\cck5XY5Q.ltrans1.ltrans.o
 *fill*         0x0800b2b4        0xc 
 .text.randombytes.isra.0
                0x0800b2c0       0xa0 C:\Users\Ridwane\AppData\Local\Temp\cck5XY5Q.ltrans1.ltrans.o
 .text.chFactoryCreateObjectsFIFO.constprop.0
                0x0800b360       0xfc C:\Users\Ridwane\AppData\Local\Temp\cck5XY5Q.ltrans1.ltrans.o
 *fill*         0x0800b45c        0x4 
 .text.oslib_test_009_005_execute
                0x0800b460      0x120 C:\Users\Ridwane\AppData\Local\Temp\cck5XY5Q.ltrans1.ltrans.o
 .text._read_r  0x0800b580        0xc C:\Users\Ridwane\AppData\Local\Temp\cck5XY5Q.ltrans1.ltrans.o
                0x0800b580                _read_r
 *fill*         0x0800b58c        0x4 
 .text._lseek_r
                0x0800b590        0x4 C:\Users\Ridwane\AppData\Local\Temp\cck5XY5Q.ltrans1.ltrans.o
                0x0800b590                _lseek_r
 *fill*         0x0800b594        0xc 
 .text._write_r
                0x0800b5a0        0x4 C:\Users\Ridwane\AppData\Local\Temp\cck5XY5Q.ltrans1.ltrans.o
                0x0800b5a0                _write_r
 *fill*         0x0800b5a4        0xc 
 .text._close_r
                0x0800b5b0        0x4 C:\Users\Ridwane\AppData\Local\Temp\cck5XY5Q.ltrans1.ltrans.o
                0x0800b5b0                _close_r
 *fill*         0x0800b5b4        0xc 
 .text._sbrk_r  0x0800b5c0       0x3c C:\Users\Ridwane\AppData\Local\Temp\cck5XY5Q.ltrans1.ltrans.o
                0x0800b5c0                _sbrk_r
 *fill*         0x0800b5fc        0x4 
 .text._fstat_r
                0x0800b600       0x18 C:\Users\Ridwane\AppData\Local\Temp\cck5XY5Q.ltrans1.ltrans.o
                0x0800b600                _fstat_r
 *fill*         0x0800b618        0x8 
 .text._isatty_r
                0x0800b620        0x4 C:\Users\Ridwane\AppData\Local\Temp\cck5XY5Q.ltrans1.ltrans.o
                0x0800b620                _isatty_r
 *fill*         0x0800b624        0xc 
 .text._exit    0x0800b630       0x20 C:\Users\Ridwane\AppData\Local\Temp\cck5XY5Q.ltrans1.ltrans.o
                0x0800b630                _exit
 .text._kill    0x0800b650       0x20 C:\Users\Ridwane\AppData\Local\Temp\cck5XY5Q.ltrans1.ltrans.o
                0x0800b650                _kill
 .text._getpid  0x0800b670        0x4 C:\Users\Ridwane\AppData\Local\Temp\cck5XY5Q.ltrans1.ltrans.o
                0x0800b670                _getpid
 *fill*         0x0800b674        0xc 
 .text.falcon_inner_fpr_scaled
                0x0800b680       0x84 C:\Users\Ridwane\AppData\Local\Temp\cck5XY5Q.ltrans1.ltrans.o
                0x0800b680                falcon_inner_fpr_scaled
 *fill*         0x0800b704        0xc 
 .text.falcon_inner_fpr_add
                0x0800b710      0x13c C:\Users\Ridwane\AppData\Local\Temp\cck5XY5Q.ltrans1.ltrans.o
                0x0800b710                falcon_inner_fpr_add
 *fill*         0x0800b84c        0x4 
 .text.falcon_inner_fpr_mul
                0x0800b850       0xe8 C:\Users\Ridwane\AppData\Local\Temp\cck5XY5Q.ltrans1.ltrans.o
                0x0800b850                falcon_inner_fpr_mul
 *fill*         0x0800b938        0x8 
 .text.falcon_inner_sampler
                0x0800b940      0x524 C:\Users\Ridwane\AppData\Local\Temp\cck5XY5Q.ltrans1.ltrans.o
 *fill*         0x0800be64        0xc 
 .text.falcon_inner_poly_mul_fft
                0x0800be70       0xb8 C:\Users\Ridwane\AppData\Local\Temp\cck5XY5Q.ltrans1.ltrans.o
 *fill*         0x0800bf28        0x8 
 .text.falcon_inner_poly_split_fft
                0x0800bf30      0x1e0 C:\Users\Ridwane\AppData\Local\Temp\cck5XY5Q.ltrans1.ltrans.o
 .text.falcon_inner_poly_merge_fft
                0x0800c110      0x154 C:\Users\Ridwane\AppData\Local\Temp\cck5XY5Q.ltrans1.ltrans.o
 *fill*         0x0800c264        0xc 
 .text.falcon_inner_poly_muladj_fft.constprop.0
                0x0800c270       0x9c C:\Users\Ridwane\AppData\Local\Temp\cck5XY5Q.ltrans1.ltrans.o
 *fill*         0x0800c30c        0x4 
 .text.falcon_inner_poly_mulselfadj_fft.constprop.0
                0x0800c310       0x50 C:\Users\Ridwane\AppData\Local\Temp\cck5XY5Q.ltrans1.ltrans.o
 .text.falcon_inner_FFT.constprop.0
                0x0800c360      0x1a0 C:\Users\Ridwane\AppData\Local\Temp\cck5XY5Q.ltrans1.ltrans.o
 .text.falcon_inner_iFFT.constprop.0
                0x0800c500      0x214 C:\Users\Ridwane\AppData\Local\Temp\cck5XY5Q.ltrans1.ltrans.o
 *fill*         0x0800c714        0xc 
 .text.falcon_inner_fpr_div
                0x0800c720      0x640 C:\Users\Ridwane\AppData\Local\Temp\cck5XY5Q.ltrans1.ltrans.o
                0x0800c720                falcon_inner_fpr_div
 .text.falcon_inner_fpr_sqrt
                0x0800cd60      0x748 C:\Users\Ridwane\AppData\Local\Temp\cck5XY5Q.ltrans1.ltrans.o
                0x0800cd60                falcon_inner_fpr_sqrt
 *fill*         0x0800d4a8        0x8 
 .text.ffSampling_fft_dyntree.constprop.0
                0x0800d4b0      0x3fc C:\Users\Ridwane\AppData\Local\Temp\cck5XY5Q.ltrans1.ltrans.o
 *fill*         0x0800d8ac        0x4 
 .text.chCacheGetObject.constprop.0
                0x0800d8b0      0x168 C:\Users\Ridwane\AppData\Local\Temp\cck5XY5Q.ltrans1.ltrans.o
                0x0800d8b0                chCacheGetObject.constprop.0
 *fill*         0x0800da18        0x8 
 .text.chMBPostAheadI.constprop.0
                0x0800da20       0x78 C:\Users\Ridwane\AppData\Local\Temp\cck5XY5Q.ltrans1.ltrans.o
                0x0800da20                chMBPostAheadI.constprop.0
 *fill*         0x0800da98        0x8 
 .text.chMBPostAheadTimeout.constprop.0
                0x0800daa0       0xc0 C:\Users\Ridwane\AppData\Local\Temp\cck5XY5Q.ltrans1.ltrans.o
                0x0800daa0                chMBPostAheadTimeout.constprop.0
 .text.chMBReset.constprop.0
                0x0800db60       0xb0 C:\Users\Ridwane\AppData\Local\Temp\cck5XY5Q.ltrans1.ltrans.o
                0x0800db60                chMBReset.constprop.0
 .text.chThdCreateFromMemoryPool.constprop.0
                0x0800dc10       0x88 C:\Users\Ridwane\AppData\Local\Temp\cck5XY5Q.ltrans1.ltrans.o
                0x0800dc10                chThdCreateFromMemoryPool.constprop.0
 *fill*         0x0800dc98        0x8 
 .text.chThdCreateFromHeap.constprop.0
                0x0800dca0       0x60 C:\Users\Ridwane\AppData\Local\Temp\cck5XY5Q.ltrans1.ltrans.o
                0x0800dca0                chThdCreateFromHeap.constprop.0
 .text.chEvtWaitOne.constprop.0
                0x0800dd00       0x4c C:\Users\Ridwane\AppData\Local\Temp\cck5XY5Q.ltrans1.ltrans.o
                0x0800dd00                chEvtWaitOne.constprop.0
 *fill*         0x0800dd4c        0x4 
 .text.chSemResetWithMessage.constprop.0
                0x0800dd50       0x60 C:\Users\Ridwane\AppData\Local\Temp\cck5XY5Q.ltrans1.ltrans.o
                0x0800dd50                chSemResetWithMessage.constprop.0
 .text.vt_insert_first.constprop.0
                0x0800ddb0       0x60 C:\Users\Ridwane\AppData\Local\Temp\cck5XY5Q.ltrans1.ltrans.o
                0x0800ddb0                vt_insert_first.constprop.0
 .text.vt_enqueue.constprop.0
                0x0800de10       0x9c C:\Users\Ridwane\AppData\Local\Temp\cck5XY5Q.ltrans1.ltrans.o
                0x0800de10                vt_enqueue.constprop.0
 *fill*         0x0800deac        0x4 
 .text.Thread1  0x0800deb0      0xfd8 C:\Users\Ridwane\AppData\Local\Temp\cck5XY5Q.ltrans1.ltrans.o
 *fill*         0x0800ee88        0x8 
 .text.chPipeReadTimeout.part.0.constprop.0
                0x0800ee90       0xe0 C:\Users\Ridwane\AppData\Local\Temp\cck5XY5Q.ltrans1.ltrans.o
                0x0800ee90                chPipeReadTimeout.part.0.constprop.0
 .text.chPipeWriteTimeout.part.0.constprop.0
                0x0800ef70       0xe4 C:\Users\Ridwane\AppData\Local\Temp\cck5XY5Q.ltrans1.ltrans.o
                0x0800ef70                chPipeWriteTimeout.part.0.constprop.0
 *fill*         0x0800f054        0xc 
 .text.test_execute_inner.isra.0
                0x0800f060      0x2f0 C:\Users\Ridwane\AppData\Local\Temp\cck5XY5Q.ltrans1.ltrans.o
 .text.startup.main
                0x0800f350      0x478 C:\Users\Ridwane\AppData\Local\Temp\cck5XY5Q.ltrans1.ltrans.o
                0x0800f350                main
 *fill*         0x0800f7c8        0x8 
 .text.chSemSignalWait.constprop.0.isra.0
                0x0800f7d0       0x98 C:\Users\Ridwane\AppData\Local\Temp\cck5XY5Q.ltrans1.ltrans.o
                0x0800f7d0                chSemSignalWait.constprop.0.isra.0
 .text.rand     0x0800f868       0x7c c:/chibistudio/tools/gnu tools arm embedded/11.3 2022.08/bin/../lib/gcc/arm-none-eabi/11.3.1/thumb/v7e-m/nofp\libg_nano.a(libc_a-rand.o)
                0x0800f868                rand
 .text.__assert_func
                0x0800f8e4       0x3c c:/chibistudio/tools/gnu tools arm embedded/11.3 2022.08/bin/../lib/gcc/arm-none-eabi/11.3.1/thumb/v7e-m/nofp\libg_nano.a(libc_a-assert.o)
                0x0800f8e4                __assert_func
 .text.malloc   0x0800f920       0x10 c:/chibistudio/tools/gnu tools arm embedded/11.3 2022.08/bin/../lib/gcc/arm-none-eabi/11.3.1/thumb/v7e-m/nofp\libg_nano.a(libc_a-malloc.o)
                0x0800f920                malloc
 .text.sbrk_aligned
                0x0800f930       0x40 c:/chibistudio/tools/gnu tools arm embedded/11.3 2022.08/bin/../lib/gcc/arm-none-eabi/11.3.1/thumb/v7e-m/nofp\libg_nano.a(libc_a-mallocr.o)
 .text._malloc_r
                0x0800f970       0xec c:/chibistudio/tools/gnu tools arm embedded/11.3 2022.08/bin/../lib/gcc/arm-none-eabi/11.3.1/thumb/v7e-m/nofp\libg_nano.a(libc_a-mallocr.o)
                0x0800f970                _malloc_r
 .text.__malloc_lock
                0x0800fa5c        0xc c:/chibistudio/tools/gnu tools arm embedded/11.3 2022.08/bin/../lib/gcc/arm-none-eabi/11.3.1/thumb/v7e-m/nofp\libg_nano.a(libc_a-mlock.o)
                0x0800fa5c                __malloc_lock
 .text.__malloc_unlock
                0x0800fa68        0xc c:/chibistudio/tools/gnu tools arm embedded/11.3 2022.08/bin/../lib/gcc/arm-none-eabi/11.3.1/thumb/v7e-m/nofp\libg_nano.a(libc_a-mlock.o)
                0x0800fa68                __malloc_unlock
 .text.fprintf  0x0800fa74       0x24 c:/chibistudio/tools/gnu tools arm embedded/11.3 2022.08/bin/../lib/gcc/arm-none-eabi/11.3.1/thumb/v7e-m/nofp\libg_nano.a(libc_a-fprintf.o)
                0x0800fa74                fiprintf
                0x0800fa74                fprintf
 .text.__retarget_lock_acquire_recursive
                0x0800fa98        0x2 c:/chibistudio/tools/gnu tools arm embedded/11.3 2022.08/bin/../lib/gcc/arm-none-eabi/11.3.1/thumb/v7e-m/nofp\libg_nano.a(libc_a-lock.o)
                0x0800fa98                __retarget_lock_acquire_recursive
 .text.__retarget_lock_release_recursive
                0x0800fa9a        0x2 c:/chibistudio/tools/gnu tools arm embedded/11.3 2022.08/bin/../lib/gcc/arm-none-eabi/11.3.1/thumb/v7e-m/nofp\libg_nano.a(libc_a-lock.o)
                0x0800fa9a                __retarget_lock_release_recursive
 .text.abort    0x0800fa9c        0xe c:/chibistudio/tools/gnu tools arm embedded/11.3 2022.08/bin/../lib/gcc/arm-none-eabi/11.3.1/thumb/v7e-m/nofp\libg_nano.a(libc_a-abort.o)
                0x0800fa9c                abort
 *fill*         0x0800faaa        0x2 
 .text._free_r  0x0800faac       0x94 c:/chibistudio/tools/gnu tools arm embedded/11.3 2022.08/bin/../lib/gcc/arm-none-eabi/11.3.1/thumb/v7e-m/nofp\libg_nano.a(libc_a-freer.o)
                0x0800faac                _free_r
 .text.__sfputc_r
                0x0800fb40       0x2a c:/chibistudio/tools/gnu tools arm embedded/11.3 2022.08/bin/../lib/gcc/arm-none-eabi/11.3.1/thumb/v7e-m/nofp\libg_nano.a(libc_a-nano-vfprintf.o)
 .text.__sfputs_r
                0x0800fb6a       0x24 c:/chibistudio/tools/gnu tools arm embedded/11.3 2022.08/bin/../lib/gcc/arm-none-eabi/11.3.1/thumb/v7e-m/nofp\libg_nano.a(libc_a-nano-vfprintf.o)
                0x0800fb6a                __sfputs_r
 *fill*         0x0800fb8e        0x2 
 .text._vfprintf_r
                0x0800fb90      0x234 c:/chibistudio/tools/gnu tools arm embedded/11.3 2022.08/bin/../lib/gcc/arm-none-eabi/11.3.1/thumb/v7e-m/nofp\libg_nano.a(libc_a-nano-vfprintf.o)
                0x0800fb90                _vfprintf_r
                0x0800fb90                _vfiprintf_r
 .text._printf_common
                0x0800fdc4       0xda c:/chibistudio/tools/gnu tools arm embedded/11.3 2022.08/bin/../lib/gcc/arm-none-eabi/11.3.1/thumb/v7e-m/nofp\libg_nano.a(libc_a-nano-vfprintf_i.o)
                0x0800fdc4                _printf_common
 *fill*         0x0800fe9e        0x2 
 .text._printf_i
                0x0800fea0      0x244 c:/chibistudio/tools/gnu tools arm embedded/11.3 2022.08/bin/../lib/gcc/arm-none-eabi/11.3.1/thumb/v7e-m/nofp\libg_nano.a(libc_a-nano-vfprintf_i.o)
                0x0800fea0                _printf_i
 .text.std      0x080100e4       0x48 c:/chibistudio/tools/gnu tools arm embedded/11.3 2022.08/bin/../lib/gcc/arm-none-eabi/11.3.1/thumb/v7e-m/nofp\libg_nano.a(libc_a-findfp.o)
 .text.stdio_exit_handler
                0x0801012c       0x18 c:/chibistudio/tools/gnu tools arm embedded/11.3 2022.08/bin/../lib/gcc/arm-none-eabi/11.3.1/thumb/v7e-m/nofp\libg_nano.a(libc_a-findfp.o)
 .text.cleanup_stdio
                0x08010144       0x40 c:/chibistudio/tools/gnu tools arm embedded/11.3 2022.08/bin/../lib/gcc/arm-none-eabi/11.3.1/thumb/v7e-m/nofp\libg_nano.a(libc_a-findfp.o)
 .text.global_stdio_init.part.0
                0x08010184       0x3c c:/chibistudio/tools/gnu tools arm embedded/11.3 2022.08/bin/../lib/gcc/arm-none-eabi/11.3.1/thumb/v7e-m/nofp\libg_nano.a(libc_a-findfp.o)
 .text.__sfp_lock_acquire
                0x080101c0        0xc c:/chibistudio/tools/gnu tools arm embedded/11.3 2022.08/bin/../lib/gcc/arm-none-eabi/11.3.1/thumb/v7e-m/nofp\libg_nano.a(libc_a-findfp.o)
                0x080101c0                __sfp_lock_acquire
 .text.__sfp_lock_release
                0x080101cc        0xc c:/chibistudio/tools/gnu tools arm embedded/11.3 2022.08/bin/../lib/gcc/arm-none-eabi/11.3.1/thumb/v7e-m/nofp\libg_nano.a(libc_a-findfp.o)
                0x080101cc                __sfp_lock_release
 .text.__sinit  0x080101d8       0x30 c:/chibistudio/tools/gnu tools arm embedded/11.3 2022.08/bin/../lib/gcc/arm-none-eabi/11.3.1/thumb/v7e-m/nofp\libg_nano.a(libc_a-findfp.o)
                0x080101d8                __sinit
 .text._fwalk_sglue
                0x08010208       0x3c c:/chibistudio/tools/gnu tools arm embedded/11.3 2022.08/bin/../lib/gcc/arm-none-eabi/11.3.1/thumb/v7e-m/nofp\libg_nano.a(libc_a-fwalk.o)
                0x08010208                _fwalk_sglue
 .text.__sread  0x08010244       0x22 c:/chibistudio/tools/gnu tools arm embedded/11.3 2022.08/bin/../lib/gcc/arm-none-eabi/11.3.1/thumb/v7e-m/nofp\libg_nano.a(libc_a-stdio.o)
                0x08010244                __sread
 .text.__swrite
                0x08010266       0x38 c:/chibistudio/tools/gnu tools arm embedded/11.3 2022.08/bin/../lib/gcc/arm-none-eabi/11.3.1/thumb/v7e-m/nofp\libg_nano.a(libc_a-stdio.o)
                0x08010266                __swrite
 .text.__sseek  0x0801029e       0x24 c:/chibistudio/tools/gnu tools arm embedded/11.3 2022.08/bin/../lib/gcc/arm-none-eabi/11.3.1/thumb/v7e-m/nofp\libg_nano.a(libc_a-stdio.o)
                0x0801029e                __sseek
 .text.__sclose
                0x080102c2        0x8 c:/chibistudio/tools/gnu tools arm embedded/11.3 2022.08/bin/../lib/gcc/arm-none-eabi/11.3.1/thumb/v7e-m/nofp\libg_nano.a(libc_a-stdio.o)
                0x080102c2                __sclose
 .text.__swbuf_r
                0x080102ca       0x7a c:/chibistudio/tools/gnu tools arm embedded/11.3 2022.08/bin/../lib/gcc/arm-none-eabi/11.3.1/thumb/v7e-m/nofp\libg_nano.a(libc_a-wbuf.o)
                0x080102ca                __swbuf_r
 .text.__swsetup_r
                0x08010344       0xb0 c:/chibistudio/tools/gnu tools arm embedded/11.3 2022.08/bin/../lib/gcc/arm-none-eabi/11.3.1/thumb/v7e-m/nofp\libg_nano.a(libc_a-wsetup.o)
                0x08010344                __swsetup_r
 .text.memmove  0x080103f4       0x34 c:/chibistudio/tools/gnu tools arm embedded/11.3 2022.08/bin/../lib/gcc/arm-none-eabi/11.3.1/thumb/v7e-m/nofp\libg_nano.a(libc_a-memmove.o)
                0x080103f4                memmove
 .text.memset   0x08010428       0x10 c:/chibistudio/tools/gnu tools arm embedded/11.3 2022.08/bin/../lib/gcc/arm-none-eabi/11.3.1/thumb/v7e-m/nofp\libg_nano.a(libc_a-memset.o)
                0x08010428                memset
 .text._raise_r
                0x08010438       0x50 c:/chibistudio/tools/gnu tools arm embedded/11.3 2022.08/bin/../lib/gcc/arm-none-eabi/11.3.1/thumb/v7e-m/nofp\libg_nano.a(libc_a-signal.o)
                0x08010438                _raise_r
 .text.raise    0x08010488       0x10 c:/chibistudio/tools/gnu tools arm embedded/11.3 2022.08/bin/../lib/gcc/arm-none-eabi/11.3.1/thumb/v7e-m/nofp\libg_nano.a(libc_a-signal.o)
                0x08010488                raise
 .text._kill_r  0x08010498       0x24 c:/chibistudio/tools/gnu tools arm embedded/11.3 2022.08/bin/../lib/gcc/arm-none-eabi/11.3.1/thumb/v7e-m/nofp\libg_nano.a(libc_a-signalr.o)
                0x08010498                _kill_r
 .text._getpid_r
                0x080104bc        0x4 c:/chibistudio/tools/gnu tools arm embedded/11.3 2022.08/bin/../lib/gcc/arm-none-eabi/11.3.1/thumb/v7e-m/nofp\libg_nano.a(libc_a-signalr.o)
                0x080104bc                _getpid_r
 .text.memcpy   0x080104c0       0x1c c:/chibistudio/tools/gnu tools arm embedded/11.3 2022.08/bin/../lib/gcc/arm-none-eabi/11.3.1/thumb/v7e-m/nofp\libg_nano.a(libc_a-memcpy-stub.o)
                0x080104c0                memcpy
 .text.__sflush_r
                0x080104dc      0x104 c:/chibistudio/tools/gnu tools arm embedded/11.3 2022.08/bin/../lib/gcc/arm-none-eabi/11.3.1/thumb/v7e-m/nofp\libg_nano.a(libc_a-fflush.o)
                0x080104dc                __sflush_r
 .text._fflush_r
                0x080105e0       0x50 c:/chibistudio/tools/gnu tools arm embedded/11.3 2022.08/bin/../lib/gcc/arm-none-eabi/11.3.1/thumb/v7e-m/nofp\libg_nano.a(libc_a-fflush.o)
                0x080105e0                _fflush_r
 .text.__swhatbuf_r
                0x08010630       0x4c c:/chibistudio/tools/gnu tools arm embedded/11.3 2022.08/bin/../lib/gcc/arm-none-eabi/11.3.1/thumb/v7e-m/nofp\libg_nano.a(libc_a-makebuf.o)
                0x08010630                __swhatbuf_r
 .text.__smakebuf_r
                0x0801067c       0x78 c:/chibistudio/tools/gnu tools arm embedded/11.3 2022.08/bin/../lib/gcc/arm-none-eabi/11.3.1/thumb/v7e-m/nofp\libg_nano.a(libc_a-makebuf.o)
                0x0801067c                __smakebuf_r
 .text.memcmp   0x080106f4       0x20 c:/chibistudio/tools/gnu tools arm embedded/11.3 2022.08/bin/../lib/gcc/arm-none-eabi/11.3.1/thumb/v7e-m/nofp\libg_nano.a(libc_a-memcmp.o)
                0x080106f4                memcmp
 .text.strncmp  0x08010714       0x24 c:/chibistudio/tools/gnu tools arm embedded/11.3 2022.08/bin/../lib/gcc/arm-none-eabi/11.3.1/thumb/v7e-m/nofp\libg_nano.a(libc_a-strncmp.o)
                0x08010714                strncmp
 *(.glue_7t)
 .glue_7t       0x08010738        0x0 linker stubs
 *(.glue_7)
 .glue_7        0x08010738        0x0 linker stubs
 *(.gcc*)
                0x08010738                __text_end__ = .

.vfp11_veneer   0x08010738        0x0
 .vfp11_veneer  0x08010738        0x0 linker stubs

.v4_bx          0x08010738        0x0
 .v4_bx         0x08010738        0x0 linker stubs

.iplt           0x08010738        0x0
 .iplt          0x08010738        0x0 ./build/obj/crt0_v7m.o

.rodata         0x08010738     0x7e80
                0x08010738                __rodata_base__ = .
 *(.rodata)
 *(.rodata.*)
 .rodata.rt_test_002_001_execute.lto_priv.0.str1.4
                0x08010738       0x57 C:\Users\Ridwane\AppData\Local\Temp\cck5XY5Q.ltrans0.ltrans.o
 *fill*         0x0801078f        0x1 
 .rodata.rt_test_010_001_execute.lto_priv.0.str1.4
                0x08010790       0x1b C:\Users\Ridwane\AppData\Local\Temp\cck5XY5Q.ltrans0.ltrans.o
 *fill*         0x080107ab        0x1 
 .rodata.rt_test_010_002_execute.lto_priv.0.str1.4
                0x080107ac       0x18 C:\Users\Ridwane\AppData\Local\Temp\cck5XY5Q.ltrans0.ltrans.o
 .rodata.oslib_test_007_001_execute.lto_priv.0.str1.4
                0x080107c4       0x35 C:\Users\Ridwane\AppData\Local\Temp\cck5XY5Q.ltrans0.ltrans.o
 *fill*         0x080107f9        0x3 
 .rodata.oslib_test_003_002_execute.lto_priv.0.str1.4
                0x080107fc       0x1f C:\Users\Ridwane\AppData\Local\Temp\cck5XY5Q.ltrans0.ltrans.o
 *fill*         0x0801081b        0x1 
 .rodata.rt_test_005_003_execute.lto_priv.0.str1.4
                0x0801081c       0x3e C:\Users\Ridwane\AppData\Local\Temp\cck5XY5Q.ltrans0.ltrans.o
 *fill*         0x0801085a        0x2 
 .rodata.rt_test_005_004_execute.lto_priv.0.str1.4
                0x0801085c       0x47 C:\Users\Ridwane\AppData\Local\Temp\cck5XY5Q.ltrans0.ltrans.o
 *fill*         0x080108a3        0x1 
 .rodata.oslib_test_006_001_execute.lto_priv.0.str1.4
                0x080108a4       0x5d C:\Users\Ridwane\AppData\Local\Temp\cck5XY5Q.ltrans0.ltrans.o
                                 0x69 (size before relaxing)
 *fill*         0x08010901        0x3 
 .rodata.oslib_test_002_003_execute.lto_priv.0.str1.4
                0x08010904       0x16 C:\Users\Ridwane\AppData\Local\Temp\cck5XY5Q.ltrans0.ltrans.o
 *fill*         0x0801091a        0x2 
 .rodata.rt_test_002_002_execute.lto_priv.0.str1.4
                0x0801091c       0x12 C:\Users\Ridwane\AppData\Local\Temp\cck5XY5Q.ltrans0.ltrans.o
 *fill*         0x0801092e        0x2 
 .rodata.rt_test_004_001_execute.lto_priv.0.str1.4
                0x08010930        0xe C:\Users\Ridwane\AppData\Local\Temp\cck5XY5Q.ltrans0.ltrans.o
 *fill*         0x0801093e        0x2 
 .rodata.rt_test_005_001_execute.lto_priv.0.str1.4
                0x08010940       0x13 C:\Users\Ridwane\AppData\Local\Temp\cck5XY5Q.ltrans0.ltrans.o
 *fill*         0x08010953        0x1 
 .rodata.rt_test_010_006_execute.lto_priv.0.str1.4
                0x08010954        0xf C:\Users\Ridwane\AppData\Local\Temp\cck5XY5Q.ltrans0.ltrans.o
 *fill*         0x08010963        0x1 
 .rodata.rt_test_007_001_execute.lto_priv.0.str1.4
                0x08010964       0x2b C:\Users\Ridwane\AppData\Local\Temp\cck5XY5Q.ltrans0.ltrans.o
 *fill*         0x0801098f        0x1 
 .rodata.chThdCreateStatic.str1.4
                0x08010990        0x7 C:\Users\Ridwane\AppData\Local\Temp\cck5XY5Q.ltrans0.ltrans.o
 *fill*         0x08010997        0x1 
 .rodata.rt_test_007_005_execute.lto_priv.0.str1.4
                0x08010998       0x21 C:\Users\Ridwane\AppData\Local\Temp\cck5XY5Q.ltrans0.ltrans.o
 *fill*         0x080109b9        0x3 
 .rodata.rt_test_007_006_execute.lto_priv.0.str1.4
                0x080109bc       0x3f C:\Users\Ridwane\AppData\Local\Temp\cck5XY5Q.ltrans0.ltrans.o
                                 0x46 (size before relaxing)
 *fill*         0x080109fb        0x1 
 .rodata.rt_test_008_004_execute.lto_priv.0.str1.4
                0x080109fc       0x1d C:\Users\Ridwane\AppData\Local\Temp\cck5XY5Q.ltrans0.ltrans.o
 *fill*         0x08010a19        0x3 
 .rodata.rt_test_008_005_execute.lto_priv.0.str1.4
                0x08010a1c       0x28 C:\Users\Ridwane\AppData\Local\Temp\cck5XY5Q.ltrans0.ltrans.o
 .rodata.rt_test_010_003_execute.lto_priv.0.str1.4
                0x08010a44       0x31 C:\Users\Ridwane\AppData\Local\Temp\cck5XY5Q.ltrans0.ltrans.o
 *fill*         0x08010a75        0x3 
 .rodata.rt_test_005_002_execute.lto_priv.0.str1.4
                0x08010a78        0xe C:\Users\Ridwane\AppData\Local\Temp\cck5XY5Q.ltrans0.ltrans.o
                                 0x12 (size before relaxing)
 *fill*         0x08010a86        0x2 
 .rodata.rt_test_006_001_execute.lto_priv.0.str1.4
                0x08010a88        0x9 C:\Users\Ridwane\AppData\Local\Temp\cck5XY5Q.ltrans0.ltrans.o
 *fill*         0x08010a91        0x3 
 .rodata.rt_test_007_004_execute.lto_priv.0.str1.4
                0x08010a94       0x10 C:\Users\Ridwane\AppData\Local\Temp\cck5XY5Q.ltrans0.ltrans.o
 .rodata.rt_test_009_001_execute.lto_priv.0.str1.4
                0x08010aa4        0x5 C:\Users\Ridwane\AppData\Local\Temp\cck5XY5Q.ltrans0.ltrans.o
 *fill*         0x08010aa9        0x3 
 .rodata.rt_test_010_004_execute.lto_priv.0.str1.4
                0x08010aac       0x17 C:\Users\Ridwane\AppData\Local\Temp\cck5XY5Q.ltrans0.ltrans.o
 *fill*         0x08010ac3        0x1 
 .rodata.rt_test_011_001_execute.lto_priv.0.str1.4
                0x08010ac4       0xb2 C:\Users\Ridwane\AppData\Local\Temp\cck5XY5Q.ltrans0.ltrans.o
 *fill*         0x08010b76        0x2 
 .rodata.rt_test_011_002_execute.lto_priv.0.str1.4
                0x08010b78       0x34 C:\Users\Ridwane\AppData\Local\Temp\cck5XY5Q.ltrans0.ltrans.o
 .rodata.oslib_test_004_001_execute.lto_priv.0.str1.4
                0x08010bac       0x18 C:\Users\Ridwane\AppData\Local\Temp\cck5XY5Q.ltrans0.ltrans.o
 .rodata.oslib_test_005_001_execute.lto_priv.0.str1.4
                0x08010bc4       0x46 C:\Users\Ridwane\AppData\Local\Temp\cck5XY5Q.ltrans0.ltrans.o
 *fill*         0x08010c0a        0x2 
 .rodata.oslib_test_002_001_execute.lto_priv.0.str1.4
                0x08010c0c       0xb7 C:\Users\Ridwane\AppData\Local\Temp\cck5XY5Q.ltrans0.ltrans.o
 *fill*         0x08010cc3        0x1 
 .rodata.oslib_test_003_001_execute.lto_priv.0.str1.4
                0x08010cc4       0x1d C:\Users\Ridwane\AppData\Local\Temp\cck5XY5Q.ltrans0.ltrans.o
 *fill*         0x08010ce1        0x3 
 .rodata.oslib_test_008_001_execute.lto_priv.0.str1.4
                0x08010ce4       0x75 C:\Users\Ridwane\AppData\Local\Temp\cck5XY5Q.ltrans0.ltrans.o
 *fill*         0x08010d59        0x3 
 .rodata.test_printf.str1.4
                0x08010d5c        0x7 C:\Users\Ridwane\AppData\Local\Temp\cck5XY5Q.ltrans0.ltrans.o
 *fill*         0x08010d63        0x1 
 .rodata.rt_test_001_001_execute.lto_priv.0.str1.4
                0x08010d64      0x17d C:\Users\Ridwane\AppData\Local\Temp\cck5XY5Q.ltrans0.ltrans.o
                                0x185 (size before relaxing)
 *fill*         0x08010ee1        0x3 
 .rodata.rt_test_001_002_execute.lto_priv.0.str1.4
                0x08010ee4      0x115 C:\Users\Ridwane\AppData\Local\Temp\cck5XY5Q.ltrans0.ltrans.o
 *fill*         0x08010ff9        0x3 
 .rodata.rt_test_001_003_execute.lto_priv.0.str1.4
                0x08010ffc      0x57d C:\Users\Ridwane\AppData\Local\Temp\cck5XY5Q.ltrans0.ltrans.o
 *fill*         0x08011579        0x3 
 .rodata.rt_test_012_001_execute.lto_priv.0.str1.4
                0x0801157c       0x26 C:\Users\Ridwane\AppData\Local\Temp\cck5XY5Q.ltrans0.ltrans.o
 *fill*         0x080115a2        0x2 
 .rodata.rt_test_012_005_execute.lto_priv.0.str1.4
                0x080115a4        0xb C:\Users\Ridwane\AppData\Local\Temp\cck5XY5Q.ltrans0.ltrans.o
 *fill*         0x080115af        0x1 
 .rodata.rt_test_012_007_execute.lto_priv.0.str1.4
                0x080115b0       0x11 C:\Users\Ridwane\AppData\Local\Temp\cck5XY5Q.ltrans0.ltrans.o
 *fill*         0x080115c1        0x3 
 .rodata.rt_test_012_009_execute.lto_priv.0.str1.4
                0x080115c4        0xa C:\Users\Ridwane\AppData\Local\Temp\cck5XY5Q.ltrans0.ltrans.o
 *fill*         0x080115ce        0x2 
 .rodata.rt_test_012_010_execute.lto_priv.0.str1.4
                0x080115d0        0xf C:\Users\Ridwane\AppData\Local\Temp\cck5XY5Q.ltrans0.ltrans.o
 *fill*         0x080115df        0x1 
 .rodata.rt_test_012_011_execute.lto_priv.0.str1.4
                0x080115e0        0xf C:\Users\Ridwane\AppData\Local\Temp\cck5XY5Q.ltrans0.ltrans.o
 *fill*         0x080115ef        0x1 
 .rodata.rt_test_012_012_execute.lto_priv.0.str1.4
                0x080115f0       0x95 C:\Users\Ridwane\AppData\Local\Temp\cck5XY5Q.ltrans0.ltrans.o
 *fill*         0x08011685        0x3 
 .rodata.oslib_test_001_002_execute.lto_priv.0.str1.4
                0x08011688       0x3a C:\Users\Ridwane\AppData\Local\Temp\cck5XY5Q.ltrans0.ltrans.o
 *fill*         0x080116c2        0x2 
 .rodata.oslib_test_001_003_execute.lto_priv.0.str1.4
                0x080116c4      0x2bd C:\Users\Ridwane\AppData\Local\Temp\cck5XY5Q.ltrans0.ltrans.o
 *fill*         0x08011981        0x3 
 .rodata.evhndl
                0x08011984        0xc C:\Users\Ridwane\AppData\Local\Temp\cck5XY5Q.ltrans0.ltrans.o
 .rodata.pipe_pattern.lto_priv.0
                0x08011990       0x11 C:\Users\Ridwane\AppData\Local\Temp\cck5XY5Q.ltrans0.ltrans.o
                0x08011990                pipe_pattern.lto_priv.0
 *fill*         0x080119a1        0x3 
 .rodata.ram_areas
                0x080119a4       0x80 C:\Users\Ridwane\AppData\Local\Temp\cck5XY5Q.ltrans0.ltrans.o
 .rodata.wa     0x08011a24       0x14 C:\Users\Ridwane\AppData\Local\Temp\cck5XY5Q.ltrans0.ltrans.o
 .rodata.oslib_test_008_002_execute.str1.4
                0x08011a38       0x2a C:\Users\Ridwane\AppData\Local\Temp\cck5XY5Q.ltrans1.ltrans.o
 .rodata.chFactoryCreateSemaphore.constprop.0.str1.4
                0x08011a38        0x6 C:\Users\Ridwane\AppData\Local\Temp\cck5XY5Q.ltrans1.ltrans.o
 *fill*         0x08011a3e        0x2 
 .rodata.oslib_test_009_004_teardown.str1.4
                0x08011a40        0x6 C:\Users\Ridwane\AppData\Local\Temp\cck5XY5Q.ltrans1.ltrans.o
 *fill*         0x08011a46        0x2 
 .rodata.oslib_test_009_001_teardown.str1.4
                0x08011a48        0x6 C:\Users\Ridwane\AppData\Local\Temp\cck5XY5Q.ltrans1.ltrans.o
 *fill*         0x08011a4e        0x2 
 .rodata.oslib_test_009_002_teardown.str1.4
                0x08011a50        0x6 C:\Users\Ridwane\AppData\Local\Temp\cck5XY5Q.ltrans1.ltrans.o
 *fill*         0x08011a56        0x2 
 .rodata.oslib_test_009_005_teardown.str1.4
                0x08011a58        0x7 C:\Users\Ridwane\AppData\Local\Temp\cck5XY5Q.ltrans1.ltrans.o
 *fill*         0x08011a5f        0x1 
 .rodata.oslib_test_009_006_teardown.str1.4
                0x08011a60        0x7 C:\Users\Ridwane\AppData\Local\Temp\cck5XY5Q.ltrans1.ltrans.o
 *fill*         0x08011a67        0x1 
 .rodata.oslib_test_009_001_execute.str1.4
                0x08011a68       0x6c C:\Users\Ridwane\AppData\Local\Temp\cck5XY5Q.ltrans1.ltrans.o
                                 0x74 (size before relaxing)
 .rodata.oslib_test_009_006_execute.str1.4
                0x08011ad4       0x1b C:\Users\Ridwane\AppData\Local\Temp\cck5XY5Q.ltrans1.ltrans.o
 *fill*         0x08011aef        0x1 
 .rodata._exit.str1.4
                0x08011af0        0x5 C:\Users\Ridwane\AppData\Local\Temp\cck5XY5Q.ltrans1.ltrans.o
 *fill*         0x08011af5        0x3 
 .rodata._kill.str1.4
                0x08011af8        0x5 C:\Users\Ridwane\AppData\Local\Temp\cck5XY5Q.ltrans1.ltrans.o
 *fill*         0x08011afd        0x3 
 .rodata.Thread1.str1.4
                0x08011b00        0xc C:\Users\Ridwane\AppData\Local\Temp\cck5XY5Q.ltrans1.ltrans.o
 .rodata.test_execute_inner.isra.0.str1.4
                0x08011b0c      0x1f7 C:\Users\Ridwane\AppData\Local\Temp\cck5XY5Q.ltrans1.ltrans.o
                                0x1ff (size before relaxing)
 *fill*         0x08011d03        0x1 
 .rodata.main.str1.4
                0x08011d04        0x5 C:\Users\Ridwane\AppData\Local\Temp\cck5XY5Q.ltrans1.ltrans.o
 *fill*         0x08011d09        0x3 
 .rodata.str1.4
                0x08011d0c      0xa0a C:\Users\Ridwane\AppData\Local\Temp\cck5XY5Q.ltrans1.ltrans.o
 *fill*         0x08012716        0x2 
 .rodata.C.0    0x08012718       0x68 C:\Users\Ridwane\AppData\Local\Temp\cck5XY5Q.ltrans1.ltrans.o
 .rodata.GMb    0x08012780      0x800 C:\Users\Ridwane\AppData\Local\Temp\cck5XY5Q.ltrans1.ltrans.o
 .rodata.Rcon   0x08012f80       0x28 C:\Users\Ridwane\AppData\Local\Temp\cck5XY5Q.ltrans1.ltrans.o
 .rodata.S      0x08012fa8      0x100 C:\Users\Ridwane\AppData\Local\Temp\cck5XY5Q.ltrans1.ltrans.o
 .rodata.Ssm0   0x080130a8      0x400 C:\Users\Ridwane\AppData\Local\Temp\cck5XY5Q.ltrans1.ltrans.o
 .rodata.ch_core0_cfg
                0x080134a8       0x14 C:\Users\Ridwane\AppData\Local\Temp\cck5XY5Q.ltrans1.ltrans.o
 .rodata.ch_debug
                0x080134bc       0x2c C:\Users\Ridwane\AppData\Local\Temp\cck5XY5Q.ltrans1.ltrans.o
 .rodata.default_config
                0x080134e8        0xc C:\Users\Ridwane\AppData\Local\Temp\cck5XY5Q.ltrans1.ltrans.o
 .rodata.dist.0
                0x080134f4       0xd8 C:\Users\Ridwane\AppData\Local\Temp\cck5XY5Q.ltrans1.ltrans.o
 *fill*         0x080135cc        0x4 
 .rodata.falcon_inner_fpr_gm_tab
                0x080135d0     0x4000 C:\Users\Ridwane\AppData\Local\Temp\cck5XY5Q.ltrans1.ltrans.o
 .rodata.iGMb   0x080175d0      0x800 C:\Users\Ridwane\AppData\Local\Temp\cck5XY5Q.ltrans1.ltrans.o
 .rodata.oslib_test_001_001
                0x08017dd0       0x10 C:\Users\Ridwane\AppData\Local\Temp\cck5XY5Q.ltrans1.ltrans.o
 .rodata.oslib_test_001_002
                0x08017de0       0x10 C:\Users\Ridwane\AppData\Local\Temp\cck5XY5Q.ltrans1.ltrans.o
 .rodata.oslib_test_001_003
                0x08017df0       0x10 C:\Users\Ridwane\AppData\Local\Temp\cck5XY5Q.ltrans1.ltrans.o
 .rodata.oslib_test_002_001
                0x08017e00       0x10 C:\Users\Ridwane\AppData\Local\Temp\cck5XY5Q.ltrans1.ltrans.o
 .rodata.oslib_test_002_002
                0x08017e10       0x10 C:\Users\Ridwane\AppData\Local\Temp\cck5XY5Q.ltrans1.ltrans.o
 .rodata.oslib_test_002_003
                0x08017e20       0x10 C:\Users\Ridwane\AppData\Local\Temp\cck5XY5Q.ltrans1.ltrans.o
 .rodata.oslib_test_003_001
                0x08017e30       0x10 C:\Users\Ridwane\AppData\Local\Temp\cck5XY5Q.ltrans1.ltrans.o
 .rodata.oslib_test_003_002
                0x08017e40       0x10 C:\Users\Ridwane\AppData\Local\Temp\cck5XY5Q.ltrans1.ltrans.o
 .rodata.oslib_test_004_001
                0x08017e50       0x10 C:\Users\Ridwane\AppData\Local\Temp\cck5XY5Q.ltrans1.ltrans.o
 .rodata.oslib_test_005_001
                0x08017e60       0x10 C:\Users\Ridwane\AppData\Local\Temp\cck5XY5Q.ltrans1.ltrans.o
 .rodata.oslib_test_006_001
                0x08017e70       0x10 C:\Users\Ridwane\AppData\Local\Temp\cck5XY5Q.ltrans1.ltrans.o
 .rodata.oslib_test_007_001
                0x08017e80       0x10 C:\Users\Ridwane\AppData\Local\Temp\cck5XY5Q.ltrans1.ltrans.o
 .rodata.oslib_test_007_002
                0x08017e90       0x10 C:\Users\Ridwane\AppData\Local\Temp\cck5XY5Q.ltrans1.ltrans.o
 .rodata.oslib_test_007_003
                0x08017ea0       0x10 C:\Users\Ridwane\AppData\Local\Temp\cck5XY5Q.ltrans1.ltrans.o
 .rodata.oslib_test_008_001
                0x08017eb0       0x10 C:\Users\Ridwane\AppData\Local\Temp\cck5XY5Q.ltrans1.ltrans.o
 .rodata.oslib_test_008_002
                0x08017ec0       0x10 C:\Users\Ridwane\AppData\Local\Temp\cck5XY5Q.ltrans1.ltrans.o
 .rodata.oslib_test_009_001
                0x08017ed0       0x10 C:\Users\Ridwane\AppData\Local\Temp\cck5XY5Q.ltrans1.ltrans.o
 .rodata.oslib_test_009_002
                0x08017ee0       0x10 C:\Users\Ridwane\AppData\Local\Temp\cck5XY5Q.ltrans1.ltrans.o
 .rodata.oslib_test_009_003
                0x08017ef0       0x10 C:\Users\Ridwane\AppData\Local\Temp\cck5XY5Q.ltrans1.ltrans.o
 .rodata.oslib_test_009_004
                0x08017f00       0x10 C:\Users\Ridwane\AppData\Local\Temp\cck5XY5Q.ltrans1.ltrans.o
 .rodata.oslib_test_009_005
                0x08017f10       0x10 C:\Users\Ridwane\AppData\Local\Temp\cck5XY5Q.ltrans1.ltrans.o
 .rodata.oslib_test_009_006
                0x08017f20       0x10 C:\Users\Ridwane\AppData\Local\Temp\cck5XY5Q.ltrans1.ltrans.o
 .rodata.oslib_test_sequence_001
                0x08017f30        0x8 C:\Users\Ridwane\AppData\Local\Temp\cck5XY5Q.ltrans1.ltrans.o
 .rodata.oslib_test_sequence_001_array
                0x08017f38       0x10 C:\Users\Ridwane\AppData\Local\Temp\cck5XY5Q.ltrans1.ltrans.o
 .rodata.oslib_test_sequence_002
                0x08017f48        0x8 C:\Users\Ridwane\AppData\Local\Temp\cck5XY5Q.ltrans1.ltrans.o
 .rodata.oslib_test_sequence_002_array
                0x08017f50       0x10 C:\Users\Ridwane\AppData\Local\Temp\cck5XY5Q.ltrans1.ltrans.o
 .rodata.oslib_test_sequence_003
                0x08017f60        0x8 C:\Users\Ridwane\AppData\Local\Temp\cck5XY5Q.ltrans1.ltrans.o
 .rodata.oslib_test_sequence_003_array
                0x08017f68        0xc C:\Users\Ridwane\AppData\Local\Temp\cck5XY5Q.ltrans1.ltrans.o
 .rodata.oslib_test_sequence_004
                0x08017f74        0x8 C:\Users\Ridwane\AppData\Local\Temp\cck5XY5Q.ltrans1.ltrans.o
 .rodata.oslib_test_sequence_004_array
                0x08017f7c        0x8 C:\Users\Ridwane\AppData\Local\Temp\cck5XY5Q.ltrans1.ltrans.o
 .rodata.oslib_test_sequence_005
                0x08017f84        0x8 C:\Users\Ridwane\AppData\Local\Temp\cck5XY5Q.ltrans1.ltrans.o
 .rodata.oslib_test_sequence_005_array
                0x08017f8c        0x8 C:\Users\Ridwane\AppData\Local\Temp\cck5XY5Q.ltrans1.ltrans.o
 .rodata.oslib_test_sequence_006
                0x08017f94        0x8 C:\Users\Ridwane\AppData\Local\Temp\cck5XY5Q.ltrans1.ltrans.o
 .rodata.oslib_test_sequence_006_array
                0x08017f9c        0x8 C:\Users\Ridwane\AppData\Local\Temp\cck5XY5Q.ltrans1.ltrans.o
 .rodata.oslib_test_sequence_007
                0x08017fa4        0x8 C:\Users\Ridwane\AppData\Local\Temp\cck5XY5Q.ltrans1.ltrans.o
 .rodata.oslib_test_sequence_007_array
                0x08017fac       0x10 C:\Users\Ridwane\AppData\Local\Temp\cck5XY5Q.ltrans1.ltrans.o
 .rodata.oslib_test_sequence_008
                0x08017fbc        0x8 C:\Users\Ridwane\AppData\Local\Temp\cck5XY5Q.ltrans1.ltrans.o
 .rodata.oslib_test_sequence_008_array
                0x08017fc4        0xc C:\Users\Ridwane\AppData\Local\Temp\cck5XY5Q.ltrans1.ltrans.o
 .rodata.oslib_test_sequence_009
                0x08017fd0        0x8 C:\Users\Ridwane\AppData\Local\Temp\cck5XY5Q.ltrans1.ltrans.o
 .rodata.oslib_test_sequence_009_array
                0x08017fd8       0x1c C:\Users\Ridwane\AppData\Local\Temp\cck5XY5Q.ltrans1.ltrans.o
 .rodata.oslib_test_suite
                0x08017ff4        0x8 C:\Users\Ridwane\AppData\Local\Temp\cck5XY5Q.ltrans1.ltrans.o
 .rodata.oslib_test_suite_array
                0x08017ffc       0x28 C:\Users\Ridwane\AppData\Local\Temp\cck5XY5Q.ltrans1.ltrans.o
 .rodata.rt_test_001_001
                0x08018024       0x10 C:\Users\Ridwane\AppData\Local\Temp\cck5XY5Q.ltrans1.ltrans.o
 .rodata.rt_test_001_002
                0x08018034       0x10 C:\Users\Ridwane\AppData\Local\Temp\cck5XY5Q.ltrans1.ltrans.o
 .rodata.rt_test_001_003
                0x08018044       0x10 C:\Users\Ridwane\AppData\Local\Temp\cck5XY5Q.ltrans1.ltrans.o
 .rodata.rt_test_002_001
                0x08018054       0x10 C:\Users\Ridwane\AppData\Local\Temp\cck5XY5Q.ltrans1.ltrans.o
 .rodata.rt_test_002_002
                0x08018064       0x10 C:\Users\Ridwane\AppData\Local\Temp\cck5XY5Q.ltrans1.ltrans.o
 .rodata.rt_test_002_003
                0x08018074       0x10 C:\Users\Ridwane\AppData\Local\Temp\cck5XY5Q.ltrans1.ltrans.o
 .rodata.rt_test_003_001
                0x08018084       0x10 C:\Users\Ridwane\AppData\Local\Temp\cck5XY5Q.ltrans1.ltrans.o
 .rodata.rt_test_003_002
                0x08018094       0x10 C:\Users\Ridwane\AppData\Local\Temp\cck5XY5Q.ltrans1.ltrans.o
 .rodata.rt_test_004_001
                0x080180a4       0x10 C:\Users\Ridwane\AppData\Local\Temp\cck5XY5Q.ltrans1.ltrans.o
 .rodata.rt_test_005_001
                0x080180b4       0x10 C:\Users\Ridwane\AppData\Local\Temp\cck5XY5Q.ltrans1.ltrans.o
 .rodata.rt_test_005_002
                0x080180c4       0x10 C:\Users\Ridwane\AppData\Local\Temp\cck5XY5Q.ltrans1.ltrans.o
 .rodata.rt_test_005_003
                0x080180d4       0x10 C:\Users\Ridwane\AppData\Local\Temp\cck5XY5Q.ltrans1.ltrans.o
 .rodata.rt_test_005_004
                0x080180e4       0x10 C:\Users\Ridwane\AppData\Local\Temp\cck5XY5Q.ltrans1.ltrans.o
 .rodata.rt_test_006_001
                0x080180f4       0x10 C:\Users\Ridwane\AppData\Local\Temp\cck5XY5Q.ltrans1.ltrans.o
 .rodata.rt_test_007_001
                0x08018104       0x10 C:\Users\Ridwane\AppData\Local\Temp\cck5XY5Q.ltrans1.ltrans.o
 .rodata.rt_test_007_002
                0x08018114       0x10 C:\Users\Ridwane\AppData\Local\Temp\cck5XY5Q.ltrans1.ltrans.o
 .rodata.rt_test_007_003
                0x08018124       0x10 C:\Users\Ridwane\AppData\Local\Temp\cck5XY5Q.ltrans1.ltrans.o
 .rodata.rt_test_007_004
                0x08018134       0x10 C:\Users\Ridwane\AppData\Local\Temp\cck5XY5Q.ltrans1.ltrans.o
 .rodata.rt_test_007_005
                0x08018144       0x10 C:\Users\Ridwane\AppData\Local\Temp\cck5XY5Q.ltrans1.ltrans.o
 .rodata.rt_test_007_006
                0x08018154       0x10 C:\Users\Ridwane\AppData\Local\Temp\cck5XY5Q.ltrans1.ltrans.o
 .rodata.rt_test_008_001
                0x08018164       0x10 C:\Users\Ridwane\AppData\Local\Temp\cck5XY5Q.ltrans1.ltrans.o
 .rodata.rt_test_008_004
                0x08018174       0x10 C:\Users\Ridwane\AppData\Local\Temp\cck5XY5Q.ltrans1.ltrans.o
 .rodata.rt_test_008_005
                0x08018184       0x10 C:\Users\Ridwane\AppData\Local\Temp\cck5XY5Q.ltrans1.ltrans.o
 .rodata.rt_test_008_007
                0x08018194       0x10 C:\Users\Ridwane\AppData\Local\Temp\cck5XY5Q.ltrans1.ltrans.o
 .rodata.rt_test_008_008
                0x080181a4       0x10 C:\Users\Ridwane\AppData\Local\Temp\cck5XY5Q.ltrans1.ltrans.o
 .rodata.rt_test_008_009
                0x080181b4       0x10 C:\Users\Ridwane\AppData\Local\Temp\cck5XY5Q.ltrans1.ltrans.o
 .rodata.rt_test_009_001
                0x080181c4       0x10 C:\Users\Ridwane\AppData\Local\Temp\cck5XY5Q.ltrans1.ltrans.o
 .rodata.rt_test_010_001
                0x080181d4       0x10 C:\Users\Ridwane\AppData\Local\Temp\cck5XY5Q.ltrans1.ltrans.o
 .rodata.rt_test_010_002
                0x080181e4       0x10 C:\Users\Ridwane\AppData\Local\Temp\cck5XY5Q.ltrans1.ltrans.o
 .rodata.rt_test_010_003
                0x080181f4       0x10 C:\Users\Ridwane\AppData\Local\Temp\cck5XY5Q.ltrans1.ltrans.o
 .rodata.rt_test_010_004
                0x08018204       0x10 C:\Users\Ridwane\AppData\Local\Temp\cck5XY5Q.ltrans1.ltrans.o
 .rodata.rt_test_010_005
                0x08018214       0x10 C:\Users\Ridwane\AppData\Local\Temp\cck5XY5Q.ltrans1.ltrans.o
 .rodata.rt_test_010_006
                0x08018224       0x10 C:\Users\Ridwane\AppData\Local\Temp\cck5XY5Q.ltrans1.ltrans.o
 .rodata.rt_test_010_007
                0x08018234       0x10 C:\Users\Ridwane\AppData\Local\Temp\cck5XY5Q.ltrans1.ltrans.o
 .rodata.rt_test_011_001
                0x08018244       0x10 C:\Users\Ridwane\AppData\Local\Temp\cck5XY5Q.ltrans1.ltrans.o
 .rodata.rt_test_011_002
                0x08018254       0x10 C:\Users\Ridwane\AppData\Local\Temp\cck5XY5Q.ltrans1.ltrans.o
 .rodata.rt_test_012_001
                0x08018264       0x10 C:\Users\Ridwane\AppData\Local\Temp\cck5XY5Q.ltrans1.ltrans.o
 .rodata.rt_test_012_002
                0x08018274       0x10 C:\Users\Ridwane\AppData\Local\Temp\cck5XY5Q.ltrans1.ltrans.o
 .rodata.rt_test_012_003
                0x08018284       0x10 C:\Users\Ridwane\AppData\Local\Temp\cck5XY5Q.ltrans1.ltrans.o
 .rodata.rt_test_012_004
                0x08018294       0x10 C:\Users\Ridwane\AppData\Local\Temp\cck5XY5Q.ltrans1.ltrans.o
 .rodata.rt_test_012_005
                0x080182a4       0x10 C:\Users\Ridwane\AppData\Local\Temp\cck5XY5Q.ltrans1.ltrans.o
 .rodata.rt_test_012_006
                0x080182b4       0x10 C:\Users\Ridwane\AppData\Local\Temp\cck5XY5Q.ltrans1.ltrans.o
 .rodata.rt_test_012_007
                0x080182c4       0x10 C:\Users\Ridwane\AppData\Local\Temp\cck5XY5Q.ltrans1.ltrans.o
 .rodata.rt_test_012_008
                0x080182d4       0x10 C:\Users\Ridwane\AppData\Local\Temp\cck5XY5Q.ltrans1.ltrans.o
 .rodata.rt_test_012_009
                0x080182e4       0x10 C:\Users\Ridwane\AppData\Local\Temp\cck5XY5Q.ltrans1.ltrans.o
 .rodata.rt_test_012_010
                0x080182f4       0x10 C:\Users\Ridwane\AppData\Local\Temp\cck5XY5Q.ltrans1.ltrans.o
 .rodata.rt_test_012_011
                0x08018304       0x10 C:\Users\Ridwane\AppData\Local\Temp\cck5XY5Q.ltrans1.ltrans.o
 .rodata.rt_test_012_012
                0x08018314       0x10 C:\Users\Ridwane\AppData\Local\Temp\cck5XY5Q.ltrans1.ltrans.o
 .rodata.rt_test_sequence_001
                0x08018324        0x8 C:\Users\Ridwane\AppData\Local\Temp\cck5XY5Q.ltrans1.ltrans.o
 .rodata.rt_test_sequence_001_array
                0x0801832c       0x10 C:\Users\Ridwane\AppData\Local\Temp\cck5XY5Q.ltrans1.ltrans.o
 .rodata.rt_test_sequence_002
                0x0801833c        0x8 C:\Users\Ridwane\AppData\Local\Temp\cck5XY5Q.ltrans1.ltrans.o
 .rodata.rt_test_sequence_002_array
                0x08018344       0x10 C:\Users\Ridwane\AppData\Local\Temp\cck5XY5Q.ltrans1.ltrans.o
 .rodata.rt_test_sequence_003
                0x08018354        0x8 C:\Users\Ridwane\AppData\Local\Temp\cck5XY5Q.ltrans1.ltrans.o
 .rodata.rt_test_sequence_003_array
                0x0801835c        0xc C:\Users\Ridwane\AppData\Local\Temp\cck5XY5Q.ltrans1.ltrans.o
 .rodata.rt_test_sequence_004
                0x08018368        0x8 C:\Users\Ridwane\AppData\Local\Temp\cck5XY5Q.ltrans1.ltrans.o
 .rodata.rt_test_sequence_004_array
                0x08018370        0x8 C:\Users\Ridwane\AppData\Local\Temp\cck5XY5Q.ltrans1.ltrans.o
 .rodata.rt_test_sequence_005
                0x08018378        0x8 C:\Users\Ridwane\AppData\Local\Temp\cck5XY5Q.ltrans1.ltrans.o
 .rodata.rt_test_sequence_005_array
                0x08018380       0x14 C:\Users\Ridwane\AppData\Local\Temp\cck5XY5Q.ltrans1.ltrans.o
 .rodata.rt_test_sequence_006
                0x08018394        0x8 C:\Users\Ridwane\AppData\Local\Temp\cck5XY5Q.ltrans1.ltrans.o
 .rodata.rt_test_sequence_006_array
                0x0801839c        0x8 C:\Users\Ridwane\AppData\Local\Temp\cck5XY5Q.ltrans1.ltrans.o
 .rodata.rt_test_sequence_007
                0x080183a4        0x8 C:\Users\Ridwane\AppData\Local\Temp\cck5XY5Q.ltrans1.ltrans.o
 .rodata.rt_test_sequence_007_array
                0x080183ac       0x1c C:\Users\Ridwane\AppData\Local\Temp\cck5XY5Q.ltrans1.ltrans.o
 .rodata.rt_test_sequence_008
                0x080183c8        0x8 C:\Users\Ridwane\AppData\Local\Temp\cck5XY5Q.ltrans1.ltrans.o
 .rodata.rt_test_sequence_008_array
                0x080183d0       0x1c C:\Users\Ridwane\AppData\Local\Temp\cck5XY5Q.ltrans1.ltrans.o
 .rodata.rt_test_sequence_009
                0x080183ec        0x8 C:\Users\Ridwane\AppData\Local\Temp\cck5XY5Q.ltrans1.ltrans.o
 .rodata.rt_test_sequence_009_array
                0x080183f4        0x8 C:\Users\Ridwane\AppData\Local\Temp\cck5XY5Q.ltrans1.ltrans.o
 .rodata.rt_test_sequence_010
                0x080183fc        0x8 C:\Users\Ridwane\AppData\Local\Temp\cck5XY5Q.ltrans1.ltrans.o
 .rodata.rt_test_sequence_010_array
                0x08018404       0x20 C:\Users\Ridwane\AppData\Local\Temp\cck5XY5Q.ltrans1.ltrans.o
 .rodata.rt_test_sequence_011
                0x08018424        0x8 C:\Users\Ridwane\AppData\Local\Temp\cck5XY5Q.ltrans1.ltrans.o
 .rodata.rt_test_sequence_011_array
                0x0801842c        0xc C:\Users\Ridwane\AppData\Local\Temp\cck5XY5Q.ltrans1.ltrans.o
 .rodata.rt_test_sequence_012
                0x08018438        0x8 C:\Users\Ridwane\AppData\Local\Temp\cck5XY5Q.ltrans1.ltrans.o
 .rodata.rt_test_sequence_012_array
                0x08018440       0x34 C:\Users\Ridwane\AppData\Local\Temp\cck5XY5Q.ltrans1.ltrans.o
 .rodata.rt_test_suite
                0x08018474        0x8 C:\Users\Ridwane\AppData\Local\Temp\cck5XY5Q.ltrans1.ltrans.o
 .rodata.rt_test_suite_array
                0x0801847c       0x34 C:\Users\Ridwane\AppData\Local\Temp\cck5XY5Q.ltrans1.ltrans.o
 .rodata.vmt    0x080184b0       0x28 C:\Users\Ridwane\AppData\Local\Temp\cck5XY5Q.ltrans1.ltrans.o
 .rodata.srand.str1.1
                0x080184d8       0x70 c:/chibistudio/tools/gnu tools arm embedded/11.3 2022.08/bin/../lib/gcc/arm-none-eabi/11.3.1/thumb/v7e-m/nofp\libg_nano.a(libc_a-rand.o)
 .rodata.__assert_func.str1.1
                0x08018548       0x3c c:/chibistudio/tools/gnu tools arm embedded/11.3 2022.08/bin/../lib/gcc/arm-none-eabi/11.3.1/thumb/v7e-m/nofp\libg_nano.a(libc_a-assert.o)
                                 0x3d (size before relaxing)
 .rodata._vfprintf_r.str1.1
                0x08018584       0x11 c:/chibistudio/tools/gnu tools arm embedded/11.3 2022.08/bin/../lib/gcc/arm-none-eabi/11.3.1/thumb/v7e-m/nofp\libg_nano.a(libc_a-nano-vfprintf.o)
 .rodata._printf_i.str1.1
                0x08018595       0x22 c:/chibistudio/tools/gnu tools arm embedded/11.3 2022.08/bin/../lib/gcc/arm-none-eabi/11.3.1/thumb/v7e-m/nofp\libg_nano.a(libc_a-nano-vfprintf_i.o)
                0x080185b8                . = ALIGN (0x4)
 *fill*         0x080185b7        0x1 
                0x080185b8                __rodata_end__ = .

.rel.dyn        0x080185b8        0x0
 .rel.iplt      0x080185b8        0x0 ./build/obj/crt0_v7m.o

.ARM.extab
 *(.ARM.extab* .gnu.linkonce.armextab.*)

.ARM.exidx      0x080185b8        0x0
                0x080185b8                __exidx_base__ = .
                0x080185b8                __exidx_start = .
 *(.ARM.exidx* .gnu.linkonce.armexidx.*)
                0x080185b8                __exidx_end__ = .
                0x080185b8                __exidx_end = .

.eh_frame_hdr
 *(.eh_frame_hdr)

.eh_frame
 *(.eh_frame)

.data           0x20000800      0x138 load address 0x080185b8
                [!provide]                PROVIDE (_textdata = LOADADDR (.data))
                [!provide]                PROVIDE (_data = .)
                0x080185b8                __textdata_base__ = LOADADDR (.data)
                0x20000800                __data_base__ = .
 *(.data)
 *(.data.*)
 .data.c1       0x20000800        0x8 C:\Users\Ridwane\AppData\Local\Temp\cck5XY5Q.ltrans0.ltrans.o
 .data.es1      0x20000808        0x4 C:\Users\Ridwane\AppData\Local\Temp\cck5XY5Q.ltrans0.ltrans.o
 .data.es2      0x2000080c        0x4 C:\Users\Ridwane\AppData\Local\Temp\cck5XY5Q.ltrans0.ltrans.o
 .data.gmp1     0x20000810       0x1c C:\Users\Ridwane\AppData\Local\Temp\cck5XY5Q.ltrans0.ltrans.o
 .data.m1       0x2000082c       0x10 C:\Users\Ridwane\AppData\Local\Temp\cck5XY5Q.ltrans0.ltrans.o
 .data.m2       0x2000083c       0x10 C:\Users\Ridwane\AppData\Local\Temp\cck5XY5Q.ltrans0.ltrans.o
 .data.mb1.lto_priv.0
                0x2000084c       0x28 C:\Users\Ridwane\AppData\Local\Temp\cck5XY5Q.ltrans0.ltrans.o
                0x2000084c                mb1.lto_priv.0
 .data.mp1.lto_priv.1
                0x20000874       0x10 C:\Users\Ridwane\AppData\Local\Temp\cck5XY5Q.ltrans0.ltrans.o
 .data.pipe1.lto_priv.0
                0x20000884       0x50 C:\Users\Ridwane\AppData\Local\Temp\cck5XY5Q.ltrans0.ltrans.o
                0x20000884                pipe1.lto_priv.0
 .data.myobj.0  0x200008d4        0x4 C:\Users\Ridwane\AppData\Local\Temp\cck5XY5Q.ltrans1.ltrans.o
 .data.myobj.1  0x200008d8        0x4 C:\Users\Ridwane\AppData\Local\Temp\cck5XY5Q.ltrans1.ltrans.o
 .data._impure_data
                0x200008dc       0x4c c:/chibistudio/tools/gnu tools arm embedded/11.3 2022.08/bin/../lib/gcc/arm-none-eabi/11.3.1/thumb/v7e-m/nofp\libg_nano.a(libc_a-impure.o)
                0x200008dc                _impure_data
 .data._impure_ptr
                0x20000928        0x4 c:/chibistudio/tools/gnu tools arm embedded/11.3 2022.08/bin/../lib/gcc/arm-none-eabi/11.3.1/thumb/v7e-m/nofp\libg_nano.a(libc_a-impure.o)
                0x20000928                _impure_ptr
 .data.__sglue  0x2000092c        0xc c:/chibistudio/tools/gnu tools arm embedded/11.3 2022.08/bin/../lib/gcc/arm-none-eabi/11.3.1/thumb/v7e-m/nofp\libg_nano.a(libc_a-findfp.o)
                0x2000092c                __sglue
 *(.ramtext)
                0x20000938                . = ALIGN (0x4)
                [!provide]                PROVIDE (_edata = .)
                0x20000938                __data_end__ = .

.igot.plt       0x20000938        0x0 load address 0x080186f0
 .igot.plt      0x20000938        0x0 ./build/obj/crt0_v7m.o

.bss            0x20000938    0x1b30c load address 0x080186f0
                0x20000938                __bss_base__ = .
 *(.bss)
 *(.bss.*)
 .bss.SD1       0x20000938       0x80 C:\Users\Ridwane\AppData\Local\Temp\cck5XY5Q.ltrans0.ltrans.o
                0x20000938                SD1
 .bss.SD2       0x200009b8       0x80 C:\Users\Ridwane\AppData\Local\Temp\cck5XY5Q.ltrans0.ltrans.o
                0x200009b8                SD2
 .bss.buffer    0x20000a38       0x10 C:\Users\Ridwane\AppData\Local\Temp\cck5XY5Q.ltrans0.ltrans.o
 .bss.cache1.lto_priv.0
                0x20000a48       0x44 C:\Users\Ridwane\AppData\Local\Temp\cck5XY5Q.ltrans0.ltrans.o
                0x20000a48                cache1.lto_priv.0
 *fill*         0x20000a8c        0x4 
 .bss.ch0       0x20000a90       0x88 C:\Users\Ridwane\AppData\Local\Temp\cck5XY5Q.ltrans0.ltrans.o
                0x20000a90                ch0
 .bss.ch_factory
                0x20000b18       0x48 C:\Users\Ridwane\AppData\Local\Temp\cck5XY5Q.ltrans0.ltrans.o
                0x20000b18                ch_factory
 .bss.ch_memcore
                0x20000b60        0x8 C:\Users\Ridwane\AppData\Local\Temp\cck5XY5Q.ltrans0.ltrans.o
                0x20000b60                ch_memcore
 .bss.ch_system
                0x20000b68        0xc C:\Users\Ridwane\AppData\Local\Temp\cck5XY5Q.ltrans0.ltrans.o
                0x20000b68                ch_system
 .bss.chtest    0x20000b74       0x28 C:\Users\Ridwane\AppData\Local\Temp\cck5XY5Q.ltrans0.ltrans.o
                0x20000b74                chtest
 .bss.default_heap.lto_priv.0
                0x20000b9c       0x1c C:\Users\Ridwane\AppData\Local\Temp\cck5XY5Q.ltrans0.ltrans.o
                0x20000b9c                default_heap.lto_priv.0
 .bss.exit_flag
                0x20000bb8        0x1 C:\Users\Ridwane\AppData\Local\Temp\cck5XY5Q.ltrans0.ltrans.o
 *fill*         0x20000bb9        0x3 
 .bss.hash_headers
                0x20000bbc       0x40 C:\Users\Ridwane\AppData\Local\Temp\cck5XY5Q.ltrans0.ltrans.o
 .bss.heap1.lto_priv.0
                0x20000bfc       0x1c C:\Users\Ridwane\AppData\Local\Temp\cck5XY5Q.ltrans0.ltrans.o
                0x20000bfc                heap1.lto_priv.0
 .bss.jobs      0x20000c18       0x20 C:\Users\Ridwane\AppData\Local\Temp\cck5XY5Q.ltrans0.ltrans.o
 .bss.jq        0x20000c38       0x44 C:\Users\Ridwane\AppData\Local\Temp\cck5XY5Q.ltrans0.ltrans.o
 .bss.mb_buffer
                0x20000c7c       0x10 C:\Users\Ridwane\AppData\Local\Temp\cck5XY5Q.ltrans0.ltrans.o
 .bss.mp1.lto_priv.0
                0x20000c8c       0x10 C:\Users\Ridwane\AppData\Local\Temp\cck5XY5Q.ltrans0.ltrans.o
                0x20000c8c                mp1.lto_priv.0
 .bss.msg_queue
                0x20000c9c       0x10 C:\Users\Ridwane\AppData\Local\Temp\cck5XY5Q.ltrans0.ltrans.o
 .bss.mtx1      0x20000cac       0x10 C:\Users\Ridwane\AppData\Local\Temp\cck5XY5Q.ltrans0.ltrans.o
 .bss.objects.lto_priv.0
                0x20000cbc       0xf0 C:\Users\Ridwane\AppData\Local\Temp\cck5XY5Q.ltrans0.ltrans.o
 .bss.objects.lto_priv.1
                0x20000dac       0x10 C:\Users\Ridwane\AppData\Local\Temp\cck5XY5Q.ltrans0.ltrans.o
 .bss.sem1.lto_priv.0
                0x20000dbc        0xc C:\Users\Ridwane\AppData\Local\Temp\cck5XY5Q.ltrans0.ltrans.o
                0x20000dbc                sem1.lto_priv.0
 .bss.sem1.lto_priv.1
                0x20000dc8        0xc C:\Users\Ridwane\AppData\Local\Temp\cck5XY5Q.ltrans0.ltrans.o
 *fill*         0x20000dd4        0x4 
 .bss.test_buffer
                0x20000dd8      0x870 C:\Users\Ridwane\AppData\Local\Temp\cck5XY5Q.ltrans0.ltrans.o
 .bss.test_heap.lto_priv.0
                0x20001648       0x1c C:\Users\Ridwane\AppData\Local\Temp\cck5XY5Q.ltrans0.ltrans.o
                0x20001648                test_heap.lto_priv.0
 .bss.test_heap_buffer
                0x20001664       0x80 C:\Users\Ridwane\AppData\Local\Temp\cck5XY5Q.ltrans0.ltrans.o
 .bss.threads   0x200016e4       0x14 C:\Users\Ridwane\AppData\Local\Temp\cck5XY5Q.ltrans0.ltrans.o
 .bss.tr1       0x200016f8        0x4 C:\Users\Ridwane\AppData\Local\Temp\cck5XY5Q.ltrans0.ltrans.o
 .bss.vt1.1     0x200016fc       0x18 C:\Users\Ridwane\AppData\Local\Temp\cck5XY5Q.ltrans0.ltrans.o
 .bss.vt2.0     0x20001714       0x18 C:\Users\Ridwane\AppData\Local\Temp\cck5XY5Q.ltrans0.ltrans.o
 *fill*         0x2000172c        0x4 
 .bss.wa1Thread1
                0x20001730      0x1f0 C:\Users\Ridwane\AppData\Local\Temp\cck5XY5Q.ltrans0.ltrans.o
 .bss.wa2Thread1
                0x20001920      0x1f0 C:\Users\Ridwane\AppData\Local\Temp\cck5XY5Q.ltrans0.ltrans.o
 .bss.waThread1
                0x20001b10      0x1f0 C:\Users\Ridwane\AppData\Local\Temp\cck5XY5Q.ltrans0.ltrans.o
 .bss.DRBG_ctx  0x20001d00       0x34 C:\Users\Ridwane\AppData\Local\Temp\cck5XY5Q.ltrans1.ltrans.o
 .bss.F.12      0x20001d34      0x200 C:\Users\Ridwane\AppData\Local\Temp\cck5XY5Q.ltrans1.ltrans.o
 .bss.G.11      0x20001f34      0x200 C:\Users\Ridwane\AppData\Local\Temp\cck5XY5Q.ltrans1.ltrans.o
 *fill*         0x20002134        0x4 
 .bss.ch_c0_idle_thread_wa
                0x20002138      0x130 C:\Users\Ridwane\AppData\Local\Temp\cck5XY5Q.ltrans1.ltrans.o
 .bss.esig.5    0x20002268      0x288 C:\Users\Ridwane\AppData\Local\Temp\cck5XY5Q.ltrans1.ltrans.o
 .bss.f.14      0x200024f0      0x200 C:\Users\Ridwane\AppData\Local\Temp\cck5XY5Q.ltrans1.ltrans.o
 .bss.g.13      0x200026f0      0x200 C:\Users\Ridwane\AppData\Local\Temp\cck5XY5Q.ltrans1.ltrans.o
 .bss.nonce.9   0x200028f0       0x28 C:\Users\Ridwane\AppData\Local\Temp\cck5XY5Q.ltrans1.ltrans.o
 .bss.r.7       0x20002918      0x400 C:\Users\Ridwane\AppData\Local\Temp\cck5XY5Q.ltrans1.ltrans.o
 .bss.sc.8      0x20002d18       0xd0 C:\Users\Ridwane\AppData\Local\Temp\cck5XY5Q.ltrans1.ltrans.o
 .bss.seed.6    0x20002de8       0x30 C:\Users\Ridwane\AppData\Local\Temp\cck5XY5Q.ltrans1.ltrans.o
 .bss.tmp.10    0x20002e18     0x9000 C:\Users\Ridwane\AppData\Local\Temp\cck5XY5Q.ltrans1.ltrans.o
 .bss.waThread1
                0x2000be18     0xfce0 C:\Users\Ridwane\AppData\Local\Temp\cck5XY5Q.ltrans1.ltrans.o
 .bss.__malloc_free_list
                0x2001baf8        0x4 c:/chibistudio/tools/gnu tools arm embedded/11.3 2022.08/bin/../lib/gcc/arm-none-eabi/11.3.1/thumb/v7e-m/nofp\libg_nano.a(libc_a-mallocr.o)
                0x2001baf8                __malloc_free_list
 .bss.__malloc_sbrk_start
                0x2001bafc        0x4 c:/chibistudio/tools/gnu tools arm embedded/11.3 2022.08/bin/../lib/gcc/arm-none-eabi/11.3.1/thumb/v7e-m/nofp\libg_nano.a(libc_a-mallocr.o)
                0x2001bafc                __malloc_sbrk_start
 .bss.__lock___malloc_recursive_mutex
                0x2001bb00        0x1 c:/chibistudio/tools/gnu tools arm embedded/11.3 2022.08/bin/../lib/gcc/arm-none-eabi/11.3.1/thumb/v7e-m/nofp\libg_nano.a(libc_a-lock.o)
                0x2001bb00                __lock___malloc_recursive_mutex
 .bss.__lock___sfp_recursive_mutex
                0x2001bb01        0x1 c:/chibistudio/tools/gnu tools arm embedded/11.3 2022.08/bin/../lib/gcc/arm-none-eabi/11.3.1/thumb/v7e-m/nofp\libg_nano.a(libc_a-lock.o)
                0x2001bb01                __lock___sfp_recursive_mutex
 *fill*         0x2001bb02        0x2 
 .bss.__sf      0x2001bb04      0x138 c:/chibistudio/tools/gnu tools arm embedded/11.3 2022.08/bin/../lib/gcc/arm-none-eabi/11.3.1/thumb/v7e-m/nofp\libg_nano.a(libc_a-findfp.o)
                0x2001bb04                __sf
 .bss.__stdio_exit_handler
                0x2001bc3c        0x4 c:/chibistudio/tools/gnu tools arm embedded/11.3 2022.08/bin/../lib/gcc/arm-none-eabi/11.3.1/thumb/v7e-m/nofp\libg_nano.a(libc_a-findfp.o)
                0x2001bc3c                __stdio_exit_handler
 .bss.errno     0x2001bc40        0x4 c:/chibistudio/tools/gnu tools arm embedded/11.3 2022.08/bin/../lib/gcc/arm-none-eabi/11.3.1/thumb/v7e-m/nofp\libg_nano.a(libc_a-reent.o)
                0x2001bc40                errno
 *(COMMON)
                0x2001bc44                . = ALIGN (0x4)
                0x2001bc44                __bss_end__ = .
                [!provide]                PROVIDE (end = .)
                0x20000000                __ram0_base__ = ORIGIN (ram0)
                0x00020000                __ram0_size__ = LENGTH (ram0)
                0x20020000                __ram0_end__ = (__ram0_base__ + __ram0_size__)
                0x20000000                __ram1_base__ = ORIGIN (ram1)
                0x0001c000                __ram1_size__ = LENGTH (ram1)
                0x2001c000                __ram1_end__ = (__ram1_base__ + __ram1_size__)
                0x2001c000                __ram2_base__ = ORIGIN (ram2)
                0x00004000                __ram2_size__ = LENGTH (ram2)
                0x20020000                __ram2_end__ = (__ram2_base__ + __ram2_size__)
                0x00000000                __ram3_base__ = ORIGIN (ram3)
                0x00000000                __ram3_size__ = LENGTH (ram3)
                0x00000000                __ram3_end__ = (__ram3_base__ + __ram3_size__)
                0x10000000                __ram4_base__ = ORIGIN (ram4)
                0x00010000                __ram4_size__ = LENGTH (ram4)
                0x10010000                __ram4_end__ = (__ram4_base__ + __ram4_size__)
                0x40024000                __ram5_base__ = ORIGIN (ram5)
                0x00001000                __ram5_size__ = LENGTH (ram5)
                0x40025000                __ram5_end__ = (__ram5_base__ + __ram5_size__)
                0x00000000                __ram6_base__ = ORIGIN (ram6)
                0x00000000                __ram6_size__ = LENGTH (ram6)
                0x00000000                __ram6_end__ = (__ram6_base__ + __ram6_size__)
                0x00000000                __ram7_base__ = ORIGIN (ram7)
                0x00000000                __ram7_size__ = LENGTH (ram7)
                0x00000000                __ram7_end__ = (__ram7_base__ + __ram7_size__)
                0x08000000                __flash0_base__ = ORIGIN (flash0)
                0x00100000                __flash0_size__ = LENGTH (flash0)
                0x08100000                __flash0_end__ = (__flash0_base__ + __flash0_size__)
                0x00000000                __flash1_base__ = ORIGIN (flash1)
                0x00000000                __flash1_size__ = LENGTH (flash1)
                0x00000000                __flash1_end__ = (__flash1_base__ + __flash1_size__)
                0x00000000                __flash2_base__ = ORIGIN (flash2)
                0x00000000                __flash2_size__ = LENGTH (flash2)
                0x00000000                __flash2_end__ = (__flash2_base__ + __flash2_size__)
                0x00000000                __flash3_base__ = ORIGIN (flash3)
                0x00000000                __flash3_size__ = LENGTH (flash3)
                0x00000000                __flash3_end__ = (__flash3_base__ + __flash3_size__)
                0x00000000                __flash4_base__ = ORIGIN (flash4)
                0x00000000                __flash4_size__ = LENGTH (flash4)
                0x00000000                __flash4_end__ = (__flash4_base__ + __flash4_size__)
                0x00000000                __flash5_base__ = ORIGIN (flash5)
                0x00000000                __flash5_size__ = LENGTH (flash5)
                0x00000000                __flash5_end__ = (__flash5_base__ + __flash5_size__)
                0x00000000                __flash6_base__ = ORIGIN (flash6)
                0x00000000                __flash6_size__ = LENGTH (flash6)
                0x00000000                __flash6_end__ = (__flash6_base__ + __flash6_size__)
                0x00000000                __flash7_base__ = ORIGIN (flash7)
                0x00000000                __flash7_size__ = LENGTH (flash7)
                0x00000000                __flash7_end__ = (__flash7_base__ + __flash7_size__)

.ram0_init      0x2001bc44        0x0 load address 0x080186f0
                0x080186f0                __ram0_init_text__ = LOADADDR (.ram0_init)
                0x2001bc44                __ram0_init__ = .
 *(.ram0_init)
 *(.ram0_init.*)
                0x2001bc44                . = ALIGN (0x4)

.ram0           0x2001bc44        0x0 load address 0x080186f0
                0x2001bc44                __ram0_clear__ = .
 *(.ram0_clear)
 *(.ram0_clear.*)
                0x2001bc44                . = ALIGN (0x4)
                0x2001bc44                __ram0_noinit__ = .
 *(.ram0)
 *(.ram0.*)
                0x2001bc44                . = ALIGN (0x4)
                0x2001bc44                __ram0_free__ = .

.ram1_init      0x20000000        0x0 load address 0x080186f0
                0x080186f0                __ram1_init_text__ = LOADADDR (.ram1_init)
                0x20000000                __ram1_init__ = .
 *(.ram1_init)
 *(.ram1_init.*)
                0x20000000                . = ALIGN (0x4)

.ram1           0x20000000        0x0 load address 0x080186f0
                0x20000000                __ram1_clear__ = .
 *(.ram1_clear)
 *(.ram1_clear.*)
                0x20000000                . = ALIGN (0x4)
                0x20000000                __ram1_noinit__ = .
 *(.ram1)
 *(.ram1.*)
                0x20000000                . = ALIGN (0x4)
                0x20000000                __ram1_free__ = .

.ram2_init      0x2001c000        0x0 load address 0x080186f0
                0x080186f0                __ram2_init_text__ = LOADADDR (.ram2_init)
                0x2001c000                __ram2_init__ = .
 *(.ram2_init)
 *(.ram2_init.*)
                0x2001c000                . = ALIGN (0x4)

.ram2           0x2001c000        0x0 load address 0x080186f0
                0x2001c000                __ram2_clear__ = .
 *(.ram2_clear)
 *(.ram2_clear.*)
                0x2001c000                . = ALIGN (0x4)
                0x2001c000                __ram2_noinit__ = .
 *(.ram2)
 *(.ram2.*)
                0x2001c000                . = ALIGN (0x4)
                0x2001c000                __ram2_free__ = .

.ram3_init      0x00000000        0x0 load address 0x080186f0
                0x080186f0                __ram3_init_text__ = LOADADDR (.ram3_init)
                0x00000000                __ram3_init__ = .
 *(.ram3_init)
 *(.ram3_init.*)
                0x00000000                . = ALIGN (0x4)

.ram3           0x00000000        0x0 load address 0x080186f0
                0x00000000                __ram3_clear__ = .
 *(.ram3_clear)
 *(.ram3_clear.*)
                0x00000000                . = ALIGN (0x4)
                0x00000000                __ram3_noinit__ = .
 *(.ram3)
 *(.ram3.*)
                0x00000000                . = ALIGN (0x4)
                0x00000000                __ram3_free__ = .

.ram4_init      0x10000000        0x0 load address 0x080186f0
                0x080186f0                __ram4_init_text__ = LOADADDR (.ram4_init)
                0x10000000                __ram4_init__ = .
 *(.ram4_init)
 *(.ram4_init.*)
                0x10000000                . = ALIGN (0x4)

.ram4           0x10000000        0x0 load address 0x080186f0
                0x10000000                __ram4_clear__ = .
 *(.ram4_clear)
 *(.ram4_clear.*)
                0x10000000                . = ALIGN (0x4)
                0x10000000                __ram4_noinit__ = .
 *(.ram4)
 *(.ram4.*)
                0x10000000                . = ALIGN (0x4)
                0x10000000                __ram4_free__ = .

.ram5_init      0x40024000        0x0 load address 0x080186f0
                0x080186f0                __ram5_init_text__ = LOADADDR (.ram5_init)
                0x40024000                __ram5_init__ = .
 *(.ram5_init)
 *(.ram5_init.*)
                0x40024000                . = ALIGN (0x4)

.ram5           0x40024000        0x0 load address 0x080186f0
                0x40024000                __ram5_clear__ = .
 *(.ram5_clear)
 *(.ram5_clear.*)
                0x40024000                . = ALIGN (0x4)
                0x40024000                __ram5_noinit__ = .
 *(.ram5)
 *(.ram5.*)
                0x40024000                . = ALIGN (0x4)
                0x40024000                __ram5_free__ = .

.ram6_init      0x00000000        0x0 load address 0x080186f0
                0x080186f0                __ram6_init_text__ = LOADADDR (.ram6_init)
                0x00000000                __ram6_init__ = .
 *(.ram6_init)
 *(.ram6_init.*)
                0x00000000                . = ALIGN (0x4)

.ram6           0x00000000        0x0 load address 0x080186f0
                0x00000000                __ram6_clear__ = .
 *(.ram6_clear)
 *(.ram6_clear.*)
                0x00000000                . = ALIGN (0x4)
                0x00000000                __ram6_noinit__ = .
 *(.ram6)
 *(.ram6.*)
                0x00000000                . = ALIGN (0x4)
                0x00000000                __ram6_free__ = .

.ram7_init      0x00000000        0x0 load address 0x080186f0
                0x080186f0                __ram7_init_text__ = LOADADDR (.ram7_init)
                0x00000000                __ram7_init__ = .
 *(.ram7_init)
 *(.ram7_init.*)
                0x00000000                . = ALIGN (0x4)

.ram7           0x00000000        0x0 load address 0x080186f0
                0x00000000                __ram7_clear__ = .
 *(.ram7_clear)
 *(.ram7_clear.*)
                0x00000000                . = ALIGN (0x4)
                0x00000000                __ram7_noinit__ = .
 *(.ram7)
 *(.ram7.*)
                0x00000000                . = ALIGN (0x4)
                0x00000000                __ram7_free__ = .

.flash0         0x080186f0        0x0
                0x080186f0                __flash0_init__ = .
 *(.flash0_init)
 *(.flash0_init.*)
                0x080186f0                __flash0_free__ = .

.flash1         0x00000000        0x0
                0x00000000                __flash1_init__ = .
 *(.flash1_init)
 *(.flash1_init.*)
                0x00000000                __flash1_free__ = .

.flash2         0x00000000        0x0
                0x00000000                __flash2_init__ = .
 *(.flash2_init)
 *(.flash2_init.*)
                0x00000000                __flash2_free__ = .

.flash3         0x00000000        0x0
                0x00000000                __flash3_init__ = .
 *(.flash3_init)
 *(.flash3_init.*)
                0x00000000                __flash3_free__ = .

.flash4         0x00000000        0x0
                0x00000000                __flash4_init__ = .
 *(.flash4_init)
 *(.flash4_init.*)
                0x00000000                __flash4_free__ = .

.flash5         0x00000000        0x0
                0x00000000                __flash5_init__ = .
 *(.flash5_init)
 *(.flash5_init.*)
                0x00000000                __flash5_free__ = .

.flash6         0x00000000        0x0
                0x00000000                __flash6_init__ = .
 *(.flash6_init)
 *(.flash6_init.*)
                0x00000000                __flash6_free__ = .

.flash7         0x00000000        0x0
                0x00000000                __flash7_init__ = .
 *(.flash7_init)
 *(.flash7_init.*)
                0x00000000                __flash7_free__ = .

.heap           0x2001bc44     0x43bc
                0x2001bc48                . = ALIGN (0x8)
 *fill*         0x2001bc44        0x4 
                0x2001bc48                __heap_base__ = .
                0x20020000                . = (ORIGIN (HEAP_RAM) + LENGTH (HEAP_RAM))
 *fill*         0x2001bc48     0x43b8 
                0x20020000                __heap_end__ = .
                0x00000400                __process_stack_size__ = 0x400
                0x00000400                __main_stack_size__ = 0x400
START GROUP
LOAD c:/chibistudio/tools/gnu tools arm embedded/11.3 2022.08/bin/../lib/gcc/arm-none-eabi/11.3.1/thumb/v7e-m/nofp\libgcc.a
LOAD c:/chibistudio/tools/gnu tools arm embedded/11.3 2022.08/bin/../lib/gcc/arm-none-eabi/11.3.1/thumb/v7e-m/nofp\libg_nano.a
LOAD c:/chibistudio/tools/gnu tools arm embedded/11.3 2022.08/bin/../lib/gcc/arm-none-eabi/11.3.1/thumb/v7e-m/nofp\libc_nano.a
END GROUP
START GROUP
LOAD c:/chibistudio/tools/gnu tools arm embedded/11.3 2022.08/bin/../lib/gcc/arm-none-eabi/11.3.1/thumb/v7e-m/nofp\libgcc.a
LOAD c:/chibistudio/tools/gnu tools arm embedded/11.3 2022.08/bin/../lib/gcc/arm-none-eabi/11.3.1/thumb/v7e-m/nofp\libc_nano.a
LOAD c:/chibistudio/tools/gnu tools arm embedded/11.3 2022.08/bin/../lib/gcc/arm-none-eabi/11.3.1/thumb/v7e-m/nofp\libnosys.a
END GROUP
START GROUP
LOAD c:/chibistudio/tools/gnu tools arm embedded/11.3 2022.08/bin/../lib/gcc/arm-none-eabi/11.3.1/thumb/v7e-m/nofp\libgcc.a
LOAD c:/chibistudio/tools/gnu tools arm embedded/11.3 2022.08/bin/../lib/gcc/arm-none-eabi/11.3.1/thumb/v7e-m/nofp\libc_nano.a
LOAD c:/chibistudio/tools/gnu tools arm embedded/11.3 2022.08/bin/../lib/gcc/arm-none-eabi/11.3.1/thumb/v7e-m/nofp\libnosys.a
END GROUP
OUTPUT(build/ch.elf elf32-littlearm)
LOAD linker stubs

.ARM.attributes
                0x00000000       0x2f
 .ARM.attributes
                0x00000000       0x21 ./build/obj/crt0_v7m.o
 .ARM.attributes
                0x00000021       0x21 ./build/obj/vectors.o
 .ARM.attributes
                0x00000042       0x21 ./build/obj/chcoreasm.o
 .ARM.attributes
                0x00000063       0x2c C:\Users\Ridwane\AppData\Local\Temp\cck5XY5Q.ltrans0.ltrans.o
 .ARM.attributes
                0x0000008f       0x2c C:\Users\Ridwane\AppData\Local\Temp\cck5XY5Q.ltrans1.ltrans.o
 .ARM.attributes
                0x000000bb       0x2e c:/chibistudio/tools/gnu tools arm embedded/11.3 2022.08/bin/../lib/gcc/arm-none-eabi/11.3.1/thumb/v7e-m/nofp\libg_nano.a(libc_a-rand.o)
 .ARM.attributes
                0x000000e9       0x2e c:/chibistudio/tools/gnu tools arm embedded/11.3 2022.08/bin/../lib/gcc/arm-none-eabi/11.3.1/thumb/v7e-m/nofp\libg_nano.a(libc_a-impure.o)
 .ARM.attributes
                0x00000117       0x2e c:/chibistudio/tools/gnu tools arm embedded/11.3 2022.08/bin/../lib/gcc/arm-none-eabi/11.3.1/thumb/v7e-m/nofp\libg_nano.a(libc_a-assert.o)
 .ARM.attributes
                0x00000145       0x2e c:/chibistudio/tools/gnu tools arm embedded/11.3 2022.08/bin/../lib/gcc/arm-none-eabi/11.3.1/thumb/v7e-m/nofp\libg_nano.a(libc_a-malloc.o)
 .ARM.attributes
                0x00000173       0x2e c:/chibistudio/tools/gnu tools arm embedded/11.3 2022.08/bin/../lib/gcc/arm-none-eabi/11.3.1/thumb/v7e-m/nofp\libg_nano.a(libc_a-mallocr.o)
 .ARM.attributes
                0x000001a1       0x2e c:/chibistudio/tools/gnu tools arm embedded/11.3 2022.08/bin/../lib/gcc/arm-none-eabi/11.3.1/thumb/v7e-m/nofp\libg_nano.a(libc_a-mlock.o)
 .ARM.attributes
                0x000001cf       0x2e c:/chibistudio/tools/gnu tools arm embedded/11.3 2022.08/bin/../lib/gcc/arm-none-eabi/11.3.1/thumb/v7e-m/nofp\libg_nano.a(libc_a-fprintf.o)
 .ARM.attributes
                0x000001fd       0x2e c:/chibistudio/tools/gnu tools arm embedded/11.3 2022.08/bin/../lib/gcc/arm-none-eabi/11.3.1/thumb/v7e-m/nofp\libg_nano.a(libc_a-lock.o)
 .ARM.attributes
                0x0000022b       0x2e c:/chibistudio/tools/gnu tools arm embedded/11.3 2022.08/bin/../lib/gcc/arm-none-eabi/11.3.1/thumb/v7e-m/nofp\libg_nano.a(libc_a-abort.o)
 .ARM.attributes
                0x00000259       0x2e c:/chibistudio/tools/gnu tools arm embedded/11.3 2022.08/bin/../lib/gcc/arm-none-eabi/11.3.1/thumb/v7e-m/nofp\libg_nano.a(libc_a-freer.o)
 .ARM.attributes
                0x00000287       0x2e c:/chibistudio/tools/gnu tools arm embedded/11.3 2022.08/bin/../lib/gcc/arm-none-eabi/11.3.1/thumb/v7e-m/nofp\libg_nano.a(libc_a-nano-vfprintf.o)
 .ARM.attributes
                0x000002b5       0x2e c:/chibistudio/tools/gnu tools arm embedded/11.3 2022.08/bin/../lib/gcc/arm-none-eabi/11.3.1/thumb/v7e-m/nofp\libg_nano.a(libc_a-nano-vfprintf_i.o)
 .ARM.attributes
                0x000002e3       0x2e c:/chibistudio/tools/gnu tools arm embedded/11.3 2022.08/bin/../lib/gcc/arm-none-eabi/11.3.1/thumb/v7e-m/nofp\libg_nano.a(libc_a-findfp.o)
 .ARM.attributes
                0x00000311       0x2e c:/chibistudio/tools/gnu tools arm embedded/11.3 2022.08/bin/../lib/gcc/arm-none-eabi/11.3.1/thumb/v7e-m/nofp\libg_nano.a(libc_a-fwalk.o)
 .ARM.attributes
                0x0000033f       0x2e c:/chibistudio/tools/gnu tools arm embedded/11.3 2022.08/bin/../lib/gcc/arm-none-eabi/11.3.1/thumb/v7e-m/nofp\libg_nano.a(libc_a-stdio.o)
 .ARM.attributes
                0x0000036d       0x2e c:/chibistudio/tools/gnu tools arm embedded/11.3 2022.08/bin/../lib/gcc/arm-none-eabi/11.3.1/thumb/v7e-m/nofp\libg_nano.a(libc_a-wbuf.o)
 .ARM.attributes
                0x0000039b       0x2e c:/chibistudio/tools/gnu tools arm embedded/11.3 2022.08/bin/../lib/gcc/arm-none-eabi/11.3.1/thumb/v7e-m/nofp\libg_nano.a(libc_a-wsetup.o)
 .ARM.attributes
                0x000003c9       0x2e c:/chibistudio/tools/gnu tools arm embedded/11.3 2022.08/bin/../lib/gcc/arm-none-eabi/11.3.1/thumb/v7e-m/nofp\libg_nano.a(libc_a-memmove.o)
 .ARM.attributes
                0x000003f7       0x2e c:/chibistudio/tools/gnu tools arm embedded/11.3 2022.08/bin/../lib/gcc/arm-none-eabi/11.3.1/thumb/v7e-m/nofp\libg_nano.a(libc_a-memset.o)
 .ARM.attributes
                0x00000425       0x2e c:/chibistudio/tools/gnu tools arm embedded/11.3 2022.08/bin/../lib/gcc/arm-none-eabi/11.3.1/thumb/v7e-m/nofp\libg_nano.a(libc_a-signal.o)
 .ARM.attributes
                0x00000453       0x2e c:/chibistudio/tools/gnu tools arm embedded/11.3 2022.08/bin/../lib/gcc/arm-none-eabi/11.3.1/thumb/v7e-m/nofp\libg_nano.a(libc_a-signalr.o)
 .ARM.attributes
                0x00000481       0x1c c:/chibistudio/tools/gnu tools arm embedded/11.3 2022.08/bin/../lib/gcc/arm-none-eabi/11.3.1/thumb/v7e-m/nofp\libg_nano.a(libc_a-memchr.o)
 .ARM.attributes
                0x0000049d       0x2e c:/chibistudio/tools/gnu tools arm embedded/11.3 2022.08/bin/../lib/gcc/arm-none-eabi/11.3.1/thumb/v7e-m/nofp\libg_nano.a(libc_a-memcpy-stub.o)
 .ARM.attributes
                0x000004cb       0x2e c:/chibistudio/tools/gnu tools arm embedded/11.3 2022.08/bin/../lib/gcc/arm-none-eabi/11.3.1/thumb/v7e-m/nofp\libg_nano.a(libc_a-fflush.o)
 .ARM.attributes
                0x000004f9       0x2e c:/chibistudio/tools/gnu tools arm embedded/11.3 2022.08/bin/../lib/gcc/arm-none-eabi/11.3.1/thumb/v7e-m/nofp\libg_nano.a(libc_a-makebuf.o)
 .ARM.attributes
                0x00000527       0x2e c:/chibistudio/tools/gnu tools arm embedded/11.3 2022.08/bin/../lib/gcc/arm-none-eabi/11.3.1/thumb/v7e-m/nofp\libg_nano.a(libc_a-reent.o)
 .ARM.attributes
                0x00000555       0x2e c:/chibistudio/tools/gnu tools arm embedded/11.3 2022.08/bin/../lib/gcc/arm-none-eabi/11.3.1/thumb/v7e-m/nofp\libg_nano.a(libc_a-memcmp.o)
 .ARM.attributes
                0x00000583       0x2e c:/chibistudio/tools/gnu tools arm embedded/11.3 2022.08/bin/../lib/gcc/arm-none-eabi/11.3.1/thumb/v7e-m/nofp\libg_nano.a(libc_a-strncmp.o)
 .ARM.attributes
                0x000005b1       0x1c c:/chibistudio/tools/gnu tools arm embedded/11.3 2022.08/bin/../lib/gcc/arm-none-eabi/11.3.1/thumb/v7e-m/nofp\libg_nano.a(libc_a-strcmp.o)

.comment        0x00000000       0x33
 .comment       0x00000000       0x34 C:\Users\Ridwane\AppData\Local\Temp\cck5XY5Q.ltrans0.ltrans.o
 .comment       0x00000000       0x34 C:\Users\Ridwane\AppData\Local\Temp\cck5XY5Q.ltrans1.ltrans.o
 .comment       0x00000000       0x33 c:/chibistudio/tools/gnu tools arm embedded/11.3 2022.08/bin/../lib/gcc/arm-none-eabi/11.3.1/thumb/v7e-m/nofp\libg_nano.a(libc_a-rand.o)
                                 0x34 (size before relaxing)
 .comment       0x00000033       0x34 c:/chibistudio/tools/gnu tools arm embedded/11.3 2022.08/bin/../lib/gcc/arm-none-eabi/11.3.1/thumb/v7e-m/nofp\libg_nano.a(libc_a-impure.o)
 .comment       0x00000033       0x34 c:/chibistudio/tools/gnu tools arm embedded/11.3 2022.08/bin/../lib/gcc/arm-none-eabi/11.3.1/thumb/v7e-m/nofp\libg_nano.a(libc_a-assert.o)
 .comment       0x00000033       0x34 c:/chibistudio/tools/gnu tools arm embedded/11.3 2022.08/bin/../lib/gcc/arm-none-eabi/11.3.1/thumb/v7e-m/nofp\libg_nano.a(libc_a-malloc.o)
 .comment       0x00000033       0x34 c:/chibistudio/tools/gnu tools arm embedded/11.3 2022.08/bin/../lib/gcc/arm-none-eabi/11.3.1/thumb/v7e-m/nofp\libg_nano.a(libc_a-mallocr.o)
 .comment       0x00000033       0x34 c:/chibistudio/tools/gnu tools arm embedded/11.3 2022.08/bin/../lib/gcc/arm-none-eabi/11.3.1/thumb/v7e-m/nofp\libg_nano.a(libc_a-mlock.o)
 .comment       0x00000033       0x34 c:/chibistudio/tools/gnu tools arm embedded/11.3 2022.08/bin/../lib/gcc/arm-none-eabi/11.3.1/thumb/v7e-m/nofp\libg_nano.a(libc_a-fprintf.o)
 .comment       0x00000033       0x34 c:/chibistudio/tools/gnu tools arm embedded/11.3 2022.08/bin/../lib/gcc/arm-none-eabi/11.3.1/thumb/v7e-m/nofp\libg_nano.a(libc_a-lock.o)
 .comment       0x00000033       0x34 c:/chibistudio/tools/gnu tools arm embedded/11.3 2022.08/bin/../lib/gcc/arm-none-eabi/11.3.1/thumb/v7e-m/nofp\libg_nano.a(libc_a-abort.o)
 .comment       0x00000033       0x34 c:/chibistudio/tools/gnu tools arm embedded/11.3 2022.08/bin/../lib/gcc/arm-none-eabi/11.3.1/thumb/v7e-m/nofp\libg_nano.a(libc_a-freer.o)
 .comment       0x00000033       0x34 c:/chibistudio/tools/gnu tools arm embedded/11.3 2022.08/bin/../lib/gcc/arm-none-eabi/11.3.1/thumb/v7e-m/nofp\libg_nano.a(libc_a-nano-vfprintf.o)
 .comment       0x00000033       0x34 c:/chibistudio/tools/gnu tools arm embedded/11.3 2022.08/bin/../lib/gcc/arm-none-eabi/11.3.1/thumb/v7e-m/nofp\libg_nano.a(libc_a-nano-vfprintf_i.o)
 .comment       0x00000033       0x34 c:/chibistudio/tools/gnu tools arm embedded/11.3 2022.08/bin/../lib/gcc/arm-none-eabi/11.3.1/thumb/v7e-m/nofp\libg_nano.a(libc_a-findfp.o)
 .comment       0x00000033       0x34 c:/chibistudio/tools/gnu tools arm embedded/11.3 2022.08/bin/../lib/gcc/arm-none-eabi/11.3.1/thumb/v7e-m/nofp\libg_nano.a(libc_a-fwalk.o)
 .comment       0x00000033       0x34 c:/chibistudio/tools/gnu tools arm embedded/11.3 2022.08/bin/../lib/gcc/arm-none-eabi/11.3.1/thumb/v7e-m/nofp\libg_nano.a(libc_a-stdio.o)
 .comment       0x00000033       0x34 c:/chibistudio/tools/gnu tools arm embedded/11.3 2022.08/bin/../lib/gcc/arm-none-eabi/11.3.1/thumb/v7e-m/nofp\libg_nano.a(libc_a-wbuf.o)
 .comment       0x00000033       0x34 c:/chibistudio/tools/gnu tools arm embedded/11.3 2022.08/bin/../lib/gcc/arm-none-eabi/11.3.1/thumb/v7e-m/nofp\libg_nano.a(libc_a-wsetup.o)
 .comment       0x00000033       0x34 c:/chibistudio/tools/gnu tools arm embedded/11.3 2022.08/bin/../lib/gcc/arm-none-eabi/11.3.1/thumb/v7e-m/nofp\libg_nano.a(libc_a-memmove.o)
 .comment       0x00000033       0x34 c:/chibistudio/tools/gnu tools arm embedded/11.3 2022.08/bin/../lib/gcc/arm-none-eabi/11.3.1/thumb/v7e-m/nofp\libg_nano.a(libc_a-memset.o)
 .comment       0x00000033       0x34 c:/chibistudio/tools/gnu tools arm embedded/11.3 2022.08/bin/../lib/gcc/arm-none-eabi/11.3.1/thumb/v7e-m/nofp\libg_nano.a(libc_a-signal.o)
 .comment       0x00000033       0x34 c:/chibistudio/tools/gnu tools arm embedded/11.3 2022.08/bin/../lib/gcc/arm-none-eabi/11.3.1/thumb/v7e-m/nofp\libg_nano.a(libc_a-signalr.o)
 .comment       0x00000033       0x34 c:/chibistudio/tools/gnu tools arm embedded/11.3 2022.08/bin/../lib/gcc/arm-none-eabi/11.3.1/thumb/v7e-m/nofp\libg_nano.a(libc_a-memcpy-stub.o)
 .comment       0x00000033       0x34 c:/chibistudio/tools/gnu tools arm embedded/11.3 2022.08/bin/../lib/gcc/arm-none-eabi/11.3.1/thumb/v7e-m/nofp\libg_nano.a(libc_a-fflush.o)
 .comment       0x00000033       0x34 c:/chibistudio/tools/gnu tools arm embedded/11.3 2022.08/bin/../lib/gcc/arm-none-eabi/11.3.1/thumb/v7e-m/nofp\libg_nano.a(libc_a-makebuf.o)
 .comment       0x00000033       0x34 c:/chibistudio/tools/gnu tools arm embedded/11.3 2022.08/bin/../lib/gcc/arm-none-eabi/11.3.1/thumb/v7e-m/nofp\libg_nano.a(libc_a-reent.o)
 .comment       0x00000033       0x34 c:/chibistudio/tools/gnu tools arm embedded/11.3 2022.08/bin/../lib/gcc/arm-none-eabi/11.3.1/thumb/v7e-m/nofp\libg_nano.a(libc_a-memcmp.o)
 .comment       0x00000033       0x34 c:/chibistudio/tools/gnu tools arm embedded/11.3 2022.08/bin/../lib/gcc/arm-none-eabi/11.3.1/thumb/v7e-m/nofp\libg_nano.a(libc_a-strncmp.o)

.debug_line     0x00000000    0x2d9ac
 .debug_line    0x00000000       0xa6 ./build/obj/crt0_v7m.o
 .debug_line    0x000000a6       0x4f ./build/obj/vectors.o
 .debug_line    0x000000f5       0x62 ./build/obj/chcoreasm.o
 .debug_line    0x00000157    0x1d0b9 C:\Users\Ridwane\AppData\Local\Temp\cck5XY5Q.ltrans0.ltrans.o
 .debug_line    0x0001d210     0x8bbf C:\Users\Ridwane\AppData\Local\Temp\cck5XY5Q.ltrans1.ltrans.o
 .debug_line    0x00025dcf       0x4c C:\Users\Ridwane\AppData\Local\Temp\cc8o5MEn.debug.temp.o
 .debug_line    0x00025e1b       0x6c C:\Users\Ridwane\AppData\Local\Temp\ccGk73vd.debug.temp.o
 .debug_line    0x00025e87       0x67 C:\Users\Ridwane\AppData\Local\Temp\cca8hNi3.debug.temp.o
 .debug_line    0x00025eee       0xa4 C:\Users\Ridwane\AppData\Local\Temp\ccyW4p0y.debug.temp.o
 .debug_line    0x00025f92       0xd4 C:\Users\Ridwane\AppData\Local\Temp\cceQi06Y.debug.temp.o
 .debug_line    0x00026066       0x55 C:\Users\Ridwane\AppData\Local\Temp\ccKcZOOS.debug.temp.o
 .debug_line    0x000260bb      0x176 C:\Users\Ridwane\AppData\Local\Temp\ccEBa4IM.debug.temp.o
 .debug_line    0x00026231       0x68 C:\Users\Ridwane\AppData\Local\Temp\ccUToRxG.debug.temp.o
 .debug_line    0x00026299       0x56 C:\Users\Ridwane\AppData\Local\Temp\ccyoI2yi.debug.temp.o
 .debug_line    0x000262ef       0x82 C:\Users\Ridwane\AppData\Local\Temp\ccshFsOc.debug.temp.o
 .debug_line    0x00026371       0xcb C:\Users\Ridwane\AppData\Local\Temp\ccmaCS36.debug.temp.o
 .debug_line    0x0002643c       0x67 C:\Users\Ridwane\AppData\Local\Temp\cc8kGSe1.debug.temp.o
 .debug_line    0x000264a3       0xd2 C:\Users\Ridwane\AppData\Local\Temp\cc6ZV6GN.debug.temp.o
 .debug_line    0x00026575       0x8f C:\Users\Ridwane\AppData\Local\Temp\ccEdjY1G.debug.temp.o
 .debug_line    0x00026604       0xa6 C:\Users\Ridwane\AppData\Local\Temp\ccgV26Ym.debug.temp.o
 .debug_line    0x000266aa       0x9d C:\Users\Ridwane\AppData\Local\Temp\cc0I1Zug.debug.temp.o
 .debug_line    0x00026747       0xac C:\Users\Ridwane\AppData\Local\Temp\ccUbvXV9.debug.temp.o
 .debug_line    0x000267f3       0xcc C:\Users\Ridwane\AppData\Local\Temp\ccaiVzA3.debug.temp.o
 .debug_line    0x000268bf       0x9d C:\Users\Ridwane\AppData\Local\Temp\ccqolcfX.debug.temp.o
 .debug_line    0x0002695c       0xb9 C:\Users\Ridwane\AppData\Local\Temp\ccWmbsPQ.debug.temp.o
 .debug_line    0x00026a15       0xa2 C:\Users\Ridwane\AppData\Local\Temp\cciSG5pJ.debug.temp.o
 .debug_line    0x00026ab7       0xa2 C:\Users\Ridwane\AppData\Local\Temp\cc029BXB.debug.temp.o
 .debug_line    0x00026b59       0xa7 C:\Users\Ridwane\AppData\Local\Temp\ccY9anIu.debug.temp.o
 .debug_line    0x00026c00       0xa7 C:\Users\Ridwane\AppData\Local\Temp\ccwr49mn.debug.temp.o
 .debug_line    0x00026ca7       0xa7 C:\Users\Ridwane\AppData\Local\Temp\cckFvbfg.debug.temp.o
 .debug_line    0x00026d4e       0xbe C:\Users\Ridwane\AppData\Local\Temp\ccSqom28.debug.temp.o
 .debug_line    0x00026e0c       0x97 C:\Users\Ridwane\AppData\Local\Temp\ccuuTY31.debug.temp.o
 .debug_line    0x00026ea3       0x79 C:\Users\Ridwane\AppData\Local\Temp\cc2Lkl8U.debug.temp.o
 .debug_line    0x00026f1c       0xa1 C:\Users\Ridwane\AppData\Local\Temp\cceur77N.debug.temp.o
 .debug_line    0x00026fbd       0x97 C:\Users\Ridwane\AppData\Local\Temp\cceuUSaG.debug.temp.o
 .debug_line    0x00027054       0xbd C:\Users\Ridwane\AppData\Local\Temp\cc0ibt6x.debug.temp.o
 .debug_line    0x00027111       0x88 C:\Users\Ridwane\AppData\Local\Temp\cciyl9fq.debug.temp.o
 .debug_line    0x00027199       0xb4 C:\Users\Ridwane\AppData\Local\Temp\ccANvPpi.debug.temp.o
 .debug_line    0x0002724d       0xc3 C:\Users\Ridwane\AppData\Local\Temp\cc08mrua.debug.temp.o
 .debug_line    0x00027310       0xa2 C:\Users\Ridwane\AppData\Local\Temp\cccHEdM2.debug.temp.o
 .debug_line    0x000273b2       0x92 C:\Users\Ridwane\AppData\Local\Temp\cc0CkpZU.debug.temp.o
 .debug_line    0x00027444       0x7a C:\Users\Ridwane\AppData\Local\Temp\cccLKoqN.debug.temp.o
 .debug_line    0x000274be      0x107 C:\Users\Ridwane\AppData\Local\Temp\ccqQ2iMF.debug.temp.o
 .debug_line    0x000275c5       0x75 C:\Users\Ridwane\AppData\Local\Temp\ccEVkd8x.debug.temp.o
 .debug_line    0x0002763a       0xae C:\Users\Ridwane\AppData\Local\Temp\ccM31Udu.debug.temp.o
 .debug_line    0x000276e8       0x8d C:\Users\Ridwane\AppData\Local\Temp\cceEa8eq.debug.temp.o
 .debug_line    0x00027775       0xa9 C:\Users\Ridwane\AppData\Local\Temp\ccOU8tkm.debug.temp.o
 .debug_line    0x0002781e       0xd5 C:\Users\Ridwane\AppData\Local\Temp\ccob7Ppi.debug.temp.o
 .debug_line    0x000278f3       0xda C:\Users\Ridwane\AppData\Local\Temp\ccQlUMIe.debug.temp.o
 .debug_line    0x000279cd       0xd9 C:\Users\Ridwane\AppData\Local\Temp\ccYXASWa.debug.temp.o
 .debug_line    0x00027aa6       0xcc C:\Users\Ridwane\AppData\Local\Temp\ccQl65o7.debug.temp.o
 .debug_line    0x00027b72       0xc7 C:\Users\Ridwane\AppData\Local\Temp\ccIJBjR3.debug.temp.o
 .debug_line    0x00027c39       0xd0 C:\Users\Ridwane\AppData\Local\Temp\ccqOnHe0.debug.temp.o
 .debug_line    0x00027d09       0xd1 C:\Users\Ridwane\AppData\Local\Temp\ccmgUaPW.debug.temp.o
 .debug_line    0x00027dda       0xdf C:\Users\Ridwane\AppData\Local\Temp\cco7vFlS.debug.temp.o
 .debug_line    0x00027eb9       0x75 C:\Users\Ridwane\AppData\Local\Temp\ccKIgpUN.debug.temp.o
 .debug_line    0x00027f2e       0x75 C:\Users\Ridwane\AppData\Local\Temp\ccSWMzoJ.debug.temp.o
 .debug_line    0x00027fa3       0xad C:\Users\Ridwane\AppData\Local\Temp\ccU7ol6E.debug.temp.o
 .debug_line    0x00028050       0xbc C:\Users\Ridwane\AppData\Local\Temp\cc80MbJA.debug.temp.o
 .debug_line    0x0002810c       0xcc C:\Users\Ridwane\AppData\Local\Temp\ccmUa2lw.debug.temp.o
 .debug_line    0x000281d8       0xc7 C:\Users\Ridwane\AppData\Local\Temp\ccKM3d5r.debug.temp.o
 .debug_line    0x0002829f       0xa4 C:\Users\Ridwane\AppData\Local\Temp\cc2rh7Rn.debug.temp.o
 .debug_line    0x00028343       0x92 C:\Users\Ridwane\AppData\Local\Temp\cck7u0Ej.debug.temp.o
 .debug_line    0x000283d5       0xb8 C:\Users\Ridwane\AppData\Local\Temp\cccLAAFf.debug.temp.o
 .debug_line    0x0002848d       0xcc C:\Users\Ridwane\AppData\Local\Temp\ccaYCeBb.debug.temp.o
 .debug_line    0x00028559       0x93 C:\Users\Ridwane\AppData\Local\Temp\ccucy7y6.debug.temp.o
 .debug_line    0x000285ec      0x104 C:\Users\Ridwane\AppData\Local\Temp\ccYFp4wW.debug.temp.o
 .debug_line    0x000286f0       0x64 C:\Users\Ridwane\AppData\Local\Temp\ccu65pyR.debug.temp.o
 .debug_line    0x00028754       0x64 C:\Users\Ridwane\AppData\Local\Temp\ccKQowBM.debug.temp.o
 .debug_line    0x000287b8       0x5b C:\Users\Ridwane\AppData\Local\Temp\cc0AHCEH.debug.temp.o
 .debug_line    0x00028813       0x5b C:\Users\Ridwane\AppData\Local\Temp\ccawVIOC.debug.temp.o
 .debug_line    0x0002886e       0x56 C:\Users\Ridwane\AppData\Local\Temp\cc6Tbp1x.debug.temp.o
 .debug_line    0x000288c4       0x4d C:\Users\Ridwane\AppData\Local\Temp\cckpXTjt.debug.temp.o
 .debug_line    0x00028911       0x64 C:\Users\Ridwane\AppData\Local\Temp\ccE7SD0i.debug.temp.o
 .debug_line    0x00028975       0x64 C:\Users\Ridwane\AppData\Local\Temp\ccY1fGnd.debug.temp.o
 .debug_line    0x000289d9       0x5b C:\Users\Ridwane\AppData\Local\Temp\ccqyQMF7.debug.temp.o
 .debug_line    0x00028a34       0x5f C:\Users\Ridwane\AppData\Local\Temp\ccaCPxb2.debug.temp.o
 .debug_line    0x00028a93      0x313 c:/chibistudio/tools/gnu tools arm embedded/11.3 2022.08/bin/../lib/gcc/arm-none-eabi/11.3.1/thumb/v7e-m/nofp\libg_nano.a(libc_a-rand.o)
 .debug_line    0x00028da6       0xfe c:/chibistudio/tools/gnu tools arm embedded/11.3 2022.08/bin/../lib/gcc/arm-none-eabi/11.3.1/thumb/v7e-m/nofp\libg_nano.a(libc_a-impure.o)
 .debug_line    0x00028ea4      0x228 c:/chibistudio/tools/gnu tools arm embedded/11.3 2022.08/bin/../lib/gcc/arm-none-eabi/11.3.1/thumb/v7e-m/nofp\libg_nano.a(libc_a-assert.o)
 .debug_line    0x000290cc      0x1fa c:/chibistudio/tools/gnu tools arm embedded/11.3 2022.08/bin/../lib/gcc/arm-none-eabi/11.3.1/thumb/v7e-m/nofp\libg_nano.a(libc_a-malloc.o)
 .debug_line    0x000292c6      0x4b1 c:/chibistudio/tools/gnu tools arm embedded/11.3 2022.08/bin/../lib/gcc/arm-none-eabi/11.3.1/thumb/v7e-m/nofp\libg_nano.a(libc_a-mallocr.o)
 .debug_line    0x00029777      0x1e6 c:/chibistudio/tools/gnu tools arm embedded/11.3 2022.08/bin/../lib/gcc/arm-none-eabi/11.3.1/thumb/v7e-m/nofp\libg_nano.a(libc_a-mlock.o)
 .debug_line    0x0002995d      0x237 c:/chibistudio/tools/gnu tools arm embedded/11.3 2022.08/bin/../lib/gcc/arm-none-eabi/11.3.1/thumb/v7e-m/nofp\libg_nano.a(libc_a-fprintf.o)
 .debug_line    0x00029b94      0x105 c:/chibistudio/tools/gnu tools arm embedded/11.3 2022.08/bin/../lib/gcc/arm-none-eabi/11.3.1/thumb/v7e-m/nofp\libg_nano.a(libc_a-lock.o)
 .debug_line    0x00029c99      0x16a c:/chibistudio/tools/gnu tools arm embedded/11.3 2022.08/bin/../lib/gcc/arm-none-eabi/11.3.1/thumb/v7e-m/nofp\libg_nano.a(libc_a-abort.o)
 .debug_line    0x00029e03      0x301 c:/chibistudio/tools/gnu tools arm embedded/11.3 2022.08/bin/../lib/gcc/arm-none-eabi/11.3.1/thumb/v7e-m/nofp\libg_nano.a(libc_a-freer.o)
 .debug_line    0x0002a104      0x6e4 c:/chibistudio/tools/gnu tools arm embedded/11.3 2022.08/bin/../lib/gcc/arm-none-eabi/11.3.1/thumb/v7e-m/nofp\libg_nano.a(libc_a-nano-vfprintf.o)
 .debug_line    0x0002a7e8      0x73f c:/chibistudio/tools/gnu tools arm embedded/11.3 2022.08/bin/../lib/gcc/arm-none-eabi/11.3.1/thumb/v7e-m/nofp\libg_nano.a(libc_a-nano-vfprintf_i.o)
 .debug_line    0x0002af27      0x56b c:/chibistudio/tools/gnu tools arm embedded/11.3 2022.08/bin/../lib/gcc/arm-none-eabi/11.3.1/thumb/v7e-m/nofp\libg_nano.a(libc_a-findfp.o)
 .debug_line    0x0002b492      0x232 c:/chibistudio/tools/gnu tools arm embedded/11.3 2022.08/bin/../lib/gcc/arm-none-eabi/11.3.1/thumb/v7e-m/nofp\libg_nano.a(libc_a-fwalk.o)
 .debug_line    0x0002b6c4      0x2e2 c:/chibistudio/tools/gnu tools arm embedded/11.3 2022.08/bin/../lib/gcc/arm-none-eabi/11.3.1/thumb/v7e-m/nofp\libg_nano.a(libc_a-stdio.o)
 .debug_line    0x0002b9a6      0x2d2 c:/chibistudio/tools/gnu tools arm embedded/11.3 2022.08/bin/../lib/gcc/arm-none-eabi/11.3.1/thumb/v7e-m/nofp\libg_nano.a(libc_a-wbuf.o)
 .debug_line    0x0002bc78      0x304 c:/chibistudio/tools/gnu tools arm embedded/11.3 2022.08/bin/../lib/gcc/arm-none-eabi/11.3.1/thumb/v7e-m/nofp\libg_nano.a(libc_a-wsetup.o)
 .debug_line    0x0002bf7c      0x1b4 c:/chibistudio/tools/gnu tools arm embedded/11.3 2022.08/bin/../lib/gcc/arm-none-eabi/11.3.1/thumb/v7e-m/nofp\libg_nano.a(libc_a-memmove.o)
 .debug_line    0x0002c130      0x176 c:/chibistudio/tools/gnu tools arm embedded/11.3 2022.08/bin/../lib/gcc/arm-none-eabi/11.3.1/thumb/v7e-m/nofp\libg_nano.a(libc_a-memset.o)
 .debug_line    0x0002c2a6      0x439 c:/chibistudio/tools/gnu tools arm embedded/11.3 2022.08/bin/../lib/gcc/arm-none-eabi/11.3.1/thumb/v7e-m/nofp\libg_nano.a(libc_a-signal.o)
 .debug_line    0x0002c6df      0x245 c:/chibistudio/tools/gnu tools arm embedded/11.3 2022.08/bin/../lib/gcc/arm-none-eabi/11.3.1/thumb/v7e-m/nofp\libg_nano.a(libc_a-signalr.o)
 .debug_line    0x0002c924       0x82 c:/chibistudio/tools/gnu tools arm embedded/11.3 2022.08/bin/../lib/gcc/arm-none-eabi/11.3.1/thumb/v7e-m/nofp\libg_nano.a(libc_a-memchr.o)
 .debug_line    0x0002c9a6      0x191 c:/chibistudio/tools/gnu tools arm embedded/11.3 2022.08/bin/../lib/gcc/arm-none-eabi/11.3.1/thumb/v7e-m/nofp\libg_nano.a(libc_a-memcpy-stub.o)
 .debug_line    0x0002cb37      0x473 c:/chibistudio/tools/gnu tools arm embedded/11.3 2022.08/bin/../lib/gcc/arm-none-eabi/11.3.1/thumb/v7e-m/nofp\libg_nano.a(libc_a-fflush.o)
 .debug_line    0x0002cfaa      0x3b0 c:/chibistudio/tools/gnu tools arm embedded/11.3 2022.08/bin/../lib/gcc/arm-none-eabi/11.3.1/thumb/v7e-m/nofp\libg_nano.a(libc_a-makebuf.o)
 .debug_line    0x0002d35a      0x2dd c:/chibistudio/tools/gnu tools arm embedded/11.3 2022.08/bin/../lib/gcc/arm-none-eabi/11.3.1/thumb/v7e-m/nofp\libg_nano.a(libc_a-reent.o)
 .debug_line    0x0002d637      0x195 c:/chibistudio/tools/gnu tools arm embedded/11.3 2022.08/bin/../lib/gcc/arm-none-eabi/11.3.1/thumb/v7e-m/nofp\libg_nano.a(libc_a-memcmp.o)
 .debug_line    0x0002d7cc      0x190 c:/chibistudio/tools/gnu tools arm embedded/11.3 2022.08/bin/../lib/gcc/arm-none-eabi/11.3.1/thumb/v7e-m/nofp\libg_nano.a(libc_a-strncmp.o)
 .debug_line    0x0002d95c       0x50 c:/chibistudio/tools/gnu tools arm embedded/11.3 2022.08/bin/../lib/gcc/arm-none-eabi/11.3.1/thumb/v7e-m/nofp\libg_nano.a(libc_a-strcmp.o)

.debug_line_str
                0x00000000     0x1aac
 .debug_line_str
                0x00000000       0x69 ./build/obj/crt0_v7m.o
                                 0x74 (size before relaxing)
 .debug_line_str
                0x00000069        0xa ./build/obj/vectors.o
                                 0x72 (size before relaxing)
 .debug_line_str
                0x00000073       0x44 ./build/obj/chcoreasm.o
                                 0x75 (size before relaxing)
 .debug_line_str
                0x000000b7      0x105 C:\Users\Ridwane\AppData\Local\Temp\cc8o5MEn.debug.temp.o
                                0x16a (size before relaxing)
 .debug_line_str
                0x000001bc      0x15d C:\Users\Ridwane\AppData\Local\Temp\ccGk73vd.debug.temp.o
                                0x188 (size before relaxing)
 .debug_line_str
                0x00000319       0xca C:\Users\Ridwane\AppData\Local\Temp\cca8hNi3.debug.temp.o
                                0x1da (size before relaxing)
 .debug_line_str
                0x000003e3      0x1a0 C:\Users\Ridwane\AppData\Local\Temp\ccyW4p0y.debug.temp.o
                                0x32a (size before relaxing)
 .debug_line_str
                0x00000583      0x115 C:\Users\Ridwane\AppData\Local\Temp\cceQi06Y.debug.temp.o
                                0x3be (size before relaxing)
 .debug_line_str
                0x00000698       0x6c C:\Users\Ridwane\AppData\Local\Temp\ccKcZOOS.debug.temp.o
                                0x194 (size before relaxing)
 .debug_line_str
                0x00000704      0x2bc C:\Users\Ridwane\AppData\Local\Temp\ccEBa4IM.debug.temp.o
                                0x67d (size before relaxing)
 .debug_line_str
                0x000009c0       0x58 C:\Users\Ridwane\AppData\Local\Temp\ccUToRxG.debug.temp.o
                                0x1f8 (size before relaxing)
 .debug_line_str
                0x00000a18       0x4b C:\Users\Ridwane\AppData\Local\Temp\ccyoI2yi.debug.temp.o
                                0x181 (size before relaxing)
 .debug_line_str
                0x00000a63       0x40 C:\Users\Ridwane\AppData\Local\Temp\ccshFsOc.debug.temp.o
                                0x2aa (size before relaxing)
 .debug_line_str
                0x00000aa3       0x42 C:\Users\Ridwane\AppData\Local\Temp\ccmaCS36.debug.temp.o
                                0x3b4 (size before relaxing)
 .debug_line_str
                0x00000ae5       0x3d C:\Users\Ridwane\AppData\Local\Temp\cc8kGSe1.debug.temp.o
                                0x21b (size before relaxing)
 .debug_line_str
                0x00000b22       0xac C:\Users\Ridwane\AppData\Local\Temp\cc6ZV6GN.debug.temp.o
                                0x33a (size before relaxing)
 .debug_line_str
                0x00000bce       0x25 C:\Users\Ridwane\AppData\Local\Temp\ccEdjY1G.debug.temp.o
                                0x212 (size before relaxing)
 .debug_line_str
                0x00000bf3       0x32 C:\Users\Ridwane\AppData\Local\Temp\ccgV26Ym.debug.temp.o
                                0x28c (size before relaxing)
 .debug_line_str
                0x00000c25       0x25 C:\Users\Ridwane\AppData\Local\Temp\cc0I1Zug.debug.temp.o
                                0x25c (size before relaxing)
 .debug_line_str
                0x00000c4a       0x37 C:\Users\Ridwane\AppData\Local\Temp\ccUbvXV9.debug.temp.o
                                0x277 (size before relaxing)
 .debug_line_str
                0x00000c81       0x35 C:\Users\Ridwane\AppData\Local\Temp\ccaiVzA3.debug.temp.o
                                0x35b (size before relaxing)
 .debug_line_str
                0x00000cb6       0x23 C:\Users\Ridwane\AppData\Local\Temp\ccqolcfX.debug.temp.o
                                0x257 (size before relaxing)
 .debug_line_str
                0x00000cd9       0x29 C:\Users\Ridwane\AppData\Local\Temp\ccWmbsPQ.debug.temp.o
                                0x33c (size before relaxing)
 .debug_line_str
                0x00000d02       0x24 C:\Users\Ridwane\AppData\Local\Temp\cciSG5pJ.debug.temp.o
                                0x268 (size before relaxing)
 .debug_line_str
                0x00000d26       0x24 C:\Users\Ridwane\AppData\Local\Temp\cc029BXB.debug.temp.o
                                0x268 (size before relaxing)
 .debug_line_str
                0x00000d4a       0x2e C:\Users\Ridwane\AppData\Local\Temp\ccY9anIu.debug.temp.o
                                0x273 (size before relaxing)
 .debug_line_str
                0x00000d78       0x27 C:\Users\Ridwane\AppData\Local\Temp\ccwr49mn.debug.temp.o
                                0x279 (size before relaxing)
 .debug_line_str
                0x00000d9f       0x2c C:\Users\Ridwane\AppData\Local\Temp\cckFvbfg.debug.temp.o
                                0x270 (size before relaxing)
 .debug_line_str
                0x00000dcb       0x28 C:\Users\Ridwane\AppData\Local\Temp\ccSqom28.debug.temp.o
                                0x320 (size before relaxing)
 .debug_line_str
                0x00000df3       0x54 C:\Users\Ridwane\AppData\Local\Temp\ccuuTY31.debug.temp.o
                                0x2af (size before relaxing)
 .debug_line_str
                0x00000e47       0x2b C:\Users\Ridwane\AppData\Local\Temp\cc2Lkl8U.debug.temp.o
                                0x274 (size before relaxing)
 .debug_line_str
                0x00000e72       0x2c C:\Users\Ridwane\AppData\Local\Temp\cceur77N.debug.temp.o
                                0x2bb (size before relaxing)
 .debug_line_str
                0x00000e9e       0x2c C:\Users\Ridwane\AppData\Local\Temp\cceuUSaG.debug.temp.o
                                0x2b1 (size before relaxing)
 .debug_line_str
                0x00000eca       0x33 C:\Users\Ridwane\AppData\Local\Temp\cc0ibt6x.debug.temp.o
                                0x35e (size before relaxing)
 .debug_line_str
                0x00000efd       0x3b C:\Users\Ridwane\AppData\Local\Temp\cciyl9fq.debug.temp.o
                                0x296 (size before relaxing)
 .debug_line_str
                0x00000f38       0x4f C:\Users\Ridwane\AppData\Local\Temp\ccANvPpi.debug.temp.o
                                0x310 (size before relaxing)
 .debug_line_str
                0x00000f87       0x38 C:\Users\Ridwane\AppData\Local\Temp\cc08mrua.debug.temp.o
                                0x34c (size before relaxing)
 .debug_line_str
                0x00000fbf       0x33 C:\Users\Ridwane\AppData\Local\Temp\cccHEdM2.debug.temp.o
                                0x28e (size before relaxing)
 .debug_line_str
                0x00000ff2       0x80 C:\Users\Ridwane\AppData\Local\Temp\cc0CkpZU.debug.temp.o
                                0x286 (size before relaxing)
 .debug_line_str
                0x00001072       0x2f C:\Users\Ridwane\AppData\Local\Temp\cccLKoqN.debug.temp.o
                                0x248 (size before relaxing)
 .debug_line_str
                0x000010a1      0x17e C:\Users\Ridwane\AppData\Local\Temp\ccqQ2iMF.debug.temp.o
                                0x49c (size before relaxing)
 .debug_line_str
                0x0000121f       0x3d C:\Users\Ridwane\AppData\Local\Temp\ccEVkd8x.debug.temp.o
                                0x267 (size before relaxing)
 .debug_line_str
                0x0000125c       0x3d C:\Users\Ridwane\AppData\Local\Temp\ccM31Udu.debug.temp.o
                                0x34e (size before relaxing)
 .debug_line_str
                0x00001299       0x3d C:\Users\Ridwane\AppData\Local\Temp\cceEa8eq.debug.temp.o
                                0x2b4 (size before relaxing)
 .debug_line_str
                0x000012d6       0x3d C:\Users\Ridwane\AppData\Local\Temp\ccOU8tkm.debug.temp.o
                                0x341 (size before relaxing)
 .debug_line_str
                0x00001313       0x3d C:\Users\Ridwane\AppData\Local\Temp\ccob7Ppi.debug.temp.o
                                0x3bd (size before relaxing)
 .debug_line_str
                0x00001350       0x3d C:\Users\Ridwane\AppData\Local\Temp\ccQlUMIe.debug.temp.o
                                0x3c6 (size before relaxing)
 .debug_line_str
                0x0000138d       0x46 C:\Users\Ridwane\AppData\Local\Temp\ccYXASWa.debug.temp.o
                                0x3da (size before relaxing)
 .debug_line_str
                0x000013d3       0x3d C:\Users\Ridwane\AppData\Local\Temp\ccQl65o7.debug.temp.o
                                0x38b (size before relaxing)
 .debug_line_str
                0x00001410       0x3d C:\Users\Ridwane\AppData\Local\Temp\ccIJBjR3.debug.temp.o
                                0x381 (size before relaxing)
 .debug_line_str
                0x0000144d       0x3d C:\Users\Ridwane\AppData\Local\Temp\ccqOnHe0.debug.temp.o
                                0x3b0 (size before relaxing)
 .debug_line_str
                0x0000148a       0x49 C:\Users\Ridwane\AppData\Local\Temp\ccmgUaPW.debug.temp.o
                                0x38b (size before relaxing)
 .debug_line_str
                0x000014d3       0x3d C:\Users\Ridwane\AppData\Local\Temp\cco7vFlS.debug.temp.o
                                0x3ce (size before relaxing)
 .debug_line_str
                0x00001510      0x160 C:\Users\Ridwane\AppData\Local\Temp\ccKIgpUN.debug.temp.o
                                0x1c3 (size before relaxing)
 .debug_line_str
                0x00001670       0x43 C:\Users\Ridwane\AppData\Local\Temp\ccSWMzoJ.debug.temp.o
                                0x276 (size before relaxing)
 .debug_line_str
                0x000016b3       0x43 C:\Users\Ridwane\AppData\Local\Temp\ccU7ol6E.debug.temp.o
                                0x36d (size before relaxing)
 .debug_line_str
                0x000016f6       0x43 C:\Users\Ridwane\AppData\Local\Temp\cc80MbJA.debug.temp.o
                                0x3a7 (size before relaxing)
 .debug_line_str
                0x00001739       0x4c C:\Users\Ridwane\AppData\Local\Temp\ccmUa2lw.debug.temp.o
                                0x386 (size before relaxing)
 .debug_line_str
                0x00001785       0x43 C:\Users\Ridwane\AppData\Local\Temp\ccKM3d5r.debug.temp.o
                                0x37b (size before relaxing)
 .debug_line_str
                0x000017c8       0x43 C:\Users\Ridwane\AppData\Local\Temp\cc2rh7Rn.debug.temp.o
                                0x340 (size before relaxing)
 .debug_line_str
                0x0000180b       0x43 C:\Users\Ridwane\AppData\Local\Temp\cck7u0Ej.debug.temp.o
                                0x2cd (size before relaxing)
 .debug_line_str
                0x0000184e       0x43 C:\Users\Ridwane\AppData\Local\Temp\cccLAAFf.debug.temp.o
                                0x35e (size before relaxing)
 .debug_line_str
                0x00001891       0x43 C:\Users\Ridwane\AppData\Local\Temp\ccaYCeBb.debug.temp.o
                                0x38c (size before relaxing)
 .debug_line_str
                0x000018d4       0x7b C:\Users\Ridwane\AppData\Local\Temp\ccucy7y6.debug.temp.o
                                0x28f (size before relaxing)
 .debug_line_str
                0x0000194f       0x13 C:\Users\Ridwane\AppData\Local\Temp\ccYFp4wW.debug.temp.o
                                0x46b (size before relaxing)
 .debug_line_str
                0x00001962       0x15 C:\Users\Ridwane\AppData\Local\Temp\ccu65pyR.debug.temp.o
                                0x1be (size before relaxing)
 .debug_line_str
                0x00001977        0x7 C:\Users\Ridwane\AppData\Local\Temp\ccKQowBM.debug.temp.o
                                0x1be (size before relaxing)
 .debug_line_str
                0x0000197e        0x8 C:\Users\Ridwane\AppData\Local\Temp\cc0AHCEH.debug.temp.o
                                0x167 (size before relaxing)
 .debug_line_str
                0x00001986        0x9 C:\Users\Ridwane\AppData\Local\Temp\ccawVIOC.debug.temp.o
                                0x168 (size before relaxing)
 .debug_line_str
                0x0000198f        0x6 C:\Users\Ridwane\AppData\Local\Temp\cc6Tbp1x.debug.temp.o
                                0x15d (size before relaxing)
 .debug_line_str
                0x00001995        0x6 C:\Users\Ridwane\AppData\Local\Temp\cckpXTjt.debug.temp.o
                                 0xf6 (size before relaxing)
 .debug_line_str
                0x0000199b        0x6 C:\Users\Ridwane\AppData\Local\Temp\ccE7SD0i.debug.temp.o
                                0x1bd (size before relaxing)
 .debug_line_str
                0x0000199b        0x8 C:\Users\Ridwane\AppData\Local\Temp\ccY1fGnd.debug.temp.o
                                0x1bf (size before relaxing)
 .debug_line_str
                0x000019a3        0x7 C:\Users\Ridwane\AppData\Local\Temp\ccqyQMF7.debug.temp.o
                                0x166 (size before relaxing)
 .debug_line_str
                0x000019aa       0x12 C:\Users\Ridwane\AppData\Local\Temp\ccaCPxb2.debug.temp.o
                                0x1bb (size before relaxing)
 .debug_line_str
                0x000019bc       0xde c:/chibistudio/tools/gnu tools arm embedded/11.3 2022.08/bin/../lib/gcc/arm-none-eabi/11.3.1/thumb/v7e-m/nofp\libg_nano.a(libc_a-memchr.o)
                                 0xe7 (size before relaxing)
 .debug_line_str
                0x00001a9a       0x12 c:/chibistudio/tools/gnu tools arm embedded/11.3 2022.08/bin/../lib/gcc/arm-none-eabi/11.3.1/thumb/v7e-m/nofp\libg_nano.a(libc_a-strcmp.o)
                                 0xf9 (size before relaxing)

.debug_info     0x00000000    0x732a3
 .debug_info    0x00000000       0x25 ./build/obj/crt0_v7m.o
 .debug_info    0x00000025       0x24 ./build/obj/vectors.o
 .debug_info    0x00000049       0x24 ./build/obj/chcoreasm.o
 .debug_info    0x0000006d    0x2ad66 C:\Users\Ridwane\AppData\Local\Temp\cck5XY5Q.ltrans0.ltrans.o
 .debug_info    0x0002add3     0xec1a C:\Users\Ridwane\AppData\Local\Temp\cck5XY5Q.ltrans1.ltrans.o
 .debug_info    0x000399ed      0x296 C:\Users\Ridwane\AppData\Local\Temp\cc8o5MEn.debug.temp.o
                0x000399ed                crt1.c.72d01c06
 .debug_info    0x00039c83       0xb3 C:\Users\Ridwane\AppData\Local\Temp\ccGk73vd.debug.temp.o
                0x00039c83                hal.c.66946054
 .debug_info    0x00039d36      0x2e2 C:\Users\Ridwane\AppData\Local\Temp\cca8hNi3.debug.temp.o
                0x00039d36                hal_st.c.6e0a1a94
 .debug_info    0x0003a018      0x83f C:\Users\Ridwane\AppData\Local\Temp\ccyW4p0y.debug.temp.o
                0x0003a018                hal_queues.c.10afee71
 .debug_info    0x0003a857     0x120f C:\Users\Ridwane\AppData\Local\Temp\cceQi06Y.debug.temp.o
                0x0003a857                hal_serial.c.5a9d6d57
 .debug_info    0x0003ba66      0x45b C:\Users\Ridwane\AppData\Local\Temp\ccKcZOOS.debug.temp.o
                0x0003ba66                nvic.c.477ada9e
 .debug_info    0x0003bec1      0xdee C:\Users\Ridwane\AppData\Local\Temp\ccEBa4IM.debug.temp.o
                0x0003bec1                stm32_isr.c.3b740f34
 .debug_info    0x0003ccaf      0x55b C:\Users\Ridwane\AppData\Local\Temp\ccUToRxG.debug.temp.o
                0x0003ccaf                hal_lld.c.a7f9c98e
 .debug_info    0x0003d20a      0x248 C:\Users\Ridwane\AppData\Local\Temp\ccyoI2yi.debug.temp.o
                0x0003d20a                hal_pal_lld.c.a9836c19
 .debug_info    0x0003d452      0x4d1 C:\Users\Ridwane\AppData\Local\Temp\ccshFsOc.debug.temp.o
                0x0003d452                hal_st_lld.c.ba917bdc
 .debug_info    0x0003d923     0x105c C:\Users\Ridwane\AppData\Local\Temp\ccmaCS36.debug.temp.o
                0x0003d923                hal_serial_lld.c.062cd1cb
 .debug_info    0x0003e97f      0x478 C:\Users\Ridwane\AppData\Local\Temp\cc8kGSe1.debug.temp.o
                0x0003e97f                board.c.3d76e6d8
 .debug_info    0x0003edf7      0xdb5 C:\Users\Ridwane\AppData\Local\Temp\cc6ZV6GN.debug.temp.o
                0x0003edf7                chsys.c.a2cbaf2a
 .debug_info    0x0003fbac      0x753 C:\Users\Ridwane\AppData\Local\Temp\ccEdjY1G.debug.temp.o
                0x0003fbac                chrfcu.c.c895f4e7
 .debug_info    0x000402ff      0xdc4 C:\Users\Ridwane\AppData\Local\Temp\ccgV26Ym.debug.temp.o
                0x000402ff                chvt.c.e41f813f
 .debug_info    0x000410c3      0xc69 C:\Users\Ridwane\AppData\Local\Temp\cc0I1Zug.debug.temp.o
                0x000410c3                chschd.c.7ac4a4b1
 .debug_info    0x00041d2c      0xc1d C:\Users\Ridwane\AppData\Local\Temp\ccUbvXV9.debug.temp.o
                0x00041d2c                chinstances.c.1ffa5db6
 .debug_info    0x00042949     0x10ee C:\Users\Ridwane\AppData\Local\Temp\ccaiVzA3.debug.temp.o
                0x00042949                chthreads.c.5557c4f5
 .debug_info    0x00043a37      0xa75 C:\Users\Ridwane\AppData\Local\Temp\ccqolcfX.debug.temp.o
                0x00043a37                chtm.c.c6d3a226
 .debug_info    0x000444ac      0xba7 C:\Users\Ridwane\AppData\Local\Temp\ccWmbsPQ.debug.temp.o
                0x000444ac                chregistry.c.bff1b666
 .debug_info    0x00045053      0xb2d C:\Users\Ridwane\AppData\Local\Temp\cciSG5pJ.debug.temp.o
                0x00045053                chsem.c.1e089c27
 .debug_info    0x00045b80      0xa70 C:\Users\Ridwane\AppData\Local\Temp\cc029BXB.debug.temp.o
                0x00045b80                chmtx.c.08b1d90e
 .debug_info    0x000465f0      0xab4 C:\Users\Ridwane\AppData\Local\Temp\ccY9anIu.debug.temp.o
                0x000465f0                chcond.c.21f5d023
 .debug_info    0x000470a4      0xd0d C:\Users\Ridwane\AppData\Local\Temp\ccwr49mn.debug.temp.o
                0x000470a4                chevents.c.39bea8e5
 .debug_info    0x00047db1      0x95f C:\Users\Ridwane\AppData\Local\Temp\cckFvbfg.debug.temp.o
                0x00047db1                chmsg.c.d1d9700c
 .debug_info    0x00048710      0xaeb C:\Users\Ridwane\AppData\Local\Temp\ccSqom28.debug.temp.o
                0x00048710                chdynamic.c.17c75475
 .debug_info    0x000491fb      0x610 C:\Users\Ridwane\AppData\Local\Temp\ccuuTY31.debug.temp.o
                0x000491fb                chmboxes.c.def0f90b
 .debug_info    0x0004980b      0x2ce C:\Users\Ridwane\AppData\Local\Temp\cc2Lkl8U.debug.temp.o
                0x0004980b                chmemcore.c.3bc0bea9
 .debug_info    0x00049ad9      0xa27 C:\Users\Ridwane\AppData\Local\Temp\cceur77N.debug.temp.o
                0x00049ad9                chmemheaps.c.fc5833e8
 .debug_info    0x0004a500      0x5ac C:\Users\Ridwane\AppData\Local\Temp\cceuUSaG.debug.temp.o
                0x0004a500                chmempools.c.581737a8
 .debug_info    0x0004aaac      0xb20 C:\Users\Ridwane\AppData\Local\Temp\cc0ibt6x.debug.temp.o
                0x0004aaac                chpipes.c.1da99460
 .debug_info    0x0004b5cc      0x692 C:\Users\Ridwane\AppData\Local\Temp\cciyl9fq.debug.temp.o
                0x0004b5cc                chobjcaches.c.8f0852a2
 .debug_info    0x0004bc5e      0xb58 C:\Users\Ridwane\AppData\Local\Temp\ccANvPpi.debug.temp.o
                0x0004bc5e                chdelegates.c.a76d29ec
 .debug_info    0x0004c7b6     0x14cc C:\Users\Ridwane\AppData\Local\Temp\cc08mrua.debug.temp.o
                0x0004c7b6                chfactory.c.0fd8b717
 .debug_info    0x0004dc82      0xfad C:\Users\Ridwane\AppData\Local\Temp\cccHEdM2.debug.temp.o
                0x0004dc82                chcore.c.d0613f85
 .debug_info    0x0004ec2f      0x6da C:\Users\Ridwane\AppData\Local\Temp\cc0CkpZU.debug.temp.o
                0x0004ec2f                ch_test.c.e409ad5d
 .debug_info    0x0004f309      0x468 C:\Users\Ridwane\AppData\Local\Temp\cccLKoqN.debug.temp.o
                0x0004f309                ch_test_printf.c.72cbebc9
 .debug_info    0x0004f771      0xa24 C:\Users\Ridwane\AppData\Local\Temp\ccqQ2iMF.debug.temp.o
                0x0004f771                rt_test_root.c.0290d465
 .debug_info    0x00050195      0x3f8 C:\Users\Ridwane\AppData\Local\Temp\ccEVkd8x.debug.temp.o
                0x00050195                rt_test_sequence_001.c.a05e5700
 .debug_info    0x0005058d      0x7ab C:\Users\Ridwane\AppData\Local\Temp\ccM31Udu.debug.temp.o
                0x0005058d                rt_test_sequence_002.c.7693c634
 .debug_info    0x00050d38      0x440 C:\Users\Ridwane\AppData\Local\Temp\cceEa8eq.debug.temp.o
                0x00050d38                rt_test_sequence_003.c.e62b3365
 .debug_info    0x00051178      0x560 C:\Users\Ridwane\AppData\Local\Temp\ccOU8tkm.debug.temp.o
                0x00051178                rt_test_sequence_004.c.af972b59
 .debug_info    0x000516d8      0xc51 C:\Users\Ridwane\AppData\Local\Temp\ccob7Ppi.debug.temp.o
                0x000516d8                rt_test_sequence_005.c.f415dd57
 .debug_info    0x00052329      0xbde C:\Users\Ridwane\AppData\Local\Temp\ccQlUMIe.debug.temp.o
                0x00052329                rt_test_sequence_006.c.fb9291de
 .debug_info    0x00052f07      0xf05 C:\Users\Ridwane\AppData\Local\Temp\ccYXASWa.debug.temp.o
                0x00052f07                rt_test_sequence_007.c.9d832a79
 .debug_info    0x00053e0c      0xe31 C:\Users\Ridwane\AppData\Local\Temp\ccQl65o7.debug.temp.o
                0x00053e0c                rt_test_sequence_008.c.2cfdc47d
 .debug_info    0x00054c3d      0xbb6 C:\Users\Ridwane\AppData\Local\Temp\ccIJBjR3.debug.temp.o
                0x00054c3d                rt_test_sequence_009.c.6a20c73f
 .debug_info    0x000557f3      0xff0 C:\Users\Ridwane\AppData\Local\Temp\ccqOnHe0.debug.temp.o
                0x000557f3                rt_test_sequence_010.c.c9f22a43
 .debug_info    0x000567e3      0xdef C:\Users\Ridwane\AppData\Local\Temp\ccmgUaPW.debug.temp.o
                0x000567e3                rt_test_sequence_011.c.37d2c6e9
 .debug_info    0x000575d2     0x1212 C:\Users\Ridwane\AppData\Local\Temp\cco7vFlS.debug.temp.o
                0x000575d2                rt_test_sequence_012.c.57880f65
 .debug_info    0x000587e4      0x1ee C:\Users\Ridwane\AppData\Local\Temp\ccKIgpUN.debug.temp.o
                0x000587e4                oslib_test_root.c.e284c4e2
 .debug_info    0x000589d2      0x3f3 C:\Users\Ridwane\AppData\Local\Temp\ccSWMzoJ.debug.temp.o
                0x000589d2                oslib_test_sequence_001.c.34f8d6b8
 .debug_info    0x00058dc5      0x75e C:\Users\Ridwane\AppData\Local\Temp\ccU7ol6E.debug.temp.o
                0x00058dc5                oslib_test_sequence_002.c.ca062983
 .debug_info    0x00059523      0xcab C:\Users\Ridwane\AppData\Local\Temp\cc80MbJA.debug.temp.o
                0x00059523                oslib_test_sequence_003.c.cca91667
 .debug_info    0x0005a1ce      0xfd2 C:\Users\Ridwane\AppData\Local\Temp\ccmUa2lw.debug.temp.o
                0x0005a1ce                oslib_test_sequence_004.c.d0439267
 .debug_info    0x0005b1a0      0xecc C:\Users\Ridwane\AppData\Local\Temp\ccKM3d5r.debug.temp.o
                0x0005b1a0                oslib_test_sequence_005.c.a888feed
 .debug_info    0x0005c06c      0x8e2 C:\Users\Ridwane\AppData\Local\Temp\cc2rh7Rn.debug.temp.o
                0x0005c06c                oslib_test_sequence_006.c.4bcb378f
 .debug_info    0x0005c94e      0x6cd C:\Users\Ridwane\AppData\Local\Temp\cck7u0Ej.debug.temp.o
                0x0005c94e                oslib_test_sequence_007.c.f4b9492f
 .debug_info    0x0005d01b      0xc01 C:\Users\Ridwane\AppData\Local\Temp\cccLAAFf.debug.temp.o
                0x0005d01b                oslib_test_sequence_008.c.9a1e4e3f
 .debug_info    0x0005dc1c     0x11fd C:\Users\Ridwane\AppData\Local\Temp\ccaYCeBb.debug.temp.o
                0x0005dc1c                oslib_test_sequence_009.c.2f3d119b
 .debug_info    0x0005ee19      0xb32 C:\Users\Ridwane\AppData\Local\Temp\ccucy7y6.debug.temp.o
                0x0005ee19                syscalls.c.f69dfe6e
 .debug_info    0x0005f94b     0x10c9 C:\Users\Ridwane\AppData\Local\Temp\ccYFp4wW.debug.temp.o
                0x0005f94b                main.c.043425c3
 .debug_info    0x00060a14     0x1491 C:\Users\Ridwane\AppData\Local\Temp\ccu65pyR.debug.temp.o
                0x00060a14                sign.c.44f69ee3
 .debug_info    0x00061ea5      0x99d C:\Users\Ridwane\AppData\Local\Temp\ccKQowBM.debug.temp.o
                0x00061ea5                nist.c.664fad53
 .debug_info    0x00062842      0x8cd C:\Users\Ridwane\AppData\Local\Temp\cc0AHCEH.debug.temp.o
                0x00062842                codec.c.97caadc1
 .debug_info    0x0006310f      0x64f C:\Users\Ridwane\AppData\Local\Temp\ccawVIOC.debug.temp.o
                0x0006310f                common.c.d9463ee7
 .debug_info    0x0006375e     0x1355 C:\Users\Ridwane\AppData\Local\Temp\cc6Tbp1x.debug.temp.o
                0x0006375e                fft.c.3c76e387
 .debug_info    0x00064ab3      0x522 C:\Users\Ridwane\AppData\Local\Temp\cckpXTjt.debug.temp.o
                0x00064ab3                fpr.c.e28e5bc6
 .debug_info    0x00064fd5      0x54b C:\Users\Ridwane\AppData\Local\Temp\ccE7SD0i.debug.temp.o
                0x00064fd5                rng.c.aa975aa3
 .debug_info    0x00065520      0x496 C:\Users\Ridwane\AppData\Local\Temp\ccY1fGnd.debug.temp.o
                0x00065520                shake.c.8b23fe14
 .debug_info    0x000659b6      0xad3 C:\Users\Ridwane\AppData\Local\Temp\ccqyQMF7.debug.temp.o
                0x000659b6                vrfy.c.949e96f3
 .debug_info    0x00066489      0x580 C:\Users\Ridwane\AppData\Local\Temp\ccaCPxb2.debug.temp.o
                0x00066489                katrng.c.6bc7be8f
 .debug_info    0x00066a09      0x862 c:/chibistudio/tools/gnu tools arm embedded/11.3 2022.08/bin/../lib/gcc/arm-none-eabi/11.3.1/thumb/v7e-m/nofp\libg_nano.a(libc_a-rand.o)
 .debug_info    0x0006726b      0x714 c:/chibistudio/tools/gnu tools arm embedded/11.3 2022.08/bin/../lib/gcc/arm-none-eabi/11.3.1/thumb/v7e-m/nofp\libg_nano.a(libc_a-impure.o)
 .debug_info    0x0006797f      0x81d c:/chibistudio/tools/gnu tools arm embedded/11.3 2022.08/bin/../lib/gcc/arm-none-eabi/11.3.1/thumb/v7e-m/nofp\libg_nano.a(libc_a-assert.o)
 .debug_info    0x0006819c      0x793 c:/chibistudio/tools/gnu tools arm embedded/11.3 2022.08/bin/../lib/gcc/arm-none-eabi/11.3.1/thumb/v7e-m/nofp\libg_nano.a(libc_a-malloc.o)
 .debug_info    0x0006892f      0x9bb c:/chibistudio/tools/gnu tools arm embedded/11.3 2022.08/bin/../lib/gcc/arm-none-eabi/11.3.1/thumb/v7e-m/nofp\libg_nano.a(libc_a-mallocr.o)
 .debug_info    0x000692ea      0x76a c:/chibistudio/tools/gnu tools arm embedded/11.3 2022.08/bin/../lib/gcc/arm-none-eabi/11.3.1/thumb/v7e-m/nofp\libg_nano.a(libc_a-mlock.o)
 .debug_info    0x00069a54      0x854 c:/chibistudio/tools/gnu tools arm embedded/11.3 2022.08/bin/../lib/gcc/arm-none-eabi/11.3.1/thumb/v7e-m/nofp\libg_nano.a(libc_a-fprintf.o)
 .debug_info    0x0006a2a8      0x20a c:/chibistudio/tools/gnu tools arm embedded/11.3 2022.08/bin/../lib/gcc/arm-none-eabi/11.3.1/thumb/v7e-m/nofp\libg_nano.a(libc_a-lock.o)
 .debug_info    0x0006a4b2       0xd8 c:/chibistudio/tools/gnu tools arm embedded/11.3 2022.08/bin/../lib/gcc/arm-none-eabi/11.3.1/thumb/v7e-m/nofp\libg_nano.a(libc_a-abort.o)
 .debug_info    0x0006a58a      0x84a c:/chibistudio/tools/gnu tools arm embedded/11.3 2022.08/bin/../lib/gcc/arm-none-eabi/11.3.1/thumb/v7e-m/nofp\libg_nano.a(libc_a-freer.o)
 .debug_info    0x0006add4     0x1079 c:/chibistudio/tools/gnu tools arm embedded/11.3 2022.08/bin/../lib/gcc/arm-none-eabi/11.3.1/thumb/v7e-m/nofp\libg_nano.a(libc_a-nano-vfprintf.o)
 .debug_info    0x0006be4d      0xddf c:/chibistudio/tools/gnu tools arm embedded/11.3 2022.08/bin/../lib/gcc/arm-none-eabi/11.3.1/thumb/v7e-m/nofp\libg_nano.a(libc_a-nano-vfprintf_i.o)
 .debug_info    0x0006cc2c      0xf8f c:/chibistudio/tools/gnu tools arm embedded/11.3 2022.08/bin/../lib/gcc/arm-none-eabi/11.3.1/thumb/v7e-m/nofp\libg_nano.a(libc_a-findfp.o)
 .debug_info    0x0006dbbb      0x7d1 c:/chibistudio/tools/gnu tools arm embedded/11.3 2022.08/bin/../lib/gcc/arm-none-eabi/11.3.1/thumb/v7e-m/nofp\libg_nano.a(libc_a-fwalk.o)
 .debug_info    0x0006e38c      0xa53 c:/chibistudio/tools/gnu tools arm embedded/11.3 2022.08/bin/../lib/gcc/arm-none-eabi/11.3.1/thumb/v7e-m/nofp\libg_nano.a(libc_a-stdio.o)
 .debug_info    0x0006eddf      0x867 c:/chibistudio/tools/gnu tools arm embedded/11.3 2022.08/bin/../lib/gcc/arm-none-eabi/11.3.1/thumb/v7e-m/nofp\libg_nano.a(libc_a-wbuf.o)
 .debug_info    0x0006f646      0x7ba c:/chibistudio/tools/gnu tools arm embedded/11.3 2022.08/bin/../lib/gcc/arm-none-eabi/11.3.1/thumb/v7e-m/nofp\libg_nano.a(libc_a-wsetup.o)
 .debug_info    0x0006fe00      0x10f c:/chibistudio/tools/gnu tools arm embedded/11.3 2022.08/bin/../lib/gcc/arm-none-eabi/11.3.1/thumb/v7e-m/nofp\libg_nano.a(libc_a-memmove.o)
 .debug_info    0x0006ff0f       0xe0 c:/chibistudio/tools/gnu tools arm embedded/11.3 2022.08/bin/../lib/gcc/arm-none-eabi/11.3.1/thumb/v7e-m/nofp\libg_nano.a(libc_a-memset.o)
 .debug_info    0x0006ffef      0xa2e c:/chibistudio/tools/gnu tools arm embedded/11.3 2022.08/bin/../lib/gcc/arm-none-eabi/11.3.1/thumb/v7e-m/nofp\libg_nano.a(libc_a-signal.o)
 .debug_info    0x00070a1d      0x7dc c:/chibistudio/tools/gnu tools arm embedded/11.3 2022.08/bin/../lib/gcc/arm-none-eabi/11.3.1/thumb/v7e-m/nofp\libg_nano.a(libc_a-signalr.o)
 .debug_info    0x000711f9       0x25 c:/chibistudio/tools/gnu tools arm embedded/11.3 2022.08/bin/../lib/gcc/arm-none-eabi/11.3.1/thumb/v7e-m/nofp\libg_nano.a(libc_a-memchr.o)
 .debug_info    0x0007121e      0x121 c:/chibistudio/tools/gnu tools arm embedded/11.3 2022.08/bin/../lib/gcc/arm-none-eabi/11.3.1/thumb/v7e-m/nofp\libg_nano.a(libc_a-memcpy-stub.o)
 .debug_info    0x0007133f      0x9ee c:/chibistudio/tools/gnu tools arm embedded/11.3 2022.08/bin/../lib/gcc/arm-none-eabi/11.3.1/thumb/v7e-m/nofp\libg_nano.a(libc_a-fflush.o)
 .debug_info    0x00071d2d      0xb18 c:/chibistudio/tools/gnu tools arm embedded/11.3 2022.08/bin/../lib/gcc/arm-none-eabi/11.3.1/thumb/v7e-m/nofp\libg_nano.a(libc_a-makebuf.o)
 .debug_info    0x00072845      0x858 c:/chibistudio/tools/gnu tools arm embedded/11.3 2022.08/bin/../lib/gcc/arm-none-eabi/11.3.1/thumb/v7e-m/nofp\libg_nano.a(libc_a-reent.o)
 .debug_info    0x0007309d      0x104 c:/chibistudio/tools/gnu tools arm embedded/11.3 2022.08/bin/../lib/gcc/arm-none-eabi/11.3.1/thumb/v7e-m/nofp\libg_nano.a(libc_a-memcmp.o)
 .debug_info    0x000731a1       0xde c:/chibistudio/tools/gnu tools arm embedded/11.3 2022.08/bin/../lib/gcc/arm-none-eabi/11.3.1/thumb/v7e-m/nofp\libg_nano.a(libc_a-strncmp.o)
 .debug_info    0x0007327f       0x24 c:/chibistudio/tools/gnu tools arm embedded/11.3 2022.08/bin/../lib/gcc/arm-none-eabi/11.3.1/thumb/v7e-m/nofp\libg_nano.a(libc_a-strcmp.o)

.debug_abbrev   0x00000000     0xd3a3
 .debug_abbrev  0x00000000       0x14 ./build/obj/crt0_v7m.o
 .debug_abbrev  0x00000014       0x14 ./build/obj/vectors.o
 .debug_abbrev  0x00000028       0x14 ./build/obj/chcoreasm.o
 .debug_abbrev  0x0000003c      0x37e C:\Users\Ridwane\AppData\Local\Temp\cck5XY5Q.ltrans0.ltrans.o
 .debug_abbrev  0x000003ba      0x35c C:\Users\Ridwane\AppData\Local\Temp\cck5XY5Q.ltrans1.ltrans.o
 .debug_abbrev  0x00000716       0xec C:\Users\Ridwane\AppData\Local\Temp\cc8o5MEn.debug.temp.o
 .debug_abbrev  0x00000802       0x6d C:\Users\Ridwane\AppData\Local\Temp\ccGk73vd.debug.temp.o
 .debug_abbrev  0x0000086f      0x15c C:\Users\Ridwane\AppData\Local\Temp\cca8hNi3.debug.temp.o
 .debug_abbrev  0x000009cb      0x20c C:\Users\Ridwane\AppData\Local\Temp\ccyW4p0y.debug.temp.o
 .debug_abbrev  0x00000bd7      0x2cb C:\Users\Ridwane\AppData\Local\Temp\cceQi06Y.debug.temp.o
 .debug_abbrev  0x00000ea2      0x13e C:\Users\Ridwane\AppData\Local\Temp\ccKcZOOS.debug.temp.o
 .debug_abbrev  0x00000fe0      0x1ca C:\Users\Ridwane\AppData\Local\Temp\ccEBa4IM.debug.temp.o
 .debug_abbrev  0x000011aa       0xeb C:\Users\Ridwane\AppData\Local\Temp\ccUToRxG.debug.temp.o
 .debug_abbrev  0x00001295       0xf2 C:\Users\Ridwane\AppData\Local\Temp\ccyoI2yi.debug.temp.o
 .debug_abbrev  0x00001387      0x11d C:\Users\Ridwane\AppData\Local\Temp\ccshFsOc.debug.temp.o
 .debug_abbrev  0x000014a4      0x2a8 C:\Users\Ridwane\AppData\Local\Temp\ccmaCS36.debug.temp.o
 .debug_abbrev  0x0000174c      0x168 C:\Users\Ridwane\AppData\Local\Temp\cc8kGSe1.debug.temp.o
 .debug_abbrev  0x000018b4      0x330 C:\Users\Ridwane\AppData\Local\Temp\cc6ZV6GN.debug.temp.o
 .debug_abbrev  0x00001be4      0x157 C:\Users\Ridwane\AppData\Local\Temp\ccEdjY1G.debug.temp.o
 .debug_abbrev  0x00001d3b      0x2ae C:\Users\Ridwane\AppData\Local\Temp\ccgV26Ym.debug.temp.o
 .debug_abbrev  0x00001fe9      0x250 C:\Users\Ridwane\AppData\Local\Temp\cc0I1Zug.debug.temp.o
 .debug_abbrev  0x00002239      0x267 C:\Users\Ridwane\AppData\Local\Temp\ccUbvXV9.debug.temp.o
 .debug_abbrev  0x000024a0      0x315 C:\Users\Ridwane\AppData\Local\Temp\ccaiVzA3.debug.temp.o
 .debug_abbrev  0x000027b5      0x1b4 C:\Users\Ridwane\AppData\Local\Temp\ccqolcfX.debug.temp.o
 .debug_abbrev  0x00002969      0x292 C:\Users\Ridwane\AppData\Local\Temp\ccWmbsPQ.debug.temp.o
 .debug_abbrev  0x00002bfb      0x2b8 C:\Users\Ridwane\AppData\Local\Temp\cciSG5pJ.debug.temp.o
 .debug_abbrev  0x00002eb3      0x2af C:\Users\Ridwane\AppData\Local\Temp\cc029BXB.debug.temp.o
 .debug_abbrev  0x00003162      0x2af C:\Users\Ridwane\AppData\Local\Temp\ccY9anIu.debug.temp.o
 .debug_abbrev  0x00003411      0x2a6 C:\Users\Ridwane\AppData\Local\Temp\ccwr49mn.debug.temp.o
 .debug_abbrev  0x000036b7      0x272 C:\Users\Ridwane\AppData\Local\Temp\cckFvbfg.debug.temp.o
 .debug_abbrev  0x00003929      0x22d C:\Users\Ridwane\AppData\Local\Temp\ccSqom28.debug.temp.o
 .debug_abbrev  0x00003b56      0x1d5 C:\Users\Ridwane\AppData\Local\Temp\ccuuTY31.debug.temp.o
 .debug_abbrev  0x00003d2b      0x15d C:\Users\Ridwane\AppData\Local\Temp\cc2Lkl8U.debug.temp.o
 .debug_abbrev  0x00003e88      0x269 C:\Users\Ridwane\AppData\Local\Temp\cceur77N.debug.temp.o
 .debug_abbrev  0x000040f1      0x206 C:\Users\Ridwane\AppData\Local\Temp\cceuUSaG.debug.temp.o
 .debug_abbrev  0x000042f7      0x277 C:\Users\Ridwane\AppData\Local\Temp\cc0ibt6x.debug.temp.o
 .debug_abbrev  0x0000456e      0x1f2 C:\Users\Ridwane\AppData\Local\Temp\cciyl9fq.debug.temp.o
 .debug_abbrev  0x00004760      0x260 C:\Users\Ridwane\AppData\Local\Temp\ccANvPpi.debug.temp.o
 .debug_abbrev  0x000049c0      0x28b C:\Users\Ridwane\AppData\Local\Temp\cc08mrua.debug.temp.o
 .debug_abbrev  0x00004c4b      0x265 C:\Users\Ridwane\AppData\Local\Temp\cccHEdM2.debug.temp.o
 .debug_abbrev  0x00004eb0      0x269 C:\Users\Ridwane\AppData\Local\Temp\cc0CkpZU.debug.temp.o
 .debug_abbrev  0x00005119      0x1c9 C:\Users\Ridwane\AppData\Local\Temp\cccLKoqN.debug.temp.o
 .debug_abbrev  0x000052e2      0x276 C:\Users\Ridwane\AppData\Local\Temp\ccqQ2iMF.debug.temp.o
 .debug_abbrev  0x00005558      0x18e C:\Users\Ridwane\AppData\Local\Temp\ccEVkd8x.debug.temp.o
 .debug_abbrev  0x000056e6      0x23f C:\Users\Ridwane\AppData\Local\Temp\ccM31Udu.debug.temp.o
 .debug_abbrev  0x00005925      0x1af C:\Users\Ridwane\AppData\Local\Temp\cceEa8eq.debug.temp.o
 .debug_abbrev  0x00005ad4      0x221 C:\Users\Ridwane\AppData\Local\Temp\ccOU8tkm.debug.temp.o
 .debug_abbrev  0x00005cf5      0x2de C:\Users\Ridwane\AppData\Local\Temp\ccob7Ppi.debug.temp.o
 .debug_abbrev  0x00005fd3      0x2c0 C:\Users\Ridwane\AppData\Local\Temp\ccQlUMIe.debug.temp.o
 .debug_abbrev  0x00006293      0x349 C:\Users\Ridwane\AppData\Local\Temp\ccYXASWa.debug.temp.o
 .debug_abbrev  0x000065dc      0x2df C:\Users\Ridwane\AppData\Local\Temp\ccQl65o7.debug.temp.o
 .debug_abbrev  0x000068bb      0x2df C:\Users\Ridwane\AppData\Local\Temp\ccIJBjR3.debug.temp.o
 .debug_abbrev  0x00006b9a      0x334 C:\Users\Ridwane\AppData\Local\Temp\ccqOnHe0.debug.temp.o
 .debug_abbrev  0x00006ece      0x2b3 C:\Users\Ridwane\AppData\Local\Temp\ccmgUaPW.debug.temp.o
 .debug_abbrev  0x00007181      0x372 C:\Users\Ridwane\AppData\Local\Temp\cco7vFlS.debug.temp.o
 .debug_abbrev  0x000074f3       0xb5 C:\Users\Ridwane\AppData\Local\Temp\ccKIgpUN.debug.temp.o
 .debug_abbrev  0x000075a8      0x17f C:\Users\Ridwane\AppData\Local\Temp\ccSWMzoJ.debug.temp.o
 .debug_abbrev  0x00007727      0x22c C:\Users\Ridwane\AppData\Local\Temp\ccU7ol6E.debug.temp.o
 .debug_abbrev  0x00007953      0x272 C:\Users\Ridwane\AppData\Local\Temp\cc80MbJA.debug.temp.o
 .debug_abbrev  0x00007bc5      0x2d2 C:\Users\Ridwane\AppData\Local\Temp\ccmUa2lw.debug.temp.o
 .debug_abbrev  0x00007e97      0x2b3 C:\Users\Ridwane\AppData\Local\Temp\ccKM3d5r.debug.temp.o
 .debug_abbrev  0x0000814a      0x220 C:\Users\Ridwane\AppData\Local\Temp\cc2rh7Rn.debug.temp.o
 .debug_abbrev  0x0000836a      0x1e9 C:\Users\Ridwane\AppData\Local\Temp\cck7u0Ej.debug.temp.o
 .debug_abbrev  0x00008553      0x248 C:\Users\Ridwane\AppData\Local\Temp\cccLAAFf.debug.temp.o
 .debug_abbrev  0x0000879b      0x23b C:\Users\Ridwane\AppData\Local\Temp\ccaYCeBb.debug.temp.o
 .debug_abbrev  0x000089d6      0x20b C:\Users\Ridwane\AppData\Local\Temp\ccucy7y6.debug.temp.o
 .debug_abbrev  0x00008be1      0x2d5 C:\Users\Ridwane\AppData\Local\Temp\ccYFp4wW.debug.temp.o
 .debug_abbrev  0x00008eb6      0x31e C:\Users\Ridwane\AppData\Local\Temp\ccu65pyR.debug.temp.o
 .debug_abbrev  0x000091d4      0x219 C:\Users\Ridwane\AppData\Local\Temp\ccKQowBM.debug.temp.o
 .debug_abbrev  0x000093ed      0x19c C:\Users\Ridwane\AppData\Local\Temp\cc0AHCEH.debug.temp.o
 .debug_abbrev  0x00009589      0x1e3 C:\Users\Ridwane\AppData\Local\Temp\ccawVIOC.debug.temp.o
 .debug_abbrev  0x0000976c      0x1cc C:\Users\Ridwane\AppData\Local\Temp\cc6Tbp1x.debug.temp.o
 .debug_abbrev  0x00009938      0x15f C:\Users\Ridwane\AppData\Local\Temp\cckpXTjt.debug.temp.o
 .debug_abbrev  0x00009a97      0x237 C:\Users\Ridwane\AppData\Local\Temp\ccE7SD0i.debug.temp.o
 .debug_abbrev  0x00009cce      0x1a4 C:\Users\Ridwane\AppData\Local\Temp\ccY1fGnd.debug.temp.o
 .debug_abbrev  0x00009e72      0x195 C:\Users\Ridwane\AppData\Local\Temp\ccqyQMF7.debug.temp.o
 .debug_abbrev  0x0000a007      0x1f6 C:\Users\Ridwane\AppData\Local\Temp\ccaCPxb2.debug.temp.o
 .debug_abbrev  0x0000a1fd      0x220 c:/chibistudio/tools/gnu tools arm embedded/11.3 2022.08/bin/../lib/gcc/arm-none-eabi/11.3.1/thumb/v7e-m/nofp\libg_nano.a(libc_a-rand.o)
 .debug_abbrev  0x0000a41d      0x149 c:/chibistudio/tools/gnu tools arm embedded/11.3 2022.08/bin/../lib/gcc/arm-none-eabi/11.3.1/thumb/v7e-m/nofp\libg_nano.a(libc_a-impure.o)
 .debug_abbrev  0x0000a566      0x1ea c:/chibistudio/tools/gnu tools arm embedded/11.3 2022.08/bin/../lib/gcc/arm-none-eabi/11.3.1/thumb/v7e-m/nofp\libg_nano.a(libc_a-assert.o)
 .debug_abbrev  0x0000a750      0x1cf c:/chibistudio/tools/gnu tools arm embedded/11.3 2022.08/bin/../lib/gcc/arm-none-eabi/11.3.1/thumb/v7e-m/nofp\libg_nano.a(libc_a-malloc.o)
 .debug_abbrev  0x0000a91f      0x24a c:/chibistudio/tools/gnu tools arm embedded/11.3 2022.08/bin/../lib/gcc/arm-none-eabi/11.3.1/thumb/v7e-m/nofp\libg_nano.a(libc_a-mallocr.o)
 .debug_abbrev  0x0000ab69      0x1bf c:/chibistudio/tools/gnu tools arm embedded/11.3 2022.08/bin/../lib/gcc/arm-none-eabi/11.3.1/thumb/v7e-m/nofp\libg_nano.a(libc_a-mlock.o)
 .debug_abbrev  0x0000ad28      0x21d c:/chibistudio/tools/gnu tools arm embedded/11.3 2022.08/bin/../lib/gcc/arm-none-eabi/11.3.1/thumb/v7e-m/nofp\libg_nano.a(libc_a-fprintf.o)
 .debug_abbrev  0x0000af45      0x115 c:/chibistudio/tools/gnu tools arm embedded/11.3 2022.08/bin/../lib/gcc/arm-none-eabi/11.3.1/thumb/v7e-m/nofp\libg_nano.a(libc_a-lock.o)
 .debug_abbrev  0x0000b05a       0x99 c:/chibistudio/tools/gnu tools arm embedded/11.3 2022.08/bin/../lib/gcc/arm-none-eabi/11.3.1/thumb/v7e-m/nofp\libg_nano.a(libc_a-abort.o)
 .debug_abbrev  0x0000b0f3      0x236 c:/chibistudio/tools/gnu tools arm embedded/11.3 2022.08/bin/../lib/gcc/arm-none-eabi/11.3.1/thumb/v7e-m/nofp\libg_nano.a(libc_a-freer.o)
 .debug_abbrev  0x0000b329      0x317 c:/chibistudio/tools/gnu tools arm embedded/11.3 2022.08/bin/../lib/gcc/arm-none-eabi/11.3.1/thumb/v7e-m/nofp\libg_nano.a(libc_a-nano-vfprintf.o)
 .debug_abbrev  0x0000b640      0x28f c:/chibistudio/tools/gnu tools arm embedded/11.3 2022.08/bin/../lib/gcc/arm-none-eabi/11.3.1/thumb/v7e-m/nofp\libg_nano.a(libc_a-nano-vfprintf_i.o)
 .debug_abbrev  0x0000b8cf      0x40c c:/chibistudio/tools/gnu tools arm embedded/11.3 2022.08/bin/../lib/gcc/arm-none-eabi/11.3.1/thumb/v7e-m/nofp\libg_nano.a(libc_a-findfp.o)
 .debug_abbrev  0x0000bcdb      0x19b c:/chibistudio/tools/gnu tools arm embedded/11.3 2022.08/bin/../lib/gcc/arm-none-eabi/11.3.1/thumb/v7e-m/nofp\libg_nano.a(libc_a-fwalk.o)
 .debug_abbrev  0x0000be76      0x221 c:/chibistudio/tools/gnu tools arm embedded/11.3 2022.08/bin/../lib/gcc/arm-none-eabi/11.3.1/thumb/v7e-m/nofp\libg_nano.a(libc_a-stdio.o)
 .debug_abbrev  0x0000c097      0x22d c:/chibistudio/tools/gnu tools arm embedded/11.3 2022.08/bin/../lib/gcc/arm-none-eabi/11.3.1/thumb/v7e-m/nofp\libg_nano.a(libc_a-wbuf.o)
 .debug_abbrev  0x0000c2c4      0x1e2 c:/chibistudio/tools/gnu tools arm embedded/11.3 2022.08/bin/../lib/gcc/arm-none-eabi/11.3.1/thumb/v7e-m/nofp\libg_nano.a(libc_a-wsetup.o)
 .debug_abbrev  0x0000c4a6       0xac c:/chibistudio/tools/gnu tools arm embedded/11.3 2022.08/bin/../lib/gcc/arm-none-eabi/11.3.1/thumb/v7e-m/nofp\libg_nano.a(libc_a-memmove.o)
 .debug_abbrev  0x0000c552       0x9e c:/chibistudio/tools/gnu tools arm embedded/11.3 2022.08/bin/../lib/gcc/arm-none-eabi/11.3.1/thumb/v7e-m/nofp\libg_nano.a(libc_a-memset.o)
 .debug_abbrev  0x0000c5f0      0x296 c:/chibistudio/tools/gnu tools arm embedded/11.3 2022.08/bin/../lib/gcc/arm-none-eabi/11.3.1/thumb/v7e-m/nofp\libg_nano.a(libc_a-signal.o)
 .debug_abbrev  0x0000c886      0x1fd c:/chibistudio/tools/gnu tools arm embedded/11.3 2022.08/bin/../lib/gcc/arm-none-eabi/11.3.1/thumb/v7e-m/nofp\libg_nano.a(libc_a-signalr.o)
 .debug_abbrev  0x0000ca83       0x14 c:/chibistudio/tools/gnu tools arm embedded/11.3 2022.08/bin/../lib/gcc/arm-none-eabi/11.3.1/thumb/v7e-m/nofp\libg_nano.a(libc_a-memchr.o)
 .debug_abbrev  0x0000ca97       0xc1 c:/chibistudio/tools/gnu tools arm embedded/11.3 2022.08/bin/../lib/gcc/arm-none-eabi/11.3.1/thumb/v7e-m/nofp\libg_nano.a(libc_a-memcpy-stub.o)
 .debug_abbrev  0x0000cb58      0x2a8 c:/chibistudio/tools/gnu tools arm embedded/11.3 2022.08/bin/../lib/gcc/arm-none-eabi/11.3.1/thumb/v7e-m/nofp\libg_nano.a(libc_a-fflush.o)
 .debug_abbrev  0x0000ce00      0x28e c:/chibistudio/tools/gnu tools arm embedded/11.3 2022.08/bin/../lib/gcc/arm-none-eabi/11.3.1/thumb/v7e-m/nofp\libg_nano.a(libc_a-makebuf.o)
 .debug_abbrev  0x0000d08e      0x1f8 c:/chibistudio/tools/gnu tools arm embedded/11.3 2022.08/bin/../lib/gcc/arm-none-eabi/11.3.1/thumb/v7e-m/nofp\libg_nano.a(libc_a-reent.o)
 .debug_abbrev  0x0000d286       0x90 c:/chibistudio/tools/gnu tools arm embedded/11.3 2022.08/bin/../lib/gcc/arm-none-eabi/11.3.1/thumb/v7e-m/nofp\libg_nano.a(libc_a-memcmp.o)
 .debug_abbrev  0x0000d316       0x79 c:/chibistudio/tools/gnu tools arm embedded/11.3 2022.08/bin/../lib/gcc/arm-none-eabi/11.3.1/thumb/v7e-m/nofp\libg_nano.a(libc_a-strncmp.o)
 .debug_abbrev  0x0000d38f       0x14 c:/chibistudio/tools/gnu tools arm embedded/11.3 2022.08/bin/../lib/gcc/arm-none-eabi/11.3.1/thumb/v7e-m/nofp\libg_nano.a(libc_a-strcmp.o)

.debug_aranges  0x00000000      0xdd8
 .debug_aranges
                0x00000000       0x20 ./build/obj/crt0_v7m.o
 .debug_aranges
                0x00000020       0x20 ./build/obj/vectors.o
 .debug_aranges
                0x00000040       0x20 ./build/obj/chcoreasm.o
 .debug_aranges
                0x00000060      0x628 C:\Users\Ridwane\AppData\Local\Temp\cck5XY5Q.ltrans0.ltrans.o
 .debug_aranges
                0x00000688      0x280 C:\Users\Ridwane\AppData\Local\Temp\cck5XY5Q.ltrans1.ltrans.o
 .debug_aranges
                0x00000908       0x28 c:/chibistudio/tools/gnu tools arm embedded/11.3 2022.08/bin/../lib/gcc/arm-none-eabi/11.3.1/thumb/v7e-m/nofp\libg_nano.a(libc_a-rand.o)
 .debug_aranges
                0x00000930       0x18 c:/chibistudio/tools/gnu tools arm embedded/11.3 2022.08/bin/../lib/gcc/arm-none-eabi/11.3.1/thumb/v7e-m/nofp\libg_nano.a(libc_a-impure.o)
 .debug_aranges
                0x00000948       0x28 c:/chibistudio/tools/gnu tools arm embedded/11.3 2022.08/bin/../lib/gcc/arm-none-eabi/11.3.1/thumb/v7e-m/nofp\libg_nano.a(libc_a-assert.o)
 .debug_aranges
                0x00000970       0x28 c:/chibistudio/tools/gnu tools arm embedded/11.3 2022.08/bin/../lib/gcc/arm-none-eabi/11.3.1/thumb/v7e-m/nofp\libg_nano.a(libc_a-malloc.o)
 .debug_aranges
                0x00000998       0x28 c:/chibistudio/tools/gnu tools arm embedded/11.3 2022.08/bin/../lib/gcc/arm-none-eabi/11.3.1/thumb/v7e-m/nofp\libg_nano.a(libc_a-mallocr.o)
 .debug_aranges
                0x000009c0       0x28 c:/chibistudio/tools/gnu tools arm embedded/11.3 2022.08/bin/../lib/gcc/arm-none-eabi/11.3.1/thumb/v7e-m/nofp\libg_nano.a(libc_a-mlock.o)
 .debug_aranges
                0x000009e8       0x28 c:/chibistudio/tools/gnu tools arm embedded/11.3 2022.08/bin/../lib/gcc/arm-none-eabi/11.3.1/thumb/v7e-m/nofp\libg_nano.a(libc_a-fprintf.o)
 .debug_aranges
                0x00000a10       0x28 c:/chibistudio/tools/gnu tools arm embedded/11.3 2022.08/bin/../lib/gcc/arm-none-eabi/11.3.1/thumb/v7e-m/nofp\libg_nano.a(libc_a-lock.o)
 .debug_aranges
                0x00000a38       0x20 c:/chibistudio/tools/gnu tools arm embedded/11.3 2022.08/bin/../lib/gcc/arm-none-eabi/11.3.1/thumb/v7e-m/nofp\libg_nano.a(libc_a-abort.o)
 .debug_aranges
                0x00000a58       0x20 c:/chibistudio/tools/gnu tools arm embedded/11.3 2022.08/bin/../lib/gcc/arm-none-eabi/11.3.1/thumb/v7e-m/nofp\libg_nano.a(libc_a-freer.o)
 .debug_aranges
                0x00000a78       0x40 c:/chibistudio/tools/gnu tools arm embedded/11.3 2022.08/bin/../lib/gcc/arm-none-eabi/11.3.1/thumb/v7e-m/nofp\libg_nano.a(libc_a-nano-vfprintf.o)
 .debug_aranges
                0x00000ab8       0x28 c:/chibistudio/tools/gnu tools arm embedded/11.3 2022.08/bin/../lib/gcc/arm-none-eabi/11.3.1/thumb/v7e-m/nofp\libg_nano.a(libc_a-nano-vfprintf_i.o)
 .debug_aranges
                0x00000ae0       0x78 c:/chibistudio/tools/gnu tools arm embedded/11.3 2022.08/bin/../lib/gcc/arm-none-eabi/11.3.1/thumb/v7e-m/nofp\libg_nano.a(libc_a-findfp.o)
 .debug_aranges
                0x00000b58       0x20 c:/chibistudio/tools/gnu tools arm embedded/11.3 2022.08/bin/../lib/gcc/arm-none-eabi/11.3.1/thumb/v7e-m/nofp\libg_nano.a(libc_a-fwalk.o)
 .debug_aranges
                0x00000b78       0x40 c:/chibistudio/tools/gnu tools arm embedded/11.3 2022.08/bin/../lib/gcc/arm-none-eabi/11.3.1/thumb/v7e-m/nofp\libg_nano.a(libc_a-stdio.o)
 .debug_aranges
                0x00000bb8       0x28 c:/chibistudio/tools/gnu tools arm embedded/11.3 2022.08/bin/../lib/gcc/arm-none-eabi/11.3.1/thumb/v7e-m/nofp\libg_nano.a(libc_a-wbuf.o)
 .debug_aranges
                0x00000be0       0x20 c:/chibistudio/tools/gnu tools arm embedded/11.3 2022.08/bin/../lib/gcc/arm-none-eabi/11.3.1/thumb/v7e-m/nofp\libg_nano.a(libc_a-wsetup.o)
 .debug_aranges
                0x00000c00       0x20 c:/chibistudio/tools/gnu tools arm embedded/11.3 2022.08/bin/../lib/gcc/arm-none-eabi/11.3.1/thumb/v7e-m/nofp\libg_nano.a(libc_a-memmove.o)
 .debug_aranges
                0x00000c20       0x20 c:/chibistudio/tools/gnu tools arm embedded/11.3 2022.08/bin/../lib/gcc/arm-none-eabi/11.3.1/thumb/v7e-m/nofp\libg_nano.a(libc_a-memset.o)
 .debug_aranges
                0x00000c40       0x58 c:/chibistudio/tools/gnu tools arm embedded/11.3 2022.08/bin/../lib/gcc/arm-none-eabi/11.3.1/thumb/v7e-m/nofp\libg_nano.a(libc_a-signal.o)
 .debug_aranges
                0x00000c98       0x28 c:/chibistudio/tools/gnu tools arm embedded/11.3 2022.08/bin/../lib/gcc/arm-none-eabi/11.3.1/thumb/v7e-m/nofp\libg_nano.a(libc_a-signalr.o)
 .debug_aranges
                0x00000cc0       0x20 c:/chibistudio/tools/gnu tools arm embedded/11.3 2022.08/bin/../lib/gcc/arm-none-eabi/11.3.1/thumb/v7e-m/nofp\libg_nano.a(libc_a-memchr.o)
 .debug_aranges
                0x00000ce0       0x20 c:/chibistudio/tools/gnu tools arm embedded/11.3 2022.08/bin/../lib/gcc/arm-none-eabi/11.3.1/thumb/v7e-m/nofp\libg_nano.a(libc_a-memcpy-stub.o)
 .debug_aranges
                0x00000d00       0x30 c:/chibistudio/tools/gnu tools arm embedded/11.3 2022.08/bin/../lib/gcc/arm-none-eabi/11.3.1/thumb/v7e-m/nofp\libg_nano.a(libc_a-fflush.o)
 .debug_aranges
                0x00000d30       0x28 c:/chibistudio/tools/gnu tools arm embedded/11.3 2022.08/bin/../lib/gcc/arm-none-eabi/11.3.1/thumb/v7e-m/nofp\libg_nano.a(libc_a-makebuf.o)
 .debug_aranges
                0x00000d58       0x20 c:/chibistudio/tools/gnu tools arm embedded/11.3 2022.08/bin/../lib/gcc/arm-none-eabi/11.3.1/thumb/v7e-m/nofp\libg_nano.a(libc_a-reent.o)
 .debug_aranges
                0x00000d78       0x20 c:/chibistudio/tools/gnu tools arm embedded/11.3 2022.08/bin/../lib/gcc/arm-none-eabi/11.3.1/thumb/v7e-m/nofp\libg_nano.a(libc_a-memcmp.o)
 .debug_aranges
                0x00000d98       0x20 c:/chibistudio/tools/gnu tools arm embedded/11.3 2022.08/bin/../lib/gcc/arm-none-eabi/11.3.1/thumb/v7e-m/nofp\libg_nano.a(libc_a-strncmp.o)
 .debug_aranges
                0x00000db8       0x20 c:/chibistudio/tools/gnu tools arm embedded/11.3 2022.08/bin/../lib/gcc/arm-none-eabi/11.3.1/thumb/v7e-m/nofp\libg_nano.a(libc_a-strcmp.o)

.debug_str      0x00000000     0x8d30
 .debug_str     0x00000000       0x75 ./build/obj/crt0_v7m.o
 .debug_str     0x00000075       0x43 ./build/obj/vectors.o
                                 0x74 (size before relaxing)
 .debug_str     0x000000b8       0x44 ./build/obj/chcoreasm.o
                                 0x75 (size before relaxing)
 .debug_str     0x000000fc      0x298 C:\Users\Ridwane\AppData\Local\Temp\cck5XY5Q.ltrans0.ltrans.o
                                0x2f6 (size before relaxing)
 .debug_str     0x00000394       0xf8 C:\Users\Ridwane\AppData\Local\Temp\cck5XY5Q.ltrans1.ltrans.o
                                0x35e (size before relaxing)
 .debug_str     0x0000048c      0x376 C:\Users\Ridwane\AppData\Local\Temp\cc8o5MEn.debug.temp.o
                                0x447 (size before relaxing)
 .debug_str     0x00000802       0x6d C:\Users\Ridwane\AppData\Local\Temp\ccGk73vd.debug.temp.o
                                0x1e2 (size before relaxing)
 .debug_str     0x0000086f      0x146 C:\Users\Ridwane\AppData\Local\Temp\cca8hNi3.debug.temp.o
                                0x2dc (size before relaxing)
 .debug_str     0x000009b5      0x2d0 C:\Users\Ridwane\AppData\Local\Temp\ccyW4p0y.debug.temp.o
                                0x4a5 (size before relaxing)
 .debug_str     0x00000c85      0x562 C:\Users\Ridwane\AppData\Local\Temp\cceQi06Y.debug.temp.o
                                0x9a1 (size before relaxing)
 .debug_str     0x000011e7      0x162 C:\Users\Ridwane\AppData\Local\Temp\ccKcZOOS.debug.temp.o
                                0x322 (size before relaxing)
 .debug_str     0x00001349      0x504 C:\Users\Ridwane\AppData\Local\Temp\ccEBa4IM.debug.temp.o
                                0xc30 (size before relaxing)
 .debug_str     0x0000184d      0x18d C:\Users\Ridwane\AppData\Local\Temp\ccUToRxG.debug.temp.o
                                0x3d3 (size before relaxing)
 .debug_str     0x000019da       0xe6 C:\Users\Ridwane\AppData\Local\Temp\ccyoI2yi.debug.temp.o
                                0x2a1 (size before relaxing)
 .debug_str     0x00001ac0       0xe0 C:\Users\Ridwane\AppData\Local\Temp\ccshFsOc.debug.temp.o
                                0x423 (size before relaxing)
 .debug_str     0x00001ba0       0x74 C:\Users\Ridwane\AppData\Local\Temp\ccmaCS36.debug.temp.o
                                0x9f8 (size before relaxing)
 .debug_str     0x00001c14       0xcb C:\Users\Ridwane\AppData\Local\Temp\cc8kGSe1.debug.temp.o
                                0x401 (size before relaxing)
 .debug_str     0x00001cdf      0x39b C:\Users\Ridwane\AppData\Local\Temp\cc6ZV6GN.debug.temp.o
                                0x9fb (size before relaxing)
 .debug_str     0x0000207a       0x53 C:\Users\Ridwane\AppData\Local\Temp\ccEdjY1G.debug.temp.o
                                0x596 (size before relaxing)
 .debug_str     0x000020cd      0x245 C:\Users\Ridwane\AppData\Local\Temp\ccgV26Ym.debug.temp.o
                                0x876 (size before relaxing)
 .debug_str     0x00002312      0x1ab C:\Users\Ridwane\AppData\Local\Temp\cc0I1Zug.debug.temp.o
                                0x7e2 (size before relaxing)
 .debug_str     0x000024bd      0x2b3 C:\Users\Ridwane\AppData\Local\Temp\ccUbvXV9.debug.temp.o
                                0x930 (size before relaxing)
 .debug_str     0x00002770      0x28c C:\Users\Ridwane\AppData\Local\Temp\ccaiVzA3.debug.temp.o
                                0x9be (size before relaxing)
 .debug_str     0x000029fc       0x4d C:\Users\Ridwane\AppData\Local\Temp\ccqolcfX.debug.temp.o
                                0x781 (size before relaxing)
 .debug_str     0x00002a49       0xaa C:\Users\Ridwane\AppData\Local\Temp\ccWmbsPQ.debug.temp.o
                                0x8b6 (size before relaxing)
 .debug_str     0x00002af3       0xe8 C:\Users\Ridwane\AppData\Local\Temp\cciSG5pJ.debug.temp.o
                                0x731 (size before relaxing)
 .debug_str     0x00002bdb       0xc3 C:\Users\Ridwane\AppData\Local\Temp\cc029BXB.debug.temp.o
                                0x6df (size before relaxing)
 .debug_str     0x00002c9e       0xe9 C:\Users\Ridwane\AppData\Local\Temp\ccY9anIu.debug.temp.o
                                0x741 (size before relaxing)
 .debug_str     0x00002d87      0x1ad C:\Users\Ridwane\AppData\Local\Temp\ccwr49mn.debug.temp.o
                                0x80d (size before relaxing)
 .debug_str     0x00002f34       0x81 C:\Users\Ridwane\AppData\Local\Temp\cckFvbfg.debug.temp.o
                                0x68d (size before relaxing)
 .debug_str     0x00002fb5       0xbd C:\Users\Ridwane\AppData\Local\Temp\ccSqom28.debug.temp.o
                                0x705 (size before relaxing)
 .debug_str     0x00003072      0x11d C:\Users\Ridwane\AppData\Local\Temp\ccuuTY31.debug.temp.o
                                0x401 (size before relaxing)
 .debug_str     0x0000318f       0xcb C:\Users\Ridwane\AppData\Local\Temp\cc2Lkl8U.debug.temp.o
                                0x2e6 (size before relaxing)
 .debug_str     0x0000325a       0x7c C:\Users\Ridwane\AppData\Local\Temp\cceur77N.debug.temp.o
                                0x6aa (size before relaxing)
 .debug_str     0x000032d6      0x12e C:\Users\Ridwane\AppData\Local\Temp\cceuUSaG.debug.temp.o
                                0x43a (size before relaxing)
 .debug_str     0x00003404       0xc3 C:\Users\Ridwane\AppData\Local\Temp\cc0ibt6x.debug.temp.o
                                0x6f1 (size before relaxing)
 .debug_str     0x000034c7      0x1f1 C:\Users\Ridwane\AppData\Local\Temp\cciyl9fq.debug.temp.o
                                0x48f (size before relaxing)
 .debug_str     0x000036b8      0x16b C:\Users\Ridwane\AppData\Local\Temp\ccANvPpi.debug.temp.o
                                0x75b (size before relaxing)
 .debug_str     0x00003823      0x483 C:\Users\Ridwane\AppData\Local\Temp\cc08mrua.debug.temp.o
                                0xc31 (size before relaxing)
 .debug_str     0x00003ca6      0x650 C:\Users\Ridwane\AppData\Local\Temp\cccHEdM2.debug.temp.o
                                0xd84 (size before relaxing)
 .debug_str     0x000042f6      0x302 C:\Users\Ridwane\AppData\Local\Temp\cc0CkpZU.debug.temp.o
                                0x59b (size before relaxing)
 .debug_str     0x000045f8       0xb3 C:\Users\Ridwane\AppData\Local\Temp\cccLKoqN.debug.temp.o
                                0x36a (size before relaxing)
 .debug_str     0x000046ab      0x1a9 C:\Users\Ridwane\AppData\Local\Temp\ccqQ2iMF.debug.temp.o
                                0x7f3 (size before relaxing)
 .debug_str     0x00004854       0xf4 C:\Users\Ridwane\AppData\Local\Temp\ccEVkd8x.debug.temp.o
                                0x3dc (size before relaxing)
 .debug_str     0x00004948      0x16e C:\Users\Ridwane\AppData\Local\Temp\ccM31Udu.debug.temp.o
                                0x665 (size before relaxing)
 .debug_str     0x00004ab6       0xa8 C:\Users\Ridwane\AppData\Local\Temp\cceEa8eq.debug.temp.o
                                0x3e7 (size before relaxing)
 .debug_str     0x00004b5e       0xb2 C:\Users\Ridwane\AppData\Local\Temp\ccOU8tkm.debug.temp.o
                                0x4c1 (size before relaxing)
 .debug_str     0x00004c10      0x10a C:\Users\Ridwane\AppData\Local\Temp\ccob7Ppi.debug.temp.o
                                0x8d6 (size before relaxing)
 .debug_str     0x00004d1a       0x96 C:\Users\Ridwane\AppData\Local\Temp\ccQlUMIe.debug.temp.o
                                0x865 (size before relaxing)
 .debug_str     0x00004db0      0x2bb C:\Users\Ridwane\AppData\Local\Temp\ccYXASWa.debug.temp.o
                                0xb22 (size before relaxing)
 .debug_str     0x0000506b      0x207 C:\Users\Ridwane\AppData\Local\Temp\ccQl65o7.debug.temp.o
                                0xa5b (size before relaxing)
 .debug_str     0x00005272       0x8c C:\Users\Ridwane\AppData\Local\Temp\ccIJBjR3.debug.temp.o
                                0x7e3 (size before relaxing)
 .debug_str     0x000052fe      0x246 C:\Users\Ridwane\AppData\Local\Temp\ccqOnHe0.debug.temp.o
                                0xb60 (size before relaxing)
 .debug_str     0x00005544      0x106 C:\Users\Ridwane\AppData\Local\Temp\ccmgUaPW.debug.temp.o
                                0x916 (size before relaxing)
 .debug_str     0x0000564a      0x2ea C:\Users\Ridwane\AppData\Local\Temp\cco7vFlS.debug.temp.o
                                0xc23 (size before relaxing)
 .debug_str     0x00005934      0x13b C:\Users\Ridwane\AppData\Local\Temp\ccKIgpUN.debug.temp.o
                                0x308 (size before relaxing)
 .debug_str     0x00005a6f       0xeb C:\Users\Ridwane\AppData\Local\Temp\ccSWMzoJ.debug.temp.o
                                0x3fa (size before relaxing)
 .debug_str     0x00005b5a      0x1aa C:\Users\Ridwane\AppData\Local\Temp\ccU7ol6E.debug.temp.o
                                0x643 (size before relaxing)
 .debug_str     0x00005d04      0x10f C:\Users\Ridwane\AppData\Local\Temp\cc80MbJA.debug.temp.o
                                0x7f4 (size before relaxing)
 .debug_str     0x00005e13      0x175 C:\Users\Ridwane\AppData\Local\Temp\ccmUa2lw.debug.temp.o
                                0x9d6 (size before relaxing)
 .debug_str     0x00005f88      0x157 C:\Users\Ridwane\AppData\Local\Temp\ccKM3d5r.debug.temp.o
                                0x96a (size before relaxing)
 .debug_str     0x000060df       0xe3 C:\Users\Ridwane\AppData\Local\Temp\cc2rh7Rn.debug.temp.o
                                0x62b (size before relaxing)
 .debug_str     0x000061c2      0x149 C:\Users\Ridwane\AppData\Local\Temp\cck7u0Ej.debug.temp.o
                                0x5d6 (size before relaxing)
 .debug_str     0x0000630b      0x115 C:\Users\Ridwane\AppData\Local\Temp\cccLAAFf.debug.temp.o
                                0x830 (size before relaxing)
 .debug_str     0x00006420      0x27d C:\Users\Ridwane\AppData\Local\Temp\ccaYCeBb.debug.temp.o
                                0xc75 (size before relaxing)
 .debug_str     0x0000669d       0x50 C:\Users\Ridwane\AppData\Local\Temp\ccucy7y6.debug.temp.o
                                0x6bf (size before relaxing)
 .debug_str     0x000066ed       0x4d C:\Users\Ridwane\AppData\Local\Temp\ccYFp4wW.debug.temp.o
                                0x927 (size before relaxing)
 .debug_str     0x0000673a      0x580 C:\Users\Ridwane\AppData\Local\Temp\ccu65pyR.debug.temp.o
                                0x7bb (size before relaxing)
 .debug_str     0x00006cba      0x211 C:\Users\Ridwane\AppData\Local\Temp\ccKQowBM.debug.temp.o
                                0x542 (size before relaxing)
 .debug_str     0x00006ecb       0x91 C:\Users\Ridwane\AppData\Local\Temp\cc0AHCEH.debug.temp.o
                                0x46e (size before relaxing)
 .debug_str     0x00006f5c       0x6d C:\Users\Ridwane\AppData\Local\Temp\ccawVIOC.debug.temp.o
                                0x3b7 (size before relaxing)
 .debug_str     0x00006fc9      0x1da C:\Users\Ridwane\AppData\Local\Temp\cc6Tbp1x.debug.temp.o
                                0x625 (size before relaxing)
 .debug_str     0x000071a3        0x6 C:\Users\Ridwane\AppData\Local\Temp\cckpXTjt.debug.temp.o
                                0x372 (size before relaxing)
 .debug_str     0x000071a9       0x21 C:\Users\Ridwane\AppData\Local\Temp\ccE7SD0i.debug.temp.o
                                0x362 (size before relaxing)
 .debug_str     0x000071ca       0x16 C:\Users\Ridwane\AppData\Local\Temp\ccY1fGnd.debug.temp.o
                                0x358 (size before relaxing)
 .debug_str     0x000071e0      0x106 C:\Users\Ridwane\AppData\Local\Temp\ccqyQMF7.debug.temp.o
                                0x462 (size before relaxing)
 .debug_str     0x000072e6      0x16b C:\Users\Ridwane\AppData\Local\Temp\ccaCPxb2.debug.temp.o
                                0x340 (size before relaxing)
 .debug_str     0x00007451      0x48a c:/chibistudio/tools/gnu tools arm embedded/11.3 2022.08/bin/../lib/gcc/arm-none-eabi/11.3.1/thumb/v7e-m/nofp\libg_nano.a(libc_a-rand.o)
                                0x54a (size before relaxing)
 .debug_str     0x000078db       0x67 c:/chibistudio/tools/gnu tools arm embedded/11.3 2022.08/bin/../lib/gcc/arm-none-eabi/11.3.1/thumb/v7e-m/nofp\libg_nano.a(libc_a-impure.o)
                                0x526 (size before relaxing)
 .debug_str     0x00007942       0x7e c:/chibistudio/tools/gnu tools arm embedded/11.3 2022.08/bin/../lib/gcc/arm-none-eabi/11.3.1/thumb/v7e-m/nofp\libg_nano.a(libc_a-assert.o)
                                0x55f (size before relaxing)
 .debug_str     0x000079c0       0x79 c:/chibistudio/tools/gnu tools arm embedded/11.3 2022.08/bin/../lib/gcc/arm-none-eabi/11.3.1/thumb/v7e-m/nofp\libg_nano.a(libc_a-malloc.o)
                                0x54b (size before relaxing)
 .debug_str     0x00007a39      0x119 c:/chibistudio/tools/gnu tools arm embedded/11.3 2022.08/bin/../lib/gcc/arm-none-eabi/11.3.1/thumb/v7e-m/nofp\libg_nano.a(libc_a-mallocr.o)
                                0x607 (size before relaxing)
 .debug_str     0x00007b52       0xbe c:/chibistudio/tools/gnu tools arm embedded/11.3 2022.08/bin/../lib/gcc/arm-none-eabi/11.3.1/thumb/v7e-m/nofp\libg_nano.a(libc_a-mlock.o)
                                0x5a8 (size before relaxing)
 .debug_str     0x00007c10       0x90 c:/chibistudio/tools/gnu tools arm embedded/11.3 2022.08/bin/../lib/gcc/arm-none-eabi/11.3.1/thumb/v7e-m/nofp\libg_nano.a(libc_a-fprintf.o)
                                0x564 (size before relaxing)
 .debug_str     0x00007ca0      0x1f4 c:/chibistudio/tools/gnu tools arm embedded/11.3 2022.08/bin/../lib/gcc/arm-none-eabi/11.3.1/thumb/v7e-m/nofp\libg_nano.a(libc_a-lock.o)
                                0x379 (size before relaxing)
 .debug_str     0x00007e94       0x60 c:/chibistudio/tools/gnu tools arm embedded/11.3 2022.08/bin/../lib/gcc/arm-none-eabi/11.3.1/thumb/v7e-m/nofp\libg_nano.a(libc_a-abort.o)
                                0x209 (size before relaxing)
 .debug_str     0x00007ef4       0x7e c:/chibistudio/tools/gnu tools arm embedded/11.3 2022.08/bin/../lib/gcc/arm-none-eabi/11.3.1/thumb/v7e-m/nofp\libg_nano.a(libc_a-freer.o)
                                0x5a6 (size before relaxing)
 .debug_str     0x00007f72      0x2ca c:/chibistudio/tools/gnu tools arm embedded/11.3 2022.08/bin/../lib/gcc/arm-none-eabi/11.3.1/thumb/v7e-m/nofp\libg_nano.a(libc_a-nano-vfprintf.o)
                                0x8d7 (size before relaxing)
 .debug_str     0x0000823c       0xbb c:/chibistudio/tools/gnu tools arm embedded/11.3 2022.08/bin/../lib/gcc/arm-none-eabi/11.3.1/thumb/v7e-m/nofp\libg_nano.a(libc_a-nano-vfprintf_i.o)
                                0x805 (size before relaxing)
 .debug_str     0x000082f7      0x201 c:/chibistudio/tools/gnu tools arm embedded/11.3 2022.08/bin/../lib/gcc/arm-none-eabi/11.3.1/thumb/v7e-m/nofp\libg_nano.a(libc_a-findfp.o)
                                0x7a9 (size before relaxing)
 .debug_str     0x000084f8       0x59 c:/chibistudio/tools/gnu tools arm embedded/11.3 2022.08/bin/../lib/gcc/arm-none-eabi/11.3.1/thumb/v7e-m/nofp\libg_nano.a(libc_a-fwalk.o)
                                0x536 (size before relaxing)
 .debug_str     0x00008551       0x97 c:/chibistudio/tools/gnu tools arm embedded/11.3 2022.08/bin/../lib/gcc/arm-none-eabi/11.3.1/thumb/v7e-m/nofp\libg_nano.a(libc_a-stdio.o)
                                0x593 (size before relaxing)
 .debug_str     0x000085e8       0x60 c:/chibistudio/tools/gnu tools arm embedded/11.3 2022.08/bin/../lib/gcc/arm-none-eabi/11.3.1/thumb/v7e-m/nofp\libg_nano.a(libc_a-wbuf.o)
                                0x55c (size before relaxing)
 .debug_str     0x00008648       0x67 c:/chibistudio/tools/gnu tools arm embedded/11.3 2022.08/bin/../lib/gcc/arm-none-eabi/11.3.1/thumb/v7e-m/nofp\libg_nano.a(libc_a-wsetup.o)
                                0x557 (size before relaxing)
 .debug_str     0x000086af       0x7d c:/chibistudio/tools/gnu tools arm embedded/11.3 2022.08/bin/../lib/gcc/arm-none-eabi/11.3.1/thumb/v7e-m/nofp\libg_nano.a(libc_a-memmove.o)
                                0x221 (size before relaxing)
 .debug_str     0x0000872c       0x5b c:/chibistudio/tools/gnu tools arm embedded/11.3 2022.08/bin/../lib/gcc/arm-none-eabi/11.3.1/thumb/v7e-m/nofp\libg_nano.a(libc_a-memset.o)
                                0x206 (size before relaxing)
 .debug_str     0x00008787       0xc1 c:/chibistudio/tools/gnu tools arm embedded/11.3 2022.08/bin/../lib/gcc/arm-none-eabi/11.3.1/thumb/v7e-m/nofp\libg_nano.a(libc_a-signal.o)
                                0x5ad (size before relaxing)
 .debug_str     0x00008848       0x71 c:/chibistudio/tools/gnu tools arm embedded/11.3 2022.08/bin/../lib/gcc/arm-none-eabi/11.3.1/thumb/v7e-m/nofp\libg_nano.a(libc_a-signalr.o)
                                0x542 (size before relaxing)
 .debug_str     0x000088b9       0x60 c:/chibistudio/tools/gnu tools arm embedded/11.3 2022.08/bin/../lib/gcc/arm-none-eabi/11.3.1/thumb/v7e-m/nofp\libg_nano.a(libc_a-memchr.o)
                                 0xea (size before relaxing)
 .debug_str     0x00008919       0x79 c:/chibistudio/tools/gnu tools arm embedded/11.3 2022.08/bin/../lib/gcc/arm-none-eabi/11.3.1/thumb/v7e-m/nofp\libg_nano.a(libc_a-memcpy-stub.o)
                                0x224 (size before relaxing)
 .debug_str     0x00008992       0x7d c:/chibistudio/tools/gnu tools arm embedded/11.3 2022.08/bin/../lib/gcc/arm-none-eabi/11.3.1/thumb/v7e-m/nofp\libg_nano.a(libc_a-fflush.o)
                                0x5f1 (size before relaxing)
 .debug_str     0x00008a0f      0x189 c:/chibistudio/tools/gnu tools arm embedded/11.3 2022.08/bin/../lib/gcc/arm-none-eabi/11.3.1/thumb/v7e-m/nofp\libg_nano.a(libc_a-makebuf.o)
                                0x6b9 (size before relaxing)
 .debug_str     0x00008b98       0x78 c:/chibistudio/tools/gnu tools arm embedded/11.3 2022.08/bin/../lib/gcc/arm-none-eabi/11.3.1/thumb/v7e-m/nofp\libg_nano.a(libc_a-reent.o)
                                0x545 (size before relaxing)
 .debug_str     0x00008c10       0x5b c:/chibistudio/tools/gnu tools arm embedded/11.3 2022.08/bin/../lib/gcc/arm-none-eabi/11.3.1/thumb/v7e-m/nofp\libg_nano.a(libc_a-memcmp.o)
                                0x206 (size before relaxing)
 .debug_str     0x00008c6b       0x5c c:/chibistudio/tools/gnu tools arm embedded/11.3 2022.08/bin/../lib/gcc/arm-none-eabi/11.3.1/thumb/v7e-m/nofp\libg_nano.a(libc_a-strncmp.o)
                                0x208 (size before relaxing)
 .debug_str     0x00008cc7       0x69 c:/chibistudio/tools/gnu tools arm embedded/11.3 2022.08/bin/../lib/gcc/arm-none-eabi/11.3.1/thumb/v7e-m/nofp\libg_nano.a(libc_a-strcmp.o)
                                 0xf3 (size before relaxing)

.debug_loclists
                0x00000000    0x1d193
 .debug_loclists
                0x00000000    0x11901 C:\Users\Ridwane\AppData\Local\Temp\cck5XY5Q.ltrans0.ltrans.o
 .debug_loclists
                0x00011901     0x9b6f C:\Users\Ridwane\AppData\Local\Temp\cck5XY5Q.ltrans1.ltrans.o
 .debug_loclists
                0x0001b470       0x6c c:/chibistudio/tools/gnu tools arm embedded/11.3 2022.08/bin/../lib/gcc/arm-none-eabi/11.3.1/thumb/v7e-m/nofp\libg_nano.a(libc_a-rand.o)
 .debug_loclists
                0x0001b4dc       0xe6 c:/chibistudio/tools/gnu tools arm embedded/11.3 2022.08/bin/../lib/gcc/arm-none-eabi/11.3.1/thumb/v7e-m/nofp\libg_nano.a(libc_a-assert.o)
 .debug_loclists
                0x0001b5c2       0x48 c:/chibistudio/tools/gnu tools arm embedded/11.3 2022.08/bin/../lib/gcc/arm-none-eabi/11.3.1/thumb/v7e-m/nofp\libg_nano.a(libc_a-malloc.o)
 .debug_loclists
                0x0001b60a      0x254 c:/chibistudio/tools/gnu tools arm embedded/11.3 2022.08/bin/../lib/gcc/arm-none-eabi/11.3.1/thumb/v7e-m/nofp\libg_nano.a(libc_a-mallocr.o)
 .debug_loclists
                0x0001b85e       0x3a c:/chibistudio/tools/gnu tools arm embedded/11.3 2022.08/bin/../lib/gcc/arm-none-eabi/11.3.1/thumb/v7e-m/nofp\libg_nano.a(libc_a-mlock.o)
 .debug_loclists
                0x0001b898       0x6e c:/chibistudio/tools/gnu tools arm embedded/11.3 2022.08/bin/../lib/gcc/arm-none-eabi/11.3.1/thumb/v7e-m/nofp\libg_nano.a(libc_a-fprintf.o)
 .debug_loclists
                0x0001b906       0x23 c:/chibistudio/tools/gnu tools arm embedded/11.3 2022.08/bin/../lib/gcc/arm-none-eabi/11.3.1/thumb/v7e-m/nofp\libg_nano.a(libc_a-lock.o)
 .debug_loclists
                0x0001b929       0xd4 c:/chibistudio/tools/gnu tools arm embedded/11.3 2022.08/bin/../lib/gcc/arm-none-eabi/11.3.1/thumb/v7e-m/nofp\libg_nano.a(libc_a-freer.o)
 .debug_loclists
                0x0001b9fd      0x3d5 c:/chibistudio/tools/gnu tools arm embedded/11.3 2022.08/bin/../lib/gcc/arm-none-eabi/11.3.1/thumb/v7e-m/nofp\libg_nano.a(libc_a-nano-vfprintf.o)
 .debug_loclists
                0x0001bdd2      0x3fe c:/chibistudio/tools/gnu tools arm embedded/11.3 2022.08/bin/../lib/gcc/arm-none-eabi/11.3.1/thumb/v7e-m/nofp\libg_nano.a(libc_a-nano-vfprintf_i.o)
 .debug_loclists
                0x0001c1d0      0x237 c:/chibistudio/tools/gnu tools arm embedded/11.3 2022.08/bin/../lib/gcc/arm-none-eabi/11.3.1/thumb/v7e-m/nofp\libg_nano.a(libc_a-findfp.o)
 .debug_loclists
                0x0001c407       0x85 c:/chibistudio/tools/gnu tools arm embedded/11.3 2022.08/bin/../lib/gcc/arm-none-eabi/11.3.1/thumb/v7e-m/nofp\libg_nano.a(libc_a-fwalk.o)
 .debug_loclists
                0x0001c48c      0x203 c:/chibistudio/tools/gnu tools arm embedded/11.3 2022.08/bin/../lib/gcc/arm-none-eabi/11.3.1/thumb/v7e-m/nofp\libg_nano.a(libc_a-stdio.o)
 .debug_loclists
                0x0001c68f       0xe3 c:/chibistudio/tools/gnu tools arm embedded/11.3 2022.08/bin/../lib/gcc/arm-none-eabi/11.3.1/thumb/v7e-m/nofp\libg_nano.a(libc_a-wbuf.o)
 .debug_loclists
                0x0001c772       0x41 c:/chibistudio/tools/gnu tools arm embedded/11.3 2022.08/bin/../lib/gcc/arm-none-eabi/11.3.1/thumb/v7e-m/nofp\libg_nano.a(libc_a-wsetup.o)
 .debug_loclists
                0x0001c7b3      0x130 c:/chibistudio/tools/gnu tools arm embedded/11.3 2022.08/bin/../lib/gcc/arm-none-eabi/11.3.1/thumb/v7e-m/nofp\libg_nano.a(libc_a-memmove.o)
 .debug_loclists
                0x0001c8e3       0x47 c:/chibistudio/tools/gnu tools arm embedded/11.3 2022.08/bin/../lib/gcc/arm-none-eabi/11.3.1/thumb/v7e-m/nofp\libg_nano.a(libc_a-memset.o)
 .debug_loclists
                0x0001c92a      0x2a2 c:/chibistudio/tools/gnu tools arm embedded/11.3 2022.08/bin/../lib/gcc/arm-none-eabi/11.3.1/thumb/v7e-m/nofp\libg_nano.a(libc_a-signal.o)
 .debug_loclists
                0x0001cbcc       0x81 c:/chibistudio/tools/gnu tools arm embedded/11.3 2022.08/bin/../lib/gcc/arm-none-eabi/11.3.1/thumb/v7e-m/nofp\libg_nano.a(libc_a-signalr.o)
 .debug_loclists
                0x0001cc4d       0x8f c:/chibistudio/tools/gnu tools arm embedded/11.3 2022.08/bin/../lib/gcc/arm-none-eabi/11.3.1/thumb/v7e-m/nofp\libg_nano.a(libc_a-memcpy-stub.o)
 .debug_loclists
                0x0001ccdc      0x1ba c:/chibistudio/tools/gnu tools arm embedded/11.3 2022.08/bin/../lib/gcc/arm-none-eabi/11.3.1/thumb/v7e-m/nofp\libg_nano.a(libc_a-fflush.o)
 .debug_loclists
                0x0001ce96      0x11d c:/chibistudio/tools/gnu tools arm embedded/11.3 2022.08/bin/../lib/gcc/arm-none-eabi/11.3.1/thumb/v7e-m/nofp\libg_nano.a(libc_a-makebuf.o)
 .debug_loclists
                0x0001cfb3       0x7d c:/chibistudio/tools/gnu tools arm embedded/11.3 2022.08/bin/../lib/gcc/arm-none-eabi/11.3.1/thumb/v7e-m/nofp\libg_nano.a(libc_a-reent.o)
 .debug_loclists
                0x0001d030       0xa1 c:/chibistudio/tools/gnu tools arm embedded/11.3 2022.08/bin/../lib/gcc/arm-none-eabi/11.3.1/thumb/v7e-m/nofp\libg_nano.a(libc_a-memcmp.o)
 .debug_loclists
                0x0001d0d1       0xc2 c:/chibistudio/tools/gnu tools arm embedded/11.3 2022.08/bin/../lib/gcc/arm-none-eabi/11.3.1/thumb/v7e-m/nofp\libg_nano.a(libc_a-strncmp.o)

.debug_rnglists
                0x00000000     0x6dee
 .debug_rnglists
                0x00000000     0x4ab3 C:\Users\Ridwane\AppData\Local\Temp\cck5XY5Q.ltrans0.ltrans.o
 .debug_rnglists
                0x00004ab3     0x1f76 C:\Users\Ridwane\AppData\Local\Temp\cck5XY5Q.ltrans1.ltrans.o
 .debug_rnglists
                0x00006a29       0x25 c:/chibistudio/tools/gnu tools arm embedded/11.3 2022.08/bin/../lib/gcc/arm-none-eabi/11.3.1/thumb/v7e-m/nofp\libg_nano.a(libc_a-rand.o)
 .debug_rnglists
                0x00006a4e       0x19 c:/chibistudio/tools/gnu tools arm embedded/11.3 2022.08/bin/../lib/gcc/arm-none-eabi/11.3.1/thumb/v7e-m/nofp\libg_nano.a(libc_a-assert.o)
 .debug_rnglists
                0x00006a67       0x19 c:/chibistudio/tools/gnu tools arm embedded/11.3 2022.08/bin/../lib/gcc/arm-none-eabi/11.3.1/thumb/v7e-m/nofp\libg_nano.a(libc_a-malloc.o)
 .debug_rnglists
                0x00006a80       0x26 c:/chibistudio/tools/gnu tools arm embedded/11.3 2022.08/bin/../lib/gcc/arm-none-eabi/11.3.1/thumb/v7e-m/nofp\libg_nano.a(libc_a-mallocr.o)
 .debug_rnglists
                0x00006aa6       0x19 c:/chibistudio/tools/gnu tools arm embedded/11.3 2022.08/bin/../lib/gcc/arm-none-eabi/11.3.1/thumb/v7e-m/nofp\libg_nano.a(libc_a-mlock.o)
 .debug_rnglists
                0x00006abf       0x19 c:/chibistudio/tools/gnu tools arm embedded/11.3 2022.08/bin/../lib/gcc/arm-none-eabi/11.3.1/thumb/v7e-m/nofp\libg_nano.a(libc_a-fprintf.o)
 .debug_rnglists
                0x00006ad8       0x19 c:/chibistudio/tools/gnu tools arm embedded/11.3 2022.08/bin/../lib/gcc/arm-none-eabi/11.3.1/thumb/v7e-m/nofp\libg_nano.a(libc_a-lock.o)
 .debug_rnglists
                0x00006af1       0x13 c:/chibistudio/tools/gnu tools arm embedded/11.3 2022.08/bin/../lib/gcc/arm-none-eabi/11.3.1/thumb/v7e-m/nofp\libg_nano.a(libc_a-abort.o)
 .debug_rnglists
                0x00006b04       0x14 c:/chibistudio/tools/gnu tools arm embedded/11.3 2022.08/bin/../lib/gcc/arm-none-eabi/11.3.1/thumb/v7e-m/nofp\libg_nano.a(libc_a-freer.o)
 .debug_rnglists
                0x00006b18       0x38 c:/chibistudio/tools/gnu tools arm embedded/11.3 2022.08/bin/../lib/gcc/arm-none-eabi/11.3.1/thumb/v7e-m/nofp\libg_nano.a(libc_a-nano-vfprintf.o)
 .debug_rnglists
                0x00006b50       0x5c c:/chibistudio/tools/gnu tools arm embedded/11.3 2022.08/bin/../lib/gcc/arm-none-eabi/11.3.1/thumb/v7e-m/nofp\libg_nano.a(libc_a-nano-vfprintf_i.o)
 .debug_rnglists
                0x00006bac       0x7e c:/chibistudio/tools/gnu tools arm embedded/11.3 2022.08/bin/../lib/gcc/arm-none-eabi/11.3.1/thumb/v7e-m/nofp\libg_nano.a(libc_a-findfp.o)
 .debug_rnglists
                0x00006c2a       0x13 c:/chibistudio/tools/gnu tools arm embedded/11.3 2022.08/bin/../lib/gcc/arm-none-eabi/11.3.1/thumb/v7e-m/nofp\libg_nano.a(libc_a-fwalk.o)
 .debug_rnglists
                0x00006c3d       0x2b c:/chibistudio/tools/gnu tools arm embedded/11.3 2022.08/bin/../lib/gcc/arm-none-eabi/11.3.1/thumb/v7e-m/nofp\libg_nano.a(libc_a-stdio.o)
 .debug_rnglists
                0x00006c68       0x25 c:/chibistudio/tools/gnu tools arm embedded/11.3 2022.08/bin/../lib/gcc/arm-none-eabi/11.3.1/thumb/v7e-m/nofp\libg_nano.a(libc_a-wbuf.o)
 .debug_rnglists
                0x00006c8d       0x26 c:/chibistudio/tools/gnu tools arm embedded/11.3 2022.08/bin/../lib/gcc/arm-none-eabi/11.3.1/thumb/v7e-m/nofp\libg_nano.a(libc_a-wsetup.o)
 .debug_rnglists
                0x00006cb3       0x13 c:/chibistudio/tools/gnu tools arm embedded/11.3 2022.08/bin/../lib/gcc/arm-none-eabi/11.3.1/thumb/v7e-m/nofp\libg_nano.a(libc_a-memmove.o)
 .debug_rnglists
                0x00006cc6       0x13 c:/chibistudio/tools/gnu tools arm embedded/11.3 2022.08/bin/../lib/gcc/arm-none-eabi/11.3.1/thumb/v7e-m/nofp\libg_nano.a(libc_a-memset.o)
 .debug_rnglists
                0x00006cd9       0x49 c:/chibistudio/tools/gnu tools arm embedded/11.3 2022.08/bin/../lib/gcc/arm-none-eabi/11.3.1/thumb/v7e-m/nofp\libg_nano.a(libc_a-signal.o)
 .debug_rnglists
                0x00006d22       0x19 c:/chibistudio/tools/gnu tools arm embedded/11.3 2022.08/bin/../lib/gcc/arm-none-eabi/11.3.1/thumb/v7e-m/nofp\libg_nano.a(libc_a-signalr.o)
 .debug_rnglists
                0x00006d3b       0x13 c:/chibistudio/tools/gnu tools arm embedded/11.3 2022.08/bin/../lib/gcc/arm-none-eabi/11.3.1/thumb/v7e-m/nofp\libg_nano.a(libc_a-memcpy-stub.o)
 .debug_rnglists
                0x00006d4e       0x3b c:/chibistudio/tools/gnu tools arm embedded/11.3 2022.08/bin/../lib/gcc/arm-none-eabi/11.3.1/thumb/v7e-m/nofp\libg_nano.a(libc_a-fflush.o)
 .debug_rnglists
                0x00006d89       0x19 c:/chibistudio/tools/gnu tools arm embedded/11.3 2022.08/bin/../lib/gcc/arm-none-eabi/11.3.1/thumb/v7e-m/nofp\libg_nano.a(libc_a-makebuf.o)
 .debug_rnglists
                0x00006da2       0x26 c:/chibistudio/tools/gnu tools arm embedded/11.3 2022.08/bin/../lib/gcc/arm-none-eabi/11.3.1/thumb/v7e-m/nofp\libg_nano.a(libc_a-reent.o)
 .debug_rnglists
                0x00006dc8       0x13 c:/chibistudio/tools/gnu tools arm embedded/11.3 2022.08/bin/../lib/gcc/arm-none-eabi/11.3.1/thumb/v7e-m/nofp\libg_nano.a(libc_a-memcmp.o)
 .debug_rnglists
                0x00006ddb       0x13 c:/chibistudio/tools/gnu tools arm embedded/11.3 2022.08/bin/../lib/gcc/arm-none-eabi/11.3.1/thumb/v7e-m/nofp\libg_nano.a(libc_a-strncmp.o)

.debug_frame    0x00000000     0x2d14
 .debug_frame   0x00000000     0x1a40 C:\Users\Ridwane\AppData\Local\Temp\cck5XY5Q.ltrans0.ltrans.o
 .debug_frame   0x00001a40      0x9f0 C:\Users\Ridwane\AppData\Local\Temp\cck5XY5Q.ltrans1.ltrans.o
 .debug_frame   0x00002430       0x44 c:/chibistudio/tools/gnu tools arm embedded/11.3 2022.08/bin/../lib/gcc/arm-none-eabi/11.3.1/thumb/v7e-m/nofp\libg_nano.a(libc_a-rand.o)
 .debug_frame   0x00002474       0x40 c:/chibistudio/tools/gnu tools arm embedded/11.3 2022.08/bin/../lib/gcc/arm-none-eabi/11.3.1/thumb/v7e-m/nofp\libg_nano.a(libc_a-assert.o)
 .debug_frame   0x000024b4       0x30 c:/chibistudio/tools/gnu tools arm embedded/11.3 2022.08/bin/../lib/gcc/arm-none-eabi/11.3.1/thumb/v7e-m/nofp\libg_nano.a(libc_a-malloc.o)
 .debug_frame   0x000024e4       0x4c c:/chibistudio/tools/gnu tools arm embedded/11.3 2022.08/bin/../lib/gcc/arm-none-eabi/11.3.1/thumb/v7e-m/nofp\libg_nano.a(libc_a-mallocr.o)
 .debug_frame   0x00002530       0x30 c:/chibistudio/tools/gnu tools arm embedded/11.3 2022.08/bin/../lib/gcc/arm-none-eabi/11.3.1/thumb/v7e-m/nofp\libg_nano.a(libc_a-mlock.o)
 .debug_frame   0x00002560       0x64 c:/chibistudio/tools/gnu tools arm embedded/11.3 2022.08/bin/../lib/gcc/arm-none-eabi/11.3.1/thumb/v7e-m/nofp\libg_nano.a(libc_a-fprintf.o)
 .debug_frame   0x000025c4       0xb0 c:/chibistudio/tools/gnu tools arm embedded/11.3 2022.08/bin/../lib/gcc/arm-none-eabi/11.3.1/thumb/v7e-m/nofp\libg_nano.a(libc_a-lock.o)
 .debug_frame   0x00002674       0x28 c:/chibistudio/tools/gnu tools arm embedded/11.3 2022.08/bin/../lib/gcc/arm-none-eabi/11.3.1/thumb/v7e-m/nofp\libg_nano.a(libc_a-abort.o)
 .debug_frame   0x0000269c       0x38 c:/chibistudio/tools/gnu tools arm embedded/11.3 2022.08/bin/../lib/gcc/arm-none-eabi/11.3.1/thumb/v7e-m/nofp\libg_nano.a(libc_a-freer.o)
 .debug_frame   0x000026d4       0xa8 c:/chibistudio/tools/gnu tools arm embedded/11.3 2022.08/bin/../lib/gcc/arm-none-eabi/11.3.1/thumb/v7e-m/nofp\libg_nano.a(libc_a-nano-vfprintf.o)
 .debug_frame   0x0000277c       0x60 c:/chibistudio/tools/gnu tools arm embedded/11.3 2022.08/bin/../lib/gcc/arm-none-eabi/11.3.1/thumb/v7e-m/nofp\libg_nano.a(libc_a-nano-vfprintf_i.o)
 .debug_frame   0x000027dc      0x13c c:/chibistudio/tools/gnu tools arm embedded/11.3 2022.08/bin/../lib/gcc/arm-none-eabi/11.3.1/thumb/v7e-m/nofp\libg_nano.a(libc_a-findfp.o)
 .debug_frame   0x00002918       0x34 c:/chibistudio/tools/gnu tools arm embedded/11.3 2022.08/bin/../lib/gcc/arm-none-eabi/11.3.1/thumb/v7e-m/nofp\libg_nano.a(libc_a-fwalk.o)
 .debug_frame   0x0000294c       0x88 c:/chibistudio/tools/gnu tools arm embedded/11.3 2022.08/bin/../lib/gcc/arm-none-eabi/11.3.1/thumb/v7e-m/nofp\libg_nano.a(libc_a-stdio.o)
 .debug_frame   0x000029d4       0x40 c:/chibistudio/tools/gnu tools arm embedded/11.3 2022.08/bin/../lib/gcc/arm-none-eabi/11.3.1/thumb/v7e-m/nofp\libg_nano.a(libc_a-wbuf.o)
 .debug_frame   0x00002a14       0x2c c:/chibistudio/tools/gnu tools arm embedded/11.3 2022.08/bin/../lib/gcc/arm-none-eabi/11.3.1/thumb/v7e-m/nofp\libg_nano.a(libc_a-wsetup.o)
 .debug_frame   0x00002a40       0x28 c:/chibistudio/tools/gnu tools arm embedded/11.3 2022.08/bin/../lib/gcc/arm-none-eabi/11.3.1/thumb/v7e-m/nofp\libg_nano.a(libc_a-memmove.o)
 .debug_frame   0x00002a68       0x20 c:/chibistudio/tools/gnu tools arm embedded/11.3 2022.08/bin/../lib/gcc/arm-none-eabi/11.3.1/thumb/v7e-m/nofp\libg_nano.a(libc_a-memset.o)
 .debug_frame   0x00002a88       0xcc c:/chibistudio/tools/gnu tools arm embedded/11.3 2022.08/bin/../lib/gcc/arm-none-eabi/11.3.1/thumb/v7e-m/nofp\libg_nano.a(libc_a-signal.o)
 .debug_frame   0x00002b54       0x3c c:/chibistudio/tools/gnu tools arm embedded/11.3 2022.08/bin/../lib/gcc/arm-none-eabi/11.3.1/thumb/v7e-m/nofp\libg_nano.a(libc_a-signalr.o)
 .debug_frame   0x00002b90       0x28 c:/chibistudio/tools/gnu tools arm embedded/11.3 2022.08/bin/../lib/gcc/arm-none-eabi/11.3.1/thumb/v7e-m/nofp\libg_nano.a(libc_a-memcpy-stub.o)
 .debug_frame   0x00002bb8       0x5c c:/chibistudio/tools/gnu tools arm embedded/11.3 2022.08/bin/../lib/gcc/arm-none-eabi/11.3.1/thumb/v7e-m/nofp\libg_nano.a(libc_a-fflush.o)
 .debug_frame   0x00002c14       0x58 c:/chibistudio/tools/gnu tools arm embedded/11.3 2022.08/bin/../lib/gcc/arm-none-eabi/11.3.1/thumb/v7e-m/nofp\libg_nano.a(libc_a-makebuf.o)
 .debug_frame   0x00002c6c       0x38 c:/chibistudio/tools/gnu tools arm embedded/11.3 2022.08/bin/../lib/gcc/arm-none-eabi/11.3.1/thumb/v7e-m/nofp\libg_nano.a(libc_a-reent.o)
 .debug_frame   0x00002ca4       0x28 c:/chibistudio/tools/gnu tools arm embedded/11.3 2022.08/bin/../lib/gcc/arm-none-eabi/11.3.1/thumb/v7e-m/nofp\libg_nano.a(libc_a-memcmp.o)
 .debug_frame   0x00002ccc       0x28 c:/chibistudio/tools/gnu tools arm embedded/11.3 2022.08/bin/../lib/gcc/arm-none-eabi/11.3.1/thumb/v7e-m/nofp\libg_nano.a(libc_a-strncmp.o)
 .debug_frame   0x00002cf4       0x20 c:/chibistudio/tools/gnu tools arm embedded/11.3 2022.08/bin/../lib/gcc/arm-none-eabi/11.3.1/thumb/v7e-m/nofp\libg_nano.a(libc_a-strcmp.o)

Cross Reference Table

Symbol                                            File
AES256_CTR_DRBG_Update                            ./build/obj/katrng.o (symbol from plugin)
AES256_ECB                                        ./build/obj/katrng.o (symbol from plugin)
BusFault_Handler                                  ./build/obj/vectors.o
DRBG_ctx                                          ./build/obj/katrng.o (symbol from plugin)
DebugMon_Handler                                  ./build/obj/vectors.o
HardFault_Handler                                 ./build/obj/vectors.o
MemManage_Handler                                 ./build/obj/vectors.o
NMI_Handler                                       ./build/obj/vectors.o
PendSV_Handler                                    ./build/obj/vectors.o
Reset_Handler                                     ./build/obj/vectors.o
SD1                                               C:\Users\Ridwane\AppData\Local\Temp\cck5XY5Q.ltrans0.ltrans.o
                                                  ./build/obj/hal_serial_lld.o (symbol from plugin)
                                                  C:\Users\Ridwane\AppData\Local\Temp\cck5XY5Q.ltrans1.ltrans.o
                                                  ./build/obj/main.o (symbol from plugin)
                                                  ./build/obj/stm32_isr.o (symbol from plugin)
SD2                                               C:\Users\Ridwane\AppData\Local\Temp\cck5XY5Q.ltrans0.ltrans.o
                                                  ./build/obj/hal_serial_lld.o (symbol from plugin)
                                                  C:\Users\Ridwane\AppData\Local\Temp\cck5XY5Q.ltrans1.ltrans.o
                                                  ./build/obj/main.o (symbol from plugin)
                                                  ./build/obj/stm32_isr.o (symbol from plugin)
SVC_Handler                                       C:\Users\Ridwane\AppData\Local\Temp\cck5XY5Q.ltrans0.ltrans.o
                                                  ./build/obj/chcore.o (symbol from plugin)
                                                  ./build/obj/vectors.o
SecureFault_Handler                               ./build/obj/vectors.o
SysTick_Handler                                   ./build/obj/vectors.o
SystemCoreClock                                   ./build/obj/hal_lld.o (symbol from plugin)
UsageFault_Handler                                ./build/obj/vectors.o
Vector100                                         ./build/obj/vectors.o
Vector104                                         ./build/obj/vectors.o
Vector108                                         ./build/obj/vectors.o
Vector10C                                         ./build/obj/vectors.o
Vector110                                         ./build/obj/vectors.o
Vector114                                         ./build/obj/vectors.o
Vector118                                         ./build/obj/vectors.o
Vector11C                                         ./build/obj/vectors.o
Vector120                                         ./build/obj/vectors.o
Vector124                                         ./build/obj/vectors.o
Vector128                                         ./build/obj/vectors.o
Vector12C                                         ./build/obj/vectors.o
Vector130                                         ./build/obj/vectors.o
Vector134                                         ./build/obj/vectors.o
Vector138                                         ./build/obj/vectors.o
Vector13C                                         ./build/obj/vectors.o
Vector140                                         ./build/obj/vectors.o
Vector144                                         ./build/obj/vectors.o
Vector148                                         ./build/obj/vectors.o
Vector14C                                         ./build/obj/vectors.o
Vector150                                         ./build/obj/vectors.o
Vector154                                         ./build/obj/vectors.o
Vector158                                         ./build/obj/vectors.o
Vector15C                                         ./build/obj/vectors.o
Vector160                                         ./build/obj/vectors.o
Vector164                                         ./build/obj/vectors.o
Vector168                                         ./build/obj/vectors.o
Vector16C                                         ./build/obj/vectors.o
Vector170                                         ./build/obj/vectors.o
Vector174                                         ./build/obj/vectors.o
Vector178                                         ./build/obj/vectors.o
Vector17C                                         ./build/obj/vectors.o
Vector180                                         ./build/obj/vectors.o
Vector184                                         ./build/obj/vectors.o
Vector188                                         ./build/obj/vectors.o
Vector18C                                         ./build/obj/vectors.o
Vector190                                         ./build/obj/vectors.o
Vector194                                         ./build/obj/vectors.o
Vector198                                         ./build/obj/vectors.o
Vector19C                                         ./build/obj/vectors.o
Vector1A0                                         ./build/obj/vectors.o
Vector1A4                                         ./build/obj/vectors.o
Vector1A8                                         ./build/obj/vectors.o
Vector1AC                                         ./build/obj/vectors.o
Vector1B0                                         ./build/obj/vectors.o
Vector1B4                                         ./build/obj/vectors.o
Vector1B8                                         ./build/obj/vectors.o
Vector1BC                                         ./build/obj/vectors.o
Vector1C0                                         ./build/obj/vectors.o
Vector1C4                                         ./build/obj/vectors.o
Vector1C8                                         ./build/obj/vectors.o
Vector1CC                                         ./build/obj/vectors.o
Vector1D0                                         ./build/obj/vectors.o
Vector1D4                                         ./build/obj/vectors.o
Vector1D8                                         ./build/obj/vectors.o
Vector1DC                                         ./build/obj/vectors.o
Vector20                                          ./build/obj/vectors.o
Vector24                                          ./build/obj/vectors.o
Vector28                                          ./build/obj/vectors.o
Vector34                                          ./build/obj/vectors.o
Vector40                                          ./build/obj/vectors.o
Vector44                                          ./build/obj/vectors.o
Vector48                                          ./build/obj/vectors.o
Vector4C                                          ./build/obj/vectors.o
Vector50                                          ./build/obj/vectors.o
Vector54                                          ./build/obj/vectors.o
Vector58                                          ./build/obj/vectors.o
Vector5C                                          ./build/obj/vectors.o
Vector60                                          ./build/obj/vectors.o
Vector64                                          ./build/obj/vectors.o
Vector68                                          ./build/obj/vectors.o
Vector6C                                          ./build/obj/vectors.o
Vector70                                          ./build/obj/vectors.o
Vector74                                          ./build/obj/vectors.o
Vector78                                          ./build/obj/vectors.o
Vector7C                                          ./build/obj/vectors.o
Vector80                                          ./build/obj/vectors.o
Vector84                                          ./build/obj/vectors.o
Vector88                                          ./build/obj/vectors.o
Vector8C                                          ./build/obj/vectors.o
Vector90                                          ./build/obj/vectors.o
Vector94                                          ./build/obj/vectors.o
Vector98                                          ./build/obj/vectors.o
Vector9C                                          ./build/obj/vectors.o
VectorA0                                          ./build/obj/vectors.o
VectorA4                                          ./build/obj/vectors.o
VectorA8                                          ./build/obj/vectors.o
VectorAC                                          ./build/obj/vectors.o
VectorB0                                          C:\Users\Ridwane\AppData\Local\Temp\cck5XY5Q.ltrans0.ltrans.o
                                                  ./build/obj/stm32_isr.o (symbol from plugin)
                                                  ./build/obj/vectors.o
VectorB4                                          ./build/obj/vectors.o
VectorB8                                          ./build/obj/vectors.o
VectorBC                                          ./build/obj/vectors.o
VectorC0                                          ./build/obj/vectors.o
VectorC4                                          ./build/obj/vectors.o
VectorC8                                          ./build/obj/vectors.o
VectorCC                                          ./build/obj/vectors.o
VectorD0                                          ./build/obj/vectors.o
VectorD4                                          C:\Users\Ridwane\AppData\Local\Temp\cck5XY5Q.ltrans0.ltrans.o
                                                  ./build/obj/stm32_isr.o (symbol from plugin)
                                                  ./build/obj/vectors.o
VectorD8                                          C:\Users\Ridwane\AppData\Local\Temp\cck5XY5Q.ltrans0.ltrans.o
                                                  ./build/obj/stm32_isr.o (symbol from plugin)
                                                  ./build/obj/vectors.o
VectorDC                                          ./build/obj/vectors.o
VectorE0                                          ./build/obj/vectors.o
VectorE4                                          ./build/obj/vectors.o
VectorE8                                          ./build/obj/vectors.o
VectorEC                                          ./build/obj/vectors.o
VectorF0                                          ./build/obj/vectors.o
VectorF4                                          ./build/obj/vectors.o
VectorF8                                          ./build/obj/vectors.o
VectorFC                                          ./build/obj/vectors.o
__assert                                          c:/chibistudio/tools/gnu tools arm embedded/11.3 2022.08/bin/../lib/gcc/arm-none-eabi/11.3.1/thumb/v7e-m/nofp\libg_nano.a(libc_a-assert.o)
__assert_func                                     c:/chibistudio/tools/gnu tools arm embedded/11.3 2022.08/bin/../lib/gcc/arm-none-eabi/11.3.1/thumb/v7e-m/nofp\libg_nano.a(libc_a-assert.o)
                                                  c:/chibistudio/tools/gnu tools arm embedded/11.3 2022.08/bin/../lib/gcc/arm-none-eabi/11.3.1/thumb/v7e-m/nofp\libg_nano.a(libc_a-rand.o)
__bss_base__                                      C:\Users\Ridwane\AppData\Local\Temp\cck5XY5Q.ltrans1.ltrans.o
                                                  ./build/obj/ch_test.o (symbol from plugin)
                                                  ./build/obj/crt0_v7m.o
__bss_end__                                       C:\Users\Ridwane\AppData\Local\Temp\cck5XY5Q.ltrans1.ltrans.o
                                                  ./build/obj/ch_test.o (symbol from plugin)
                                                  ./build/obj/crt0_v7m.o
__ch_delegate_fn0                                 ./build/obj/chdelegates.o (symbol from plugin)
                                                  ./build/obj/oslib_test_sequence_005.o (symbol from plugin)
__ch_delegate_fn1                                 ./build/obj/chdelegates.o (symbol from plugin)
                                                  ./build/obj/oslib_test_sequence_005.o (symbol from plugin)
__ch_delegate_fn2                                 ./build/obj/chdelegates.o (symbol from plugin)
                                                  ./build/obj/oslib_test_sequence_005.o (symbol from plugin)
__ch_delegate_fn3                                 ./build/obj/chdelegates.o (symbol from plugin)
                                                  ./build/obj/oslib_test_sequence_005.o (symbol from plugin)
__ch_delegate_fn4                                 ./build/obj/chdelegates.o (symbol from plugin)
                                                  ./build/obj/oslib_test_sequence_005.o (symbol from plugin)
__core_init                                       ./build/obj/chmemcore.o (symbol from plugin)
                                                  ./build/obj/chsys.o (symbol from plugin)
__cpu_init                                        C:\Users\Ridwane\AppData\Local\Temp\cck5XY5Q.ltrans0.ltrans.o
                                                  ./build/obj/crt1.o (symbol from plugin)
                                                  ./build/obj/crt0_v7m.o
__cxa_pure_virtual                                ./build/obj/syscalls.o (symbol from plugin)
__data_base__                                     C:\Users\Ridwane\AppData\Local\Temp\cck5XY5Q.ltrans1.ltrans.o
                                                  ./build/obj/ch_test.o (symbol from plugin)
                                                  ./build/obj/crt0_v7m.o
__data_end__                                      C:\Users\Ridwane\AppData\Local\Temp\cck5XY5Q.ltrans1.ltrans.o
                                                  ./build/obj/ch_test.o (symbol from plugin)
                                                  ./build/obj/crt0_v7m.o
__default_exit                                    C:\Users\Ridwane\AppData\Local\Temp\cck5XY5Q.ltrans0.ltrans.o
                                                  ./build/obj/crt1.o (symbol from plugin)
                                                  ./build/obj/crt0_v7m.o
__early_init                                      C:\Users\Ridwane\AppData\Local\Temp\cck5XY5Q.ltrans0.ltrans.o
                                                  ./build/obj/board.o (symbol from plugin)
                                                  ./build/obj/crt1.o (symbol from plugin)
                                                  ./build/obj/crt0_v7m.o
__factory_init                                    ./build/obj/chfactory.o (symbol from plugin)
                                                  ./build/obj/chsys.o (symbol from plugin)
__fini_array_base__                               ./build/obj/crt0_v7m.o
__fini_array_end__                                ./build/obj/crt0_v7m.o
__fp_lock_all                                     c:/chibistudio/tools/gnu tools arm embedded/11.3 2022.08/bin/../lib/gcc/arm-none-eabi/11.3.1/thumb/v7e-m/nofp\libg_nano.a(libc_a-findfp.o)
__fp_unlock_all                                   c:/chibistudio/tools/gnu tools arm embedded/11.3 2022.08/bin/../lib/gcc/arm-none-eabi/11.3.1/thumb/v7e-m/nofp\libg_nano.a(libc_a-findfp.o)
__heap_base__                                     C:\Users\Ridwane\AppData\Local\Temp\cck5XY5Q.ltrans1.ltrans.o
                                                  ./build/obj/chmemcore.o (symbol from plugin)
__heap_end__                                      C:\Users\Ridwane\AppData\Local\Temp\cck5XY5Q.ltrans1.ltrans.o
                                                  ./build/obj/chmemcore.o (symbol from plugin)
__heap_init                                       ./build/obj/chmemheaps.o (symbol from plugin)
                                                  ./build/obj/chsys.o (symbol from plugin)
__idle_thread.lto_priv.0                          C:\Users\Ridwane\AppData\Local\Temp\cck5XY5Q.ltrans0.ltrans.o
                                                  C:\Users\Ridwane\AppData\Local\Temp\cck5XY5Q.ltrans1.ltrans.o
__init_array_base__                               ./build/obj/crt0_v7m.o
__init_array_end__                                ./build/obj/crt0_v7m.o
__init_ram_areas                                  C:\Users\Ridwane\AppData\Local\Temp\cck5XY5Q.ltrans0.ltrans.o
                                                  ./build/obj/crt1.o (symbol from plugin)
                                                  ./build/obj/crt0_v7m.o
__late_init                                       C:\Users\Ridwane\AppData\Local\Temp\cck5XY5Q.ltrans0.ltrans.o
                                                  ./build/obj/crt1.o (symbol from plugin)
                                                  ./build/obj/crt0_v7m.o
__lock___arc4random_mutex                         c:/chibistudio/tools/gnu tools arm embedded/11.3 2022.08/bin/../lib/gcc/arm-none-eabi/11.3.1/thumb/v7e-m/nofp\libg_nano.a(libc_a-lock.o)
__lock___at_quick_exit_mutex                      c:/chibistudio/tools/gnu tools arm embedded/11.3 2022.08/bin/../lib/gcc/arm-none-eabi/11.3.1/thumb/v7e-m/nofp\libg_nano.a(libc_a-lock.o)
__lock___atexit_recursive_mutex                   c:/chibistudio/tools/gnu tools arm embedded/11.3 2022.08/bin/../lib/gcc/arm-none-eabi/11.3.1/thumb/v7e-m/nofp\libg_nano.a(libc_a-lock.o)
__lock___dd_hash_mutex                            c:/chibistudio/tools/gnu tools arm embedded/11.3 2022.08/bin/../lib/gcc/arm-none-eabi/11.3.1/thumb/v7e-m/nofp\libg_nano.a(libc_a-lock.o)
__lock___env_recursive_mutex                      c:/chibistudio/tools/gnu tools arm embedded/11.3 2022.08/bin/../lib/gcc/arm-none-eabi/11.3.1/thumb/v7e-m/nofp\libg_nano.a(libc_a-lock.o)
__lock___malloc_recursive_mutex                   c:/chibistudio/tools/gnu tools arm embedded/11.3 2022.08/bin/../lib/gcc/arm-none-eabi/11.3.1/thumb/v7e-m/nofp\libg_nano.a(libc_a-lock.o)
                                                  c:/chibistudio/tools/gnu tools arm embedded/11.3 2022.08/bin/../lib/gcc/arm-none-eabi/11.3.1/thumb/v7e-m/nofp\libg_nano.a(libc_a-mlock.o)
__lock___sfp_recursive_mutex                      c:/chibistudio/tools/gnu tools arm embedded/11.3 2022.08/bin/../lib/gcc/arm-none-eabi/11.3.1/thumb/v7e-m/nofp\libg_nano.a(libc_a-lock.o)
                                                  c:/chibistudio/tools/gnu tools arm embedded/11.3 2022.08/bin/../lib/gcc/arm-none-eabi/11.3.1/thumb/v7e-m/nofp\libg_nano.a(libc_a-findfp.o)
__lock___tz_mutex                                 c:/chibistudio/tools/gnu tools arm embedded/11.3 2022.08/bin/../lib/gcc/arm-none-eabi/11.3.1/thumb/v7e-m/nofp\libg_nano.a(libc_a-lock.o)
__main_stack_base__                               ./build/obj/crt0_v7m.o
__main_stack_end__                                ./build/obj/vectors.o
                                                  ./build/obj/crt0_v7m.o
__malloc_free_list                                c:/chibistudio/tools/gnu tools arm embedded/11.3 2022.08/bin/../lib/gcc/arm-none-eabi/11.3.1/thumb/v7e-m/nofp\libg_nano.a(libc_a-mallocr.o)
                                                  c:/chibistudio/tools/gnu tools arm embedded/11.3 2022.08/bin/../lib/gcc/arm-none-eabi/11.3.1/thumb/v7e-m/nofp\libg_nano.a(libc_a-freer.o)
__malloc_lock                                     c:/chibistudio/tools/gnu tools arm embedded/11.3 2022.08/bin/../lib/gcc/arm-none-eabi/11.3.1/thumb/v7e-m/nofp\libg_nano.a(libc_a-mlock.o)
                                                  c:/chibistudio/tools/gnu tools arm embedded/11.3 2022.08/bin/../lib/gcc/arm-none-eabi/11.3.1/thumb/v7e-m/nofp\libg_nano.a(libc_a-freer.o)
                                                  c:/chibistudio/tools/gnu tools arm embedded/11.3 2022.08/bin/../lib/gcc/arm-none-eabi/11.3.1/thumb/v7e-m/nofp\libg_nano.a(libc_a-mallocr.o)
__malloc_sbrk_start                               c:/chibistudio/tools/gnu tools arm embedded/11.3 2022.08/bin/../lib/gcc/arm-none-eabi/11.3.1/thumb/v7e-m/nofp\libg_nano.a(libc_a-mallocr.o)
__malloc_unlock                                   c:/chibistudio/tools/gnu tools arm embedded/11.3 2022.08/bin/../lib/gcc/arm-none-eabi/11.3.1/thumb/v7e-m/nofp\libg_nano.a(libc_a-mlock.o)
                                                  c:/chibistudio/tools/gnu tools arm embedded/11.3 2022.08/bin/../lib/gcc/arm-none-eabi/11.3.1/thumb/v7e-m/nofp\libg_nano.a(libc_a-freer.o)
                                                  c:/chibistudio/tools/gnu tools arm embedded/11.3 2022.08/bin/../lib/gcc/arm-none-eabi/11.3.1/thumb/v7e-m/nofp\libg_nano.a(libc_a-mallocr.o)
__port_exit_from_isr                              ./build/obj/chcoreasm.o
                                                  C:\Users\Ridwane\AppData\Local\Temp\cck5XY5Q.ltrans0.ltrans.o
                                                  ./build/obj/chcore.o (symbol from plugin)
__port_irq_epilogue                               ./build/obj/chcore.o (symbol from plugin)
                                                  ./build/obj/stm32_isr.o (symbol from plugin)
__port_switch                                     ./build/obj/chcoreasm.o
                                                  C:\Users\Ridwane\AppData\Local\Temp\cck5XY5Q.ltrans1.ltrans.o
                                                  C:\Users\Ridwane\AppData\Local\Temp\cck5XY5Q.ltrans0.ltrans.o
                                                  ./build/obj/chschd.o (symbol from plugin)
__port_switch_from_isr                            ./build/obj/chcoreasm.o
                                                  C:\Users\Ridwane\AppData\Local\Temp\cck5XY5Q.ltrans0.ltrans.o
                                                  ./build/obj/chcore.o (symbol from plugin)
__port_thread_start                               ./build/obj/chcoreasm.o
                                                  C:\Users\Ridwane\AppData\Local\Temp\cck5XY5Q.ltrans0.ltrans.o
                                                  ./build/obj/chthreads.o (symbol from plugin)
__process_stack_base__                            ./build/obj/crt0_v7m.o
__process_stack_end__                             ./build/obj/crt0_v7m.o
__ram0_clear__                                    C:\Users\Ridwane\AppData\Local\Temp\cck5XY5Q.ltrans0.ltrans.o
                                                  ./build/obj/crt1.o (symbol from plugin)
__ram0_init__                                     C:\Users\Ridwane\AppData\Local\Temp\cck5XY5Q.ltrans0.ltrans.o
                                                  ./build/obj/crt1.o (symbol from plugin)
__ram0_init_text__                                C:\Users\Ridwane\AppData\Local\Temp\cck5XY5Q.ltrans0.ltrans.o
                                                  ./build/obj/crt1.o (symbol from plugin)
__ram0_noinit__                                   C:\Users\Ridwane\AppData\Local\Temp\cck5XY5Q.ltrans0.ltrans.o
                                                  ./build/obj/crt1.o (symbol from plugin)
__ram1_clear__                                    C:\Users\Ridwane\AppData\Local\Temp\cck5XY5Q.ltrans0.ltrans.o
                                                  ./build/obj/crt1.o (symbol from plugin)
__ram1_init__                                     C:\Users\Ridwane\AppData\Local\Temp\cck5XY5Q.ltrans0.ltrans.o
                                                  ./build/obj/crt1.o (symbol from plugin)
__ram1_init_text__                                C:\Users\Ridwane\AppData\Local\Temp\cck5XY5Q.ltrans0.ltrans.o
                                                  ./build/obj/crt1.o (symbol from plugin)
__ram1_noinit__                                   C:\Users\Ridwane\AppData\Local\Temp\cck5XY5Q.ltrans0.ltrans.o
                                                  ./build/obj/crt1.o (symbol from plugin)
__ram2_clear__                                    C:\Users\Ridwane\AppData\Local\Temp\cck5XY5Q.ltrans0.ltrans.o
                                                  ./build/obj/crt1.o (symbol from plugin)
__ram2_init__                                     C:\Users\Ridwane\AppData\Local\Temp\cck5XY5Q.ltrans0.ltrans.o
                                                  ./build/obj/crt1.o (symbol from plugin)
__ram2_init_text__                                C:\Users\Ridwane\AppData\Local\Temp\cck5XY5Q.ltrans0.ltrans.o
                                                  ./build/obj/crt1.o (symbol from plugin)
__ram2_noinit__                                   C:\Users\Ridwane\AppData\Local\Temp\cck5XY5Q.ltrans0.ltrans.o
                                                  ./build/obj/crt1.o (symbol from plugin)
__ram3_clear__                                    C:\Users\Ridwane\AppData\Local\Temp\cck5XY5Q.ltrans0.ltrans.o
                                                  ./build/obj/crt1.o (symbol from plugin)
__ram3_init__                                     C:\Users\Ridwane\AppData\Local\Temp\cck5XY5Q.ltrans0.ltrans.o
                                                  ./build/obj/crt1.o (symbol from plugin)
__ram3_init_text__                                C:\Users\Ridwane\AppData\Local\Temp\cck5XY5Q.ltrans0.ltrans.o
                                                  ./build/obj/crt1.o (symbol from plugin)
__ram3_noinit__                                   C:\Users\Ridwane\AppData\Local\Temp\cck5XY5Q.ltrans0.ltrans.o
                                                  ./build/obj/crt1.o (symbol from plugin)
__ram4_clear__                                    C:\Users\Ridwane\AppData\Local\Temp\cck5XY5Q.ltrans0.ltrans.o
                                                  ./build/obj/crt1.o (symbol from plugin)
__ram4_init__                                     C:\Users\Ridwane\AppData\Local\Temp\cck5XY5Q.ltrans0.ltrans.o
                                                  ./build/obj/crt1.o (symbol from plugin)
__ram4_init_text__                                C:\Users\Ridwane\AppData\Local\Temp\cck5XY5Q.ltrans0.ltrans.o
                                                  ./build/obj/crt1.o (symbol from plugin)
__ram4_noinit__                                   C:\Users\Ridwane\AppData\Local\Temp\cck5XY5Q.ltrans0.ltrans.o
                                                  ./build/obj/crt1.o (symbol from plugin)
__ram5_clear__                                    C:\Users\Ridwane\AppData\Local\Temp\cck5XY5Q.ltrans0.ltrans.o
                                                  ./build/obj/crt1.o (symbol from plugin)
__ram5_init__                                     C:\Users\Ridwane\AppData\Local\Temp\cck5XY5Q.ltrans0.ltrans.o
                                                  ./build/obj/crt1.o (symbol from plugin)
__ram5_init_text__                                C:\Users\Ridwane\AppData\Local\Temp\cck5XY5Q.ltrans0.ltrans.o
                                                  ./build/obj/crt1.o (symbol from plugin)
__ram5_noinit__                                   C:\Users\Ridwane\AppData\Local\Temp\cck5XY5Q.ltrans0.ltrans.o
                                                  ./build/obj/crt1.o (symbol from plugin)
__ram6_clear__                                    C:\Users\Ridwane\AppData\Local\Temp\cck5XY5Q.ltrans0.ltrans.o
                                                  ./build/obj/crt1.o (symbol from plugin)
__ram6_init__                                     C:\Users\Ridwane\AppData\Local\Temp\cck5XY5Q.ltrans0.ltrans.o
                                                  ./build/obj/crt1.o (symbol from plugin)
__ram6_init_text__                                C:\Users\Ridwane\AppData\Local\Temp\cck5XY5Q.ltrans0.ltrans.o
                                                  ./build/obj/crt1.o (symbol from plugin)
__ram6_noinit__                                   C:\Users\Ridwane\AppData\Local\Temp\cck5XY5Q.ltrans0.ltrans.o
                                                  ./build/obj/crt1.o (symbol from plugin)
__ram7_clear__                                    C:\Users\Ridwane\AppData\Local\Temp\cck5XY5Q.ltrans0.ltrans.o
                                                  ./build/obj/crt1.o (symbol from plugin)
__ram7_init__                                     C:\Users\Ridwane\AppData\Local\Temp\cck5XY5Q.ltrans0.ltrans.o
                                                  ./build/obj/crt1.o (symbol from plugin)
__ram7_init_text__                                C:\Users\Ridwane\AppData\Local\Temp\cck5XY5Q.ltrans0.ltrans.o
                                                  ./build/obj/crt1.o (symbol from plugin)
__ram7_noinit__                                   C:\Users\Ridwane\AppData\Local\Temp\cck5XY5Q.ltrans0.ltrans.o
                                                  ./build/obj/crt1.o (symbol from plugin)
__retarget_lock_acquire                           c:/chibistudio/tools/gnu tools arm embedded/11.3 2022.08/bin/../lib/gcc/arm-none-eabi/11.3.1/thumb/v7e-m/nofp\libg_nano.a(libc_a-lock.o)
__retarget_lock_acquire_recursive                 c:/chibistudio/tools/gnu tools arm embedded/11.3 2022.08/bin/../lib/gcc/arm-none-eabi/11.3.1/thumb/v7e-m/nofp\libg_nano.a(libc_a-lock.o)
                                                  c:/chibistudio/tools/gnu tools arm embedded/11.3 2022.08/bin/../lib/gcc/arm-none-eabi/11.3.1/thumb/v7e-m/nofp\libg_nano.a(libc_a-fflush.o)
                                                  c:/chibistudio/tools/gnu tools arm embedded/11.3 2022.08/bin/../lib/gcc/arm-none-eabi/11.3.1/thumb/v7e-m/nofp\libg_nano.a(libc_a-findfp.o)
                                                  c:/chibistudio/tools/gnu tools arm embedded/11.3 2022.08/bin/../lib/gcc/arm-none-eabi/11.3.1/thumb/v7e-m/nofp\libg_nano.a(libc_a-nano-vfprintf.o)
                                                  c:/chibistudio/tools/gnu tools arm embedded/11.3 2022.08/bin/../lib/gcc/arm-none-eabi/11.3.1/thumb/v7e-m/nofp\libg_nano.a(libc_a-mlock.o)
__retarget_lock_close                             c:/chibistudio/tools/gnu tools arm embedded/11.3 2022.08/bin/../lib/gcc/arm-none-eabi/11.3.1/thumb/v7e-m/nofp\libg_nano.a(libc_a-lock.o)
__retarget_lock_close_recursive                   c:/chibistudio/tools/gnu tools arm embedded/11.3 2022.08/bin/../lib/gcc/arm-none-eabi/11.3.1/thumb/v7e-m/nofp\libg_nano.a(libc_a-lock.o)
__retarget_lock_init                              c:/chibistudio/tools/gnu tools arm embedded/11.3 2022.08/bin/../lib/gcc/arm-none-eabi/11.3.1/thumb/v7e-m/nofp\libg_nano.a(libc_a-lock.o)
__retarget_lock_init_recursive                    c:/chibistudio/tools/gnu tools arm embedded/11.3 2022.08/bin/../lib/gcc/arm-none-eabi/11.3.1/thumb/v7e-m/nofp\libg_nano.a(libc_a-lock.o)
                                                  c:/chibistudio/tools/gnu tools arm embedded/11.3 2022.08/bin/../lib/gcc/arm-none-eabi/11.3.1/thumb/v7e-m/nofp\libg_nano.a(libc_a-findfp.o)
__retarget_lock_release                           c:/chibistudio/tools/gnu tools arm embedded/11.3 2022.08/bin/../lib/gcc/arm-none-eabi/11.3.1/thumb/v7e-m/nofp\libg_nano.a(libc_a-lock.o)
__retarget_lock_release_recursive                 c:/chibistudio/tools/gnu tools arm embedded/11.3 2022.08/bin/../lib/gcc/arm-none-eabi/11.3.1/thumb/v7e-m/nofp\libg_nano.a(libc_a-lock.o)
                                                  c:/chibistudio/tools/gnu tools arm embedded/11.3 2022.08/bin/../lib/gcc/arm-none-eabi/11.3.1/thumb/v7e-m/nofp\libg_nano.a(libc_a-fflush.o)
                                                  c:/chibistudio/tools/gnu tools arm embedded/11.3 2022.08/bin/../lib/gcc/arm-none-eabi/11.3.1/thumb/v7e-m/nofp\libg_nano.a(libc_a-findfp.o)
                                                  c:/chibistudio/tools/gnu tools arm embedded/11.3 2022.08/bin/../lib/gcc/arm-none-eabi/11.3.1/thumb/v7e-m/nofp\libg_nano.a(libc_a-nano-vfprintf.o)
                                                  c:/chibistudio/tools/gnu tools arm embedded/11.3 2022.08/bin/../lib/gcc/arm-none-eabi/11.3.1/thumb/v7e-m/nofp\libg_nano.a(libc_a-mlock.o)
__retarget_lock_try_acquire                       c:/chibistudio/tools/gnu tools arm embedded/11.3 2022.08/bin/../lib/gcc/arm-none-eabi/11.3.1/thumb/v7e-m/nofp\libg_nano.a(libc_a-lock.o)
__retarget_lock_try_acquire_recursive             c:/chibistudio/tools/gnu tools arm embedded/11.3 2022.08/bin/../lib/gcc/arm-none-eabi/11.3.1/thumb/v7e-m/nofp\libg_nano.a(libc_a-lock.o)
__rodata_base__                                   C:\Users\Ridwane\AppData\Local\Temp\cck5XY5Q.ltrans1.ltrans.o
                                                  ./build/obj/ch_test.o (symbol from plugin)
__rodata_end__                                    C:\Users\Ridwane\AppData\Local\Temp\cck5XY5Q.ltrans1.ltrans.o
                                                  ./build/obj/ch_test.o (symbol from plugin)
__sch_reschedule_ahead.lto_priv.0                 C:\Users\Ridwane\AppData\Local\Temp\cck5XY5Q.ltrans0.ltrans.o
                                                  C:\Users\Ridwane\AppData\Local\Temp\cck5XY5Q.ltrans1.ltrans.o
__sch_wakeup.lto_priv.0                           C:\Users\Ridwane\AppData\Local\Temp\cck5XY5Q.ltrans0.ltrans.o
                                                  C:\Users\Ridwane\AppData\Local\Temp\cck5XY5Q.ltrans1.ltrans.o
__sclose                                          c:/chibistudio/tools/gnu tools arm embedded/11.3 2022.08/bin/../lib/gcc/arm-none-eabi/11.3.1/thumb/v7e-m/nofp\libg_nano.a(libc_a-stdio.o)
                                                  c:/chibistudio/tools/gnu tools arm embedded/11.3 2022.08/bin/../lib/gcc/arm-none-eabi/11.3.1/thumb/v7e-m/nofp\libg_nano.a(libc_a-findfp.o)
__seofread                                        c:/chibistudio/tools/gnu tools arm embedded/11.3 2022.08/bin/../lib/gcc/arm-none-eabi/11.3.1/thumb/v7e-m/nofp\libg_nano.a(libc_a-stdio.o)
__sf                                              c:/chibistudio/tools/gnu tools arm embedded/11.3 2022.08/bin/../lib/gcc/arm-none-eabi/11.3.1/thumb/v7e-m/nofp\libg_nano.a(libc_a-findfp.o)
                                                  c:/chibistudio/tools/gnu tools arm embedded/11.3 2022.08/bin/../lib/gcc/arm-none-eabi/11.3.1/thumb/v7e-m/nofp\libg_nano.a(libc_a-impure.o)
__sflush_r                                        c:/chibistudio/tools/gnu tools arm embedded/11.3 2022.08/bin/../lib/gcc/arm-none-eabi/11.3.1/thumb/v7e-m/nofp\libg_nano.a(libc_a-fflush.o)
__sfp                                             c:/chibistudio/tools/gnu tools arm embedded/11.3 2022.08/bin/../lib/gcc/arm-none-eabi/11.3.1/thumb/v7e-m/nofp\libg_nano.a(libc_a-findfp.o)
__sfp_lock_acquire                                c:/chibistudio/tools/gnu tools arm embedded/11.3 2022.08/bin/../lib/gcc/arm-none-eabi/11.3.1/thumb/v7e-m/nofp\libg_nano.a(libc_a-findfp.o)
__sfp_lock_release                                c:/chibistudio/tools/gnu tools arm embedded/11.3 2022.08/bin/../lib/gcc/arm-none-eabi/11.3.1/thumb/v7e-m/nofp\libg_nano.a(libc_a-findfp.o)
__sfputs_r                                        c:/chibistudio/tools/gnu tools arm embedded/11.3 2022.08/bin/../lib/gcc/arm-none-eabi/11.3.1/thumb/v7e-m/nofp\libg_nano.a(libc_a-nano-vfprintf.o)
__sfvwrite_r                                      c:/chibistudio/tools/gnu tools arm embedded/11.3 2022.08/bin/../lib/gcc/arm-none-eabi/11.3.1/thumb/v7e-m/nofp\libg_nano.a(libc_a-fvwrite.o)
                                                  c:/chibistudio/tools/gnu tools arm embedded/11.3 2022.08/bin/../lib/gcc/arm-none-eabi/11.3.1/thumb/v7e-m/nofp\libg_nano.a(libc_a-nano-vfprintf.o)
__sglue                                           c:/chibistudio/tools/gnu tools arm embedded/11.3 2022.08/bin/../lib/gcc/arm-none-eabi/11.3.1/thumb/v7e-m/nofp\libg_nano.a(libc_a-findfp.o)
                                                  c:/chibistudio/tools/gnu tools arm embedded/11.3 2022.08/bin/../lib/gcc/arm-none-eabi/11.3.1/thumb/v7e-m/nofp\libg_nano.a(libc_a-fflush.o)
__sigtramp                                        c:/chibistudio/tools/gnu tools arm embedded/11.3 2022.08/bin/../lib/gcc/arm-none-eabi/11.3.1/thumb/v7e-m/nofp\libg_nano.a(libc_a-signal.o)
__sigtramp_r                                      c:/chibistudio/tools/gnu tools arm embedded/11.3 2022.08/bin/../lib/gcc/arm-none-eabi/11.3.1/thumb/v7e-m/nofp\libg_nano.a(libc_a-signal.o)
__sinit                                           c:/chibistudio/tools/gnu tools arm embedded/11.3 2022.08/bin/../lib/gcc/arm-none-eabi/11.3.1/thumb/v7e-m/nofp\libg_nano.a(libc_a-findfp.o)
                                                  c:/chibistudio/tools/gnu tools arm embedded/11.3 2022.08/bin/../lib/gcc/arm-none-eabi/11.3.1/thumb/v7e-m/nofp\libg_nano.a(libc_a-fflush.o)
                                                  c:/chibistudio/tools/gnu tools arm embedded/11.3 2022.08/bin/../lib/gcc/arm-none-eabi/11.3.1/thumb/v7e-m/nofp\libg_nano.a(libc_a-wsetup.o)
                                                  c:/chibistudio/tools/gnu tools arm embedded/11.3 2022.08/bin/../lib/gcc/arm-none-eabi/11.3.1/thumb/v7e-m/nofp\libg_nano.a(libc_a-wbuf.o)
                                                  c:/chibistudio/tools/gnu tools arm embedded/11.3 2022.08/bin/../lib/gcc/arm-none-eabi/11.3.1/thumb/v7e-m/nofp\libg_nano.a(libc_a-nano-vfprintf.o)
__smakebuf_r                                      c:/chibistudio/tools/gnu tools arm embedded/11.3 2022.08/bin/../lib/gcc/arm-none-eabi/11.3.1/thumb/v7e-m/nofp\libg_nano.a(libc_a-makebuf.o)
                                                  c:/chibistudio/tools/gnu tools arm embedded/11.3 2022.08/bin/../lib/gcc/arm-none-eabi/11.3.1/thumb/v7e-m/nofp\libg_nano.a(libc_a-wsetup.o)
__sprint_r                                        c:/chibistudio/tools/gnu tools arm embedded/11.3 2022.08/bin/../lib/gcc/arm-none-eabi/11.3.1/thumb/v7e-m/nofp\libg_nano.a(libc_a-nano-vfprintf.o)
__sread                                           c:/chibistudio/tools/gnu tools arm embedded/11.3 2022.08/bin/../lib/gcc/arm-none-eabi/11.3.1/thumb/v7e-m/nofp\libg_nano.a(libc_a-stdio.o)
                                                  c:/chibistudio/tools/gnu tools arm embedded/11.3 2022.08/bin/../lib/gcc/arm-none-eabi/11.3.1/thumb/v7e-m/nofp\libg_nano.a(libc_a-findfp.o)
__sseek                                           c:/chibistudio/tools/gnu tools arm embedded/11.3 2022.08/bin/../lib/gcc/arm-none-eabi/11.3.1/thumb/v7e-m/nofp\libg_nano.a(libc_a-stdio.o)
                                                  c:/chibistudio/tools/gnu tools arm embedded/11.3 2022.08/bin/../lib/gcc/arm-none-eabi/11.3.1/thumb/v7e-m/nofp\libg_nano.a(libc_a-findfp.o)
__stdio_exit_handler                              c:/chibistudio/tools/gnu tools arm embedded/11.3 2022.08/bin/../lib/gcc/arm-none-eabi/11.3.1/thumb/v7e-m/nofp\libg_nano.a(libc_a-findfp.o)
__swbuf                                           c:/chibistudio/tools/gnu tools arm embedded/11.3 2022.08/bin/../lib/gcc/arm-none-eabi/11.3.1/thumb/v7e-m/nofp\libg_nano.a(libc_a-wbuf.o)
__swbuf_r                                         c:/chibistudio/tools/gnu tools arm embedded/11.3 2022.08/bin/../lib/gcc/arm-none-eabi/11.3.1/thumb/v7e-m/nofp\libg_nano.a(libc_a-wbuf.o)
                                                  c:/chibistudio/tools/gnu tools arm embedded/11.3 2022.08/bin/../lib/gcc/arm-none-eabi/11.3.1/thumb/v7e-m/nofp\libg_nano.a(libc_a-nano-vfprintf.o)
__swhatbuf_r                                      c:/chibistudio/tools/gnu tools arm embedded/11.3 2022.08/bin/../lib/gcc/arm-none-eabi/11.3.1/thumb/v7e-m/nofp\libg_nano.a(libc_a-makebuf.o)
__swrite                                          c:/chibistudio/tools/gnu tools arm embedded/11.3 2022.08/bin/../lib/gcc/arm-none-eabi/11.3.1/thumb/v7e-m/nofp\libg_nano.a(libc_a-stdio.o)
                                                  c:/chibistudio/tools/gnu tools arm embedded/11.3 2022.08/bin/../lib/gcc/arm-none-eabi/11.3.1/thumb/v7e-m/nofp\libg_nano.a(libc_a-findfp.o)
__swsetup_r                                       c:/chibistudio/tools/gnu tools arm embedded/11.3 2022.08/bin/../lib/gcc/arm-none-eabi/11.3.1/thumb/v7e-m/nofp\libg_nano.a(libc_a-wsetup.o)
                                                  c:/chibistudio/tools/gnu tools arm embedded/11.3 2022.08/bin/../lib/gcc/arm-none-eabi/11.3.1/thumb/v7e-m/nofp\libg_nano.a(libc_a-wbuf.o)
                                                  c:/chibistudio/tools/gnu tools arm embedded/11.3 2022.08/bin/../lib/gcc/arm-none-eabi/11.3.1/thumb/v7e-m/nofp\libg_nano.a(libc_a-fvwrite.o)
                                                  c:/chibistudio/tools/gnu tools arm embedded/11.3 2022.08/bin/../lib/gcc/arm-none-eabi/11.3.1/thumb/v7e-m/nofp\libg_nano.a(libc_a-nano-vfprintf.o)
__test_assert                                     C:\Users\Ridwane\AppData\Local\Temp\cck5XY5Q.ltrans0.ltrans.o
                                                  ./build/obj/ch_test.o (symbol from plugin)
                                                  C:\Users\Ridwane\AppData\Local\Temp\cck5XY5Q.ltrans1.ltrans.o
                                                  ./build/obj/oslib_test_sequence_009.o (symbol from plugin)
                                                  ./build/obj/oslib_test_sequence_008.o (symbol from plugin)
                                                  ./build/obj/oslib_test_sequence_007.o (symbol from plugin)
                                                  ./build/obj/oslib_test_sequence_006.o (symbol from plugin)
                                                  ./build/obj/oslib_test_sequence_005.o (symbol from plugin)
                                                  ./build/obj/oslib_test_sequence_003.o (symbol from plugin)
                                                  ./build/obj/oslib_test_sequence_002.o (symbol from plugin)
                                                  ./build/obj/rt_test_sequence_011.o (symbol from plugin)
                                                  ./build/obj/rt_test_sequence_010.o (symbol from plugin)
                                                  ./build/obj/rt_test_sequence_008.o (symbol from plugin)
                                                  ./build/obj/rt_test_sequence_007.o (symbol from plugin)
                                                  ./build/obj/rt_test_sequence_006.o (symbol from plugin)
                                                  ./build/obj/rt_test_sequence_005.o (symbol from plugin)
                                                  ./build/obj/rt_test_sequence_004.o (symbol from plugin)
                                                  ./build/obj/rt_test_sequence_003.o (symbol from plugin)
                                                  ./build/obj/rt_test_sequence_002.o (symbol from plugin)
__test_assert_sequence                            ./build/obj/ch_test.o (symbol from plugin)
                                                  ./build/obj/oslib_test_sequence_006.o (symbol from plugin)
                                                  ./build/obj/oslib_test_sequence_005.o (symbol from plugin)
                                                  ./build/obj/oslib_test_sequence_004.o (symbol from plugin)
                                                  ./build/obj/oslib_test_sequence_002.o (symbol from plugin)
                                                  ./build/obj/rt_test_sequence_011.o (symbol from plugin)
                                                  ./build/obj/rt_test_sequence_010.o (symbol from plugin)
                                                  ./build/obj/rt_test_sequence_009.o (symbol from plugin)
                                                  ./build/obj/rt_test_sequence_008.o (symbol from plugin)
                                                  ./build/obj/rt_test_sequence_007.o (symbol from plugin)
                                                  ./build/obj/rt_test_sequence_005.o (symbol from plugin)
__test_assert_time_window                         ./build/obj/ch_test.o (symbol from plugin)
                                                  ./build/obj/rt_test_sequence_010.o (symbol from plugin)
                                                  ./build/obj/rt_test_sequence_007.o (symbol from plugin)
                                                  ./build/obj/rt_test_sequence_006.o (symbol from plugin)
                                                  ./build/obj/rt_test_sequence_005.o (symbol from plugin)
__test_fail                                       ./build/obj/ch_test.o (symbol from plugin)
__text_base__                                     C:\Users\Ridwane\AppData\Local\Temp\cck5XY5Q.ltrans1.ltrans.o
                                                  ./build/obj/ch_test.o (symbol from plugin)
__text_end__                                      C:\Users\Ridwane\AppData\Local\Temp\cck5XY5Q.ltrans1.ltrans.o
                                                  ./build/obj/ch_test.o (symbol from plugin)
__textdata_base__                                 ./build/obj/crt0_v7m.o
__thd_object_init                                 ./build/obj/chthreads.o (symbol from plugin)
                                                  ./build/obj/chinstances.o (symbol from plugin)
_close_r                                          C:\Users\Ridwane\AppData\Local\Temp\cck5XY5Q.ltrans1.ltrans.o
                                                  ./build/obj/syscalls.o (symbol from plugin)
                                                  c:/chibistudio/tools/gnu tools arm embedded/11.3 2022.08/bin/../lib/gcc/arm-none-eabi/11.3.1/thumb/v7e-m/nofp\libg_nano.a(libc_a-stdio.o)
_crt0_entry                                       ./build/obj/crt0_v7m.o
                                                  ./build/obj/vectors.o
_ctl.lto_priv.0                                   C:\Users\Ridwane\AppData\Local\Temp\cck5XY5Q.ltrans0.ltrans.o
                                                  C:\Users\Ridwane\AppData\Local\Temp\cck5XY5Q.ltrans1.ltrans.o
_exit                                             C:\Users\Ridwane\AppData\Local\Temp\cck5XY5Q.ltrans1.ltrans.o
                                                  ./build/obj/syscalls.o (symbol from plugin)
                                                  c:/chibistudio/tools/gnu tools arm embedded/11.3 2022.08/bin/../lib/gcc/arm-none-eabi/11.3.1/thumb/v7e-m/nofp\libg_nano.a(libc_a-abort.o)
_fflush_r                                         c:/chibistudio/tools/gnu tools arm embedded/11.3 2022.08/bin/../lib/gcc/arm-none-eabi/11.3.1/thumb/v7e-m/nofp\libg_nano.a(libc_a-fflush.o)
                                                  c:/chibistudio/tools/gnu tools arm embedded/11.3 2022.08/bin/../lib/gcc/arm-none-eabi/11.3.1/thumb/v7e-m/nofp\libg_nano.a(libc_a-wbuf.o)
                                                  c:/chibistudio/tools/gnu tools arm embedded/11.3 2022.08/bin/../lib/gcc/arm-none-eabi/11.3.1/thumb/v7e-m/nofp\libg_nano.a(libc_a-fvwrite.o)
                                                  c:/chibistudio/tools/gnu tools arm embedded/11.3 2022.08/bin/../lib/gcc/arm-none-eabi/11.3.1/thumb/v7e-m/nofp\libg_nano.a(libc_a-findfp.o)
_fiprintf_r                                       c:/chibistudio/tools/gnu tools arm embedded/11.3 2022.08/bin/../lib/gcc/arm-none-eabi/11.3.1/thumb/v7e-m/nofp\libg_nano.a(libc_a-fprintf.o)
_fprintf_r                                        c:/chibistudio/tools/gnu tools arm embedded/11.3 2022.08/bin/../lib/gcc/arm-none-eabi/11.3.1/thumb/v7e-m/nofp\libg_nano.a(libc_a-fprintf.o)
_free_r                                           c:/chibistudio/tools/gnu tools arm embedded/11.3 2022.08/bin/../lib/gcc/arm-none-eabi/11.3.1/thumb/v7e-m/nofp\libg_nano.a(libc_a-freer.o)
                                                  c:/chibistudio/tools/gnu tools arm embedded/11.3 2022.08/bin/../lib/gcc/arm-none-eabi/11.3.1/thumb/v7e-m/nofp\libg_nano.a(libc_a-reent.o)
                                                  c:/chibistudio/tools/gnu tools arm embedded/11.3 2022.08/bin/../lib/gcc/arm-none-eabi/11.3.1/thumb/v7e-m/nofp\libg_nano.a(libc_a-fflush.o)
                                                  c:/chibistudio/tools/gnu tools arm embedded/11.3 2022.08/bin/../lib/gcc/arm-none-eabi/11.3.1/thumb/v7e-m/nofp\libg_nano.a(libc_a-reallocr.o)
                                                  c:/chibistudio/tools/gnu tools arm embedded/11.3 2022.08/bin/../lib/gcc/arm-none-eabi/11.3.1/thumb/v7e-m/nofp\libg_nano.a(libc_a-wsetup.o)
                                                  c:/chibistudio/tools/gnu tools arm embedded/11.3 2022.08/bin/../lib/gcc/arm-none-eabi/11.3.1/thumb/v7e-m/nofp\libg_nano.a(libc_a-fvwrite.o)
                                                  c:/chibistudio/tools/gnu tools arm embedded/11.3 2022.08/bin/../lib/gcc/arm-none-eabi/11.3.1/thumb/v7e-m/nofp\libg_nano.a(libc_a-malloc.o)
_fstat_r                                          C:\Users\Ridwane\AppData\Local\Temp\cck5XY5Q.ltrans1.ltrans.o
                                                  ./build/obj/syscalls.o (symbol from plugin)
                                                  c:/chibistudio/tools/gnu tools arm embedded/11.3 2022.08/bin/../lib/gcc/arm-none-eabi/11.3.1/thumb/v7e-m/nofp\libg_nano.a(libc_a-makebuf.o)
_fwalk_sglue                                      c:/chibistudio/tools/gnu tools arm embedded/11.3 2022.08/bin/../lib/gcc/arm-none-eabi/11.3.1/thumb/v7e-m/nofp\libg_nano.a(libc_a-fwalk.o)
                                                  c:/chibistudio/tools/gnu tools arm embedded/11.3 2022.08/bin/../lib/gcc/arm-none-eabi/11.3.1/thumb/v7e-m/nofp\libg_nano.a(libc_a-fflush.o)
                                                  c:/chibistudio/tools/gnu tools arm embedded/11.3 2022.08/bin/../lib/gcc/arm-none-eabi/11.3.1/thumb/v7e-m/nofp\libg_nano.a(libc_a-findfp.o)
_get.lto_priv.0                                   C:\Users\Ridwane\AppData\Local\Temp\cck5XY5Q.ltrans0.ltrans.o
                                                  C:\Users\Ridwane\AppData\Local\Temp\cck5XY5Q.ltrans1.ltrans.o
_getpid                                           C:\Users\Ridwane\AppData\Local\Temp\cck5XY5Q.ltrans1.ltrans.o
                                                  ./build/obj/syscalls.o (symbol from plugin)
                                                  c:/chibistudio/tools/gnu tools arm embedded/11.3 2022.08/bin/../lib/gcc/arm-none-eabi/11.3.1/thumb/v7e-m/nofp\libg_nano.a(libc_a-signalr.o)
_getpid_r                                         c:/chibistudio/tools/gnu tools arm embedded/11.3 2022.08/bin/../lib/gcc/arm-none-eabi/11.3.1/thumb/v7e-m/nofp\libg_nano.a(libc_a-signalr.o)
                                                  c:/chibistudio/tools/gnu tools arm embedded/11.3 2022.08/bin/../lib/gcc/arm-none-eabi/11.3.1/thumb/v7e-m/nofp\libg_nano.a(libc_a-signal.o)
_gett.lto_priv.0                                  C:\Users\Ridwane\AppData\Local\Temp\cck5XY5Q.ltrans0.ltrans.o
                                                  C:\Users\Ridwane\AppData\Local\Temp\cck5XY5Q.ltrans1.ltrans.o
_impure_data                                      c:/chibistudio/tools/gnu tools arm embedded/11.3 2022.08/bin/../lib/gcc/arm-none-eabi/11.3.1/thumb/v7e-m/nofp\libg_nano.a(libc_a-impure.o)
                                                  c:/chibistudio/tools/gnu tools arm embedded/11.3 2022.08/bin/../lib/gcc/arm-none-eabi/11.3.1/thumb/v7e-m/nofp\libg_nano.a(libc_a-fflush.o)
                                                  c:/chibistudio/tools/gnu tools arm embedded/11.3 2022.08/bin/../lib/gcc/arm-none-eabi/11.3.1/thumb/v7e-m/nofp\libg_nano.a(libc_a-findfp.o)
_impure_ptr                                       c:/chibistudio/tools/gnu tools arm embedded/11.3 2022.08/bin/../lib/gcc/arm-none-eabi/11.3.1/thumb/v7e-m/nofp\libg_nano.a(libc_a-impure.o)
                                                  c:/chibistudio/tools/gnu tools arm embedded/11.3 2022.08/bin/../lib/gcc/arm-none-eabi/11.3.1/thumb/v7e-m/nofp\libg_nano.a(libc_a-reent.o)
                                                  c:/chibistudio/tools/gnu tools arm embedded/11.3 2022.08/bin/../lib/gcc/arm-none-eabi/11.3.1/thumb/v7e-m/nofp\libg_nano.a(libc_a-fflush.o)
                                                  c:/chibistudio/tools/gnu tools arm embedded/11.3 2022.08/bin/../lib/gcc/arm-none-eabi/11.3.1/thumb/v7e-m/nofp\libg_nano.a(libc_a-signal.o)
                                                  c:/chibistudio/tools/gnu tools arm embedded/11.3 2022.08/bin/../lib/gcc/arm-none-eabi/11.3.1/thumb/v7e-m/nofp\libg_nano.a(libc_a-wsetup.o)
                                                  c:/chibistudio/tools/gnu tools arm embedded/11.3 2022.08/bin/../lib/gcc/arm-none-eabi/11.3.1/thumb/v7e-m/nofp\libg_nano.a(libc_a-wbuf.o)
                                                  c:/chibistudio/tools/gnu tools arm embedded/11.3 2022.08/bin/../lib/gcc/arm-none-eabi/11.3.1/thumb/v7e-m/nofp\libg_nano.a(libc_a-nano-vfprintf.o)
                                                  c:/chibistudio/tools/gnu tools arm embedded/11.3 2022.08/bin/../lib/gcc/arm-none-eabi/11.3.1/thumb/v7e-m/nofp\libg_nano.a(libc_a-fprintf.o)
                                                  c:/chibistudio/tools/gnu tools arm embedded/11.3 2022.08/bin/../lib/gcc/arm-none-eabi/11.3.1/thumb/v7e-m/nofp\libg_nano.a(libc_a-malloc.o)
                                                  c:/chibistudio/tools/gnu tools arm embedded/11.3 2022.08/bin/../lib/gcc/arm-none-eabi/11.3.1/thumb/v7e-m/nofp\libg_nano.a(libc_a-assert.o)
                                                  c:/chibistudio/tools/gnu tools arm embedded/11.3 2022.08/bin/../lib/gcc/arm-none-eabi/11.3.1/thumb/v7e-m/nofp\libg_nano.a(libc_a-rand.o)
_init_signal                                      c:/chibistudio/tools/gnu tools arm embedded/11.3 2022.08/bin/../lib/gcc/arm-none-eabi/11.3.1/thumb/v7e-m/nofp\libg_nano.a(libc_a-signal.o)
_init_signal_r                                    c:/chibistudio/tools/gnu tools arm embedded/11.3 2022.08/bin/../lib/gcc/arm-none-eabi/11.3.1/thumb/v7e-m/nofp\libg_nano.a(libc_a-signal.o)
_isatty_r                                         C:\Users\Ridwane\AppData\Local\Temp\cck5XY5Q.ltrans1.ltrans.o
                                                  ./build/obj/syscalls.o (symbol from plugin)
                                                  c:/chibistudio/tools/gnu tools arm embedded/11.3 2022.08/bin/../lib/gcc/arm-none-eabi/11.3.1/thumb/v7e-m/nofp\libg_nano.a(libc_a-makebuf.o)
_kill                                             C:\Users\Ridwane\AppData\Local\Temp\cck5XY5Q.ltrans1.ltrans.o
                                                  ./build/obj/syscalls.o (symbol from plugin)
                                                  c:/chibistudio/tools/gnu tools arm embedded/11.3 2022.08/bin/../lib/gcc/arm-none-eabi/11.3.1/thumb/v7e-m/nofp\libg_nano.a(libc_a-signalr.o)
_kill_r                                           c:/chibistudio/tools/gnu tools arm embedded/11.3 2022.08/bin/../lib/gcc/arm-none-eabi/11.3.1/thumb/v7e-m/nofp\libg_nano.a(libc_a-signalr.o)
                                                  c:/chibistudio/tools/gnu tools arm embedded/11.3 2022.08/bin/../lib/gcc/arm-none-eabi/11.3.1/thumb/v7e-m/nofp\libg_nano.a(libc_a-signal.o)
_lseek_r                                          C:\Users\Ridwane\AppData\Local\Temp\cck5XY5Q.ltrans1.ltrans.o
                                                  ./build/obj/syscalls.o (symbol from plugin)
                                                  c:/chibistudio/tools/gnu tools arm embedded/11.3 2022.08/bin/../lib/gcc/arm-none-eabi/11.3.1/thumb/v7e-m/nofp\libg_nano.a(libc_a-stdio.o)
_malloc_r                                         c:/chibistudio/tools/gnu tools arm embedded/11.3 2022.08/bin/../lib/gcc/arm-none-eabi/11.3.1/thumb/v7e-m/nofp\libg_nano.a(libc_a-mallocr.o)
                                                  c:/chibistudio/tools/gnu tools arm embedded/11.3 2022.08/bin/../lib/gcc/arm-none-eabi/11.3.1/thumb/v7e-m/nofp\libg_nano.a(libc_a-makebuf.o)
                                                  c:/chibistudio/tools/gnu tools arm embedded/11.3 2022.08/bin/../lib/gcc/arm-none-eabi/11.3.1/thumb/v7e-m/nofp\libg_nano.a(libc_a-reallocr.o)
                                                  c:/chibistudio/tools/gnu tools arm embedded/11.3 2022.08/bin/../lib/gcc/arm-none-eabi/11.3.1/thumb/v7e-m/nofp\libg_nano.a(libc_a-signal.o)
                                                  c:/chibistudio/tools/gnu tools arm embedded/11.3 2022.08/bin/../lib/gcc/arm-none-eabi/11.3.1/thumb/v7e-m/nofp\libg_nano.a(libc_a-fvwrite.o)
                                                  c:/chibistudio/tools/gnu tools arm embedded/11.3 2022.08/bin/../lib/gcc/arm-none-eabi/11.3.1/thumb/v7e-m/nofp\libg_nano.a(libc_a-findfp.o)
                                                  c:/chibistudio/tools/gnu tools arm embedded/11.3 2022.08/bin/../lib/gcc/arm-none-eabi/11.3.1/thumb/v7e-m/nofp\libg_nano.a(libc_a-malloc.o)
_malloc_usable_size_r                             c:/chibistudio/tools/gnu tools arm embedded/11.3 2022.08/bin/../lib/gcc/arm-none-eabi/11.3.1/thumb/v7e-m/nofp\libg_nano.a(libc_a-msizer.o)
                                                  c:/chibistudio/tools/gnu tools arm embedded/11.3 2022.08/bin/../lib/gcc/arm-none-eabi/11.3.1/thumb/v7e-m/nofp\libg_nano.a(libc_a-reallocr.o)
_open_r                                           C:\Users\Ridwane\AppData\Local\Temp\cck5XY5Q.ltrans1.ltrans.o
                                                  ./build/obj/syscalls.o (symbol from plugin)
_pal_lld_init                                     ./build/obj/hal_pal_lld.o (symbol from plugin)
                                                  ./build/obj/hal.o (symbol from plugin)
_pal_lld_setgroupmode                             ./build/obj/hal_pal_lld.o (symbol from plugin)
                                                  ./build/obj/main.o (symbol from plugin)
                                                  ./build/obj/hal_pal.o (symbol from plugin)
_printf_common                                    c:/chibistudio/tools/gnu tools arm embedded/11.3 2022.08/bin/../lib/gcc/arm-none-eabi/11.3.1/thumb/v7e-m/nofp\libg_nano.a(libc_a-nano-vfprintf_i.o)
_printf_float                                     c:/chibistudio/tools/gnu tools arm embedded/11.3 2022.08/bin/../lib/gcc/arm-none-eabi/11.3.1/thumb/v7e-m/nofp\libg_nano.a(libc_a-nano-vfprintf.o)
_printf_i                                         c:/chibistudio/tools/gnu tools arm embedded/11.3 2022.08/bin/../lib/gcc/arm-none-eabi/11.3.1/thumb/v7e-m/nofp\libg_nano.a(libc_a-nano-vfprintf_i.o)
                                                  c:/chibistudio/tools/gnu tools arm embedded/11.3 2022.08/bin/../lib/gcc/arm-none-eabi/11.3.1/thumb/v7e-m/nofp\libg_nano.a(libc_a-nano-vfprintf.o)
_put.lto_priv.0                                   C:\Users\Ridwane\AppData\Local\Temp\cck5XY5Q.ltrans0.ltrans.o
                                                  C:\Users\Ridwane\AppData\Local\Temp\cck5XY5Q.ltrans1.ltrans.o
_putt.lto_priv.0                                  C:\Users\Ridwane\AppData\Local\Temp\cck5XY5Q.ltrans0.ltrans.o
                                                  C:\Users\Ridwane\AppData\Local\Temp\cck5XY5Q.ltrans1.ltrans.o
_raise_r                                          c:/chibistudio/tools/gnu tools arm embedded/11.3 2022.08/bin/../lib/gcc/arm-none-eabi/11.3.1/thumb/v7e-m/nofp\libg_nano.a(libc_a-signal.o)
_read.lto_priv.0                                  C:\Users\Ridwane\AppData\Local\Temp\cck5XY5Q.ltrans0.ltrans.o
                                                  C:\Users\Ridwane\AppData\Local\Temp\cck5XY5Q.ltrans1.ltrans.o
_read_r                                           C:\Users\Ridwane\AppData\Local\Temp\cck5XY5Q.ltrans1.ltrans.o
                                                  ./build/obj/syscalls.o (symbol from plugin)
                                                  c:/chibistudio/tools/gnu tools arm embedded/11.3 2022.08/bin/../lib/gcc/arm-none-eabi/11.3.1/thumb/v7e-m/nofp\libg_nano.a(libc_a-stdio.o)
_readt.lto_priv.0                                 C:\Users\Ridwane\AppData\Local\Temp\cck5XY5Q.ltrans0.ltrans.o
                                                  C:\Users\Ridwane\AppData\Local\Temp\cck5XY5Q.ltrans1.ltrans.o
_realloc_r                                        c:/chibistudio/tools/gnu tools arm embedded/11.3 2022.08/bin/../lib/gcc/arm-none-eabi/11.3.1/thumb/v7e-m/nofp\libg_nano.a(libc_a-reallocr.o)
                                                  c:/chibistudio/tools/gnu tools arm embedded/11.3 2022.08/bin/../lib/gcc/arm-none-eabi/11.3.1/thumb/v7e-m/nofp\libg_nano.a(libc_a-fvwrite.o)
_reclaim_reent                                    c:/chibistudio/tools/gnu tools arm embedded/11.3 2022.08/bin/../lib/gcc/arm-none-eabi/11.3.1/thumb/v7e-m/nofp\libg_nano.a(libc_a-reent.o)
_sbrk_r                                           C:\Users\Ridwane\AppData\Local\Temp\cck5XY5Q.ltrans1.ltrans.o
                                                  ./build/obj/syscalls.o (symbol from plugin)
                                                  c:/chibistudio/tools/gnu tools arm embedded/11.3 2022.08/bin/../lib/gcc/arm-none-eabi/11.3.1/thumb/v7e-m/nofp\libg_nano.a(libc_a-mallocr.o)
_signal_r                                         c:/chibistudio/tools/gnu tools arm embedded/11.3 2022.08/bin/../lib/gcc/arm-none-eabi/11.3.1/thumb/v7e-m/nofp\libg_nano.a(libc_a-signal.o)
_unhandled_exception                              ./build/obj/vectors.o
_vectors                                          ./build/obj/vectors.o
                                                  ./build/obj/crt0_v7m.o
_vfiprintf_r                                      c:/chibistudio/tools/gnu tools arm embedded/11.3 2022.08/bin/../lib/gcc/arm-none-eabi/11.3.1/thumb/v7e-m/nofp\libg_nano.a(libc_a-nano-vfprintf.o)
_vfprintf_r                                       c:/chibistudio/tools/gnu tools arm embedded/11.3 2022.08/bin/../lib/gcc/arm-none-eabi/11.3.1/thumb/v7e-m/nofp\libg_nano.a(libc_a-nano-vfprintf.o)
                                                  c:/chibistudio/tools/gnu tools arm embedded/11.3 2022.08/bin/../lib/gcc/arm-none-eabi/11.3.1/thumb/v7e-m/nofp\libg_nano.a(libc_a-fprintf.o)
_write.lto_priv.0                                 C:\Users\Ridwane\AppData\Local\Temp\cck5XY5Q.ltrans0.ltrans.o
                                                  C:\Users\Ridwane\AppData\Local\Temp\cck5XY5Q.ltrans1.ltrans.o
_write_r                                          C:\Users\Ridwane\AppData\Local\Temp\cck5XY5Q.ltrans1.ltrans.o
                                                  ./build/obj/syscalls.o (symbol from plugin)
                                                  c:/chibistudio/tools/gnu tools arm embedded/11.3 2022.08/bin/../lib/gcc/arm-none-eabi/11.3.1/thumb/v7e-m/nofp\libg_nano.a(libc_a-stdio.o)
_writet.lto_priv.0                                C:\Users\Ridwane\AppData\Local\Temp\cck5XY5Q.ltrans0.ltrans.o
                                                  C:\Users\Ridwane\AppData\Local\Temp\cck5XY5Q.ltrans1.ltrans.o
abort                                             c:/chibistudio/tools/gnu tools arm embedded/11.3 2022.08/bin/../lib/gcc/arm-none-eabi/11.3.1/thumb/v7e-m/nofp\libg_nano.a(libc_a-abort.o)
                                                  c:/chibistudio/tools/gnu tools arm embedded/11.3 2022.08/bin/../lib/gcc/arm-none-eabi/11.3.1/thumb/v7e-m/nofp\libg_nano.a(libc_a-assert.o)
board.c.3d76e6d8                                  C:\Users\Ridwane\AppData\Local\Temp\cc8kGSe1.debug.temp.o
                                                  C:\Users\Ridwane\AppData\Local\Temp\cck5XY5Q.ltrans0.ltrans.o
boardInit                                         ./build/obj/board.o (symbol from plugin)
                                                  ./build/obj/hal.o (symbol from plugin)
bsIncomingDataI                                   ./build/obj/hal_buffered_serial.o (symbol from plugin)
bsRequestDataI                                    ./build/obj/hal_buffered_serial.o (symbol from plugin)
cache1.lto_priv.0                                 C:\Users\Ridwane\AppData\Local\Temp\cck5XY5Q.ltrans0.ltrans.o
                                                  C:\Users\Ridwane\AppData\Local\Temp\cck5XY5Q.ltrans1.ltrans.o
ch0                                               C:\Users\Ridwane\AppData\Local\Temp\cck5XY5Q.ltrans0.ltrans.o
                                                  ./build/obj/chsys.o (symbol from plugin)
                                                  C:\Users\Ridwane\AppData\Local\Temp\cck5XY5Q.ltrans1.ltrans.o
                                                  ./build/obj/main.o (symbol from plugin)
                                                  ./build/obj/oslib_test_sequence_005.o (symbol from plugin)
                                                  ./build/obj/oslib_test_sequence_004.o (symbol from plugin)
                                                  ./build/obj/rt_test_sequence_012.o (symbol from plugin)
                                                  ./build/obj/rt_test_sequence_011.o (symbol from plugin)
                                                  ./build/obj/rt_test_sequence_010.o (symbol from plugin)
                                                  ./build/obj/rt_test_sequence_009.o (symbol from plugin)
                                                  ./build/obj/rt_test_sequence_008.o (symbol from plugin)
                                                  ./build/obj/rt_test_sequence_007.o (symbol from plugin)
                                                  ./build/obj/rt_test_sequence_006.o (symbol from plugin)
                                                  ./build/obj/rt_test_sequence_005.o (symbol from plugin)
                                                  ./build/obj/chmsg.o (symbol from plugin)
                                                  ./build/obj/chevents.o (symbol from plugin)
                                                  ./build/obj/chcond.o (symbol from plugin)
                                                  ./build/obj/chmtx.o (symbol from plugin)
                                                  ./build/obj/chsem.o (symbol from plugin)
                                                  ./build/obj/chregistry.o (symbol from plugin)
                                                  ./build/obj/chthreads.o (symbol from plugin)
                                                  ./build/obj/chschd.o (symbol from plugin)
                                                  ./build/obj/chvt.o (symbol from plugin)
                                                  ./build/obj/chrfcu.o (symbol from plugin)
chCacheGetObject                                  ./build/obj/chobjcaches.o (symbol from plugin)
                                                  ./build/obj/oslib_test_sequence_006.o (symbol from plugin)
chCacheGetObject.constprop.0                      C:\Users\Ridwane\AppData\Local\Temp\cck5XY5Q.ltrans1.ltrans.o
                                                  C:\Users\Ridwane\AppData\Local\Temp\cck5XY5Q.ltrans0.ltrans.o
chCacheObjectInit                                 ./build/obj/chobjcaches.o (symbol from plugin)
                                                  ./build/obj/oslib_test_sequence_006.o (symbol from plugin)
chCacheReadObject                                 ./build/obj/chobjcaches.o (symbol from plugin)
                                                  ./build/obj/oslib_test_sequence_006.o (symbol from plugin)
chCacheReleaseObjectI                             ./build/obj/chobjcaches.o (symbol from plugin)
                                                  ./build/obj/oslib_test_sequence_006.o (symbol from plugin)
chCacheWriteObject                                ./build/obj/chobjcaches.o (symbol from plugin)
chCondBroadcast                                   ./build/obj/chcond.o (symbol from plugin)
                                                  ./build/obj/rt_test_sequence_008.o (symbol from plugin)
chCondBroadcastI                                  ./build/obj/chcond.o (symbol from plugin)
chCondObjectInit                                  ./build/obj/chcond.o (symbol from plugin)
                                                  ./build/obj/rt_test_sequence_008.o (symbol from plugin)
chCondSignal                                      ./build/obj/chcond.o (symbol from plugin)
                                                  ./build/obj/rt_test_sequence_008.o (symbol from plugin)
chCondSignalI                                     ./build/obj/chcond.o (symbol from plugin)
                                                  ./build/obj/rt_test_sequence_008.o (symbol from plugin)
chCondWait                                        ./build/obj/chcond.o (symbol from plugin)
                                                  ./build/obj/rt_test_sequence_008.o (symbol from plugin)
chCondWaitS                                       ./build/obj/chcond.o (symbol from plugin)
chCondWaitTimeout                                 ./build/obj/chcond.o (symbol from plugin)
                                                  ./build/obj/rt_test_sequence_008.o (symbol from plugin)
chCondWaitTimeoutS                                ./build/obj/chcond.o (symbol from plugin)
chCoreAllocAlignedI.lto_priv.0                    C:\Users\Ridwane\AppData\Local\Temp\cck5XY5Q.ltrans0.ltrans.o
                                                  C:\Users\Ridwane\AppData\Local\Temp\cck5XY5Q.ltrans1.ltrans.o
chCoreAllocFromBase                               ./build/obj/chmemcore.o (symbol from plugin)
                                                  ./build/obj/syscalls.o (symbol from plugin)
chCoreAllocFromBaseI                              ./build/obj/chmemcore.o (symbol from plugin)
chCoreAllocFromTop                                C:\Users\Ridwane\AppData\Local\Temp\cck5XY5Q.ltrans0.ltrans.o
                                                  ./build/obj/chmemcore.o (symbol from plugin)
                                                  C:\Users\Ridwane\AppData\Local\Temp\cck5XY5Q.ltrans1.ltrans.o
                                                  ./build/obj/chmemheaps.o (symbol from plugin)
chCoreAllocFromTopI                               ./build/obj/chmemcore.o (symbol from plugin)
                                                  ./build/obj/chfactory.o (symbol from plugin)
chCoreGetStatusX                                  ./build/obj/chmemcore.o (symbol from plugin)
chDelegateCallVeneer                              ./build/obj/chdelegates.o (symbol from plugin)
                                                  ./build/obj/oslib_test_sequence_005.o (symbol from plugin)
chDelegateDispatch                                ./build/obj/chdelegates.o (symbol from plugin)
                                                  ./build/obj/oslib_test_sequence_005.o (symbol from plugin)
chDelegateDispatchTimeout                         ./build/obj/chdelegates.o (symbol from plugin)
chEvtAddEvents                                    ./build/obj/chevents.o (symbol from plugin)
                                                  ./build/obj/rt_test_sequence_010.o (symbol from plugin)
chEvtBroadcastFlags                               ./build/obj/chevents.o (symbol from plugin)
                                                  ./build/obj/rt_test_sequence_010.o (symbol from plugin)
chEvtBroadcastFlagsI                              ./build/obj/chevents.o (symbol from plugin)
                                                  ./build/obj/hal_serial_lld.o (symbol from plugin)
                                                  ./build/obj/hal_serial.o (symbol from plugin)
                                                  ./build/obj/hal_buffered_serial.o (symbol from plugin)
chEvtDispatch                                     ./build/obj/chevents.o (symbol from plugin)
                                                  ./build/obj/rt_test_sequence_010.o (symbol from plugin)
chEvtGetAndClearEvents                            ./build/obj/chevents.o (symbol from plugin)
                                                  ./build/obj/rt_test_sequence_010.o (symbol from plugin)
chEvtGetAndClearEventsI                           ./build/obj/chevents.o (symbol from plugin)
chEvtGetAndClearFlags                             ./build/obj/chevents.o (symbol from plugin)
chEvtGetAndClearFlagsI                            ./build/obj/chevents.o (symbol from plugin)
chEvtRegisterMaskWithFlags                        ./build/obj/chevents.o (symbol from plugin)
                                                  ./build/obj/rt_test_sequence_010.o (symbol from plugin)
chEvtRegisterMaskWithFlagsI                       ./build/obj/chevents.o (symbol from plugin)
chEvtSignal                                       ./build/obj/chevents.o (symbol from plugin)
                                                  ./build/obj/rt_test_sequence_010.o (symbol from plugin)
chEvtSignalI                                      ./build/obj/chevents.o (symbol from plugin)
chEvtUnregister                                   ./build/obj/chevents.o (symbol from plugin)
                                                  ./build/obj/rt_test_sequence_010.o (symbol from plugin)
chEvtWaitAll                                      ./build/obj/chevents.o (symbol from plugin)
                                                  ./build/obj/rt_test_sequence_010.o (symbol from plugin)
chEvtWaitAllTimeout                               ./build/obj/chevents.o (symbol from plugin)
                                                  ./build/obj/rt_test_sequence_010.o (symbol from plugin)
chEvtWaitAny                                      ./build/obj/chevents.o (symbol from plugin)
                                                  ./build/obj/rt_test_sequence_010.o (symbol from plugin)
chEvtWaitAnyTimeout                               ./build/obj/chevents.o (symbol from plugin)
                                                  ./build/obj/rt_test_sequence_010.o (symbol from plugin)
chEvtWaitOne                                      ./build/obj/chevents.o (symbol from plugin)
                                                  ./build/obj/rt_test_sequence_010.o (symbol from plugin)
chEvtWaitOne.constprop.0                          C:\Users\Ridwane\AppData\Local\Temp\cck5XY5Q.ltrans1.ltrans.o
                                                  C:\Users\Ridwane\AppData\Local\Temp\cck5XY5Q.ltrans0.ltrans.o
chEvtWaitOneTimeout                               ./build/obj/chevents.o (symbol from plugin)
                                                  ./build/obj/rt_test_sequence_010.o (symbol from plugin)
chFactoryCreateBuffer                             ./build/obj/chfactory.o (symbol from plugin)
                                                  ./build/obj/oslib_test_sequence_009.o (symbol from plugin)
chFactoryCreateMailbox                            ./build/obj/chfactory.o (symbol from plugin)
                                                  ./build/obj/oslib_test_sequence_009.o (symbol from plugin)
chFactoryCreateObjectsFIFO                        ./build/obj/chfactory.o (symbol from plugin)
                                                  ./build/obj/oslib_test_sequence_009.o (symbol from plugin)
chFactoryCreatePipe                               ./build/obj/chfactory.o (symbol from plugin)
                                                  ./build/obj/oslib_test_sequence_009.o (symbol from plugin)
chFactoryCreateSemaphore                          ./build/obj/chfactory.o (symbol from plugin)
                                                  ./build/obj/oslib_test_sequence_009.o (symbol from plugin)
chFactoryFindBuffer                               ./build/obj/chfactory.o (symbol from plugin)
                                                  ./build/obj/oslib_test_sequence_009.o (symbol from plugin)
chFactoryFindMailbox                              ./build/obj/chfactory.o (symbol from plugin)
                                                  ./build/obj/oslib_test_sequence_009.o (symbol from plugin)
chFactoryFindObject                               ./build/obj/chfactory.o (symbol from plugin)
                                                  ./build/obj/oslib_test_sequence_009.o (symbol from plugin)
chFactoryFindObjectByPointer                      ./build/obj/chfactory.o (symbol from plugin)
chFactoryFindObjectsFIFO                          ./build/obj/chfactory.o (symbol from plugin)
                                                  ./build/obj/oslib_test_sequence_009.o (symbol from plugin)
chFactoryFindPipe                                 ./build/obj/chfactory.o (symbol from plugin)
                                                  ./build/obj/oslib_test_sequence_009.o (symbol from plugin)
chFactoryFindSemaphore                            ./build/obj/chfactory.o (symbol from plugin)
                                                  ./build/obj/oslib_test_sequence_009.o (symbol from plugin)
chFactoryRegisterObject                           ./build/obj/chfactory.o (symbol from plugin)
                                                  ./build/obj/oslib_test_sequence_009.o (symbol from plugin)
chFactoryReleaseBuffer                            C:\Users\Ridwane\AppData\Local\Temp\cck5XY5Q.ltrans0.ltrans.o
                                                  ./build/obj/chfactory.o (symbol from plugin)
                                                  C:\Users\Ridwane\AppData\Local\Temp\cck5XY5Q.ltrans1.ltrans.o
                                                  ./build/obj/oslib_test_sequence_009.o (symbol from plugin)
chFactoryReleaseMailbox                           C:\Users\Ridwane\AppData\Local\Temp\cck5XY5Q.ltrans0.ltrans.o
                                                  ./build/obj/chfactory.o (symbol from plugin)
                                                  C:\Users\Ridwane\AppData\Local\Temp\cck5XY5Q.ltrans1.ltrans.o
                                                  ./build/obj/oslib_test_sequence_009.o (symbol from plugin)
chFactoryReleaseObject                            C:\Users\Ridwane\AppData\Local\Temp\cck5XY5Q.ltrans0.ltrans.o
                                                  ./build/obj/chfactory.o (symbol from plugin)
                                                  C:\Users\Ridwane\AppData\Local\Temp\cck5XY5Q.ltrans1.ltrans.o
                                                  ./build/obj/oslib_test_sequence_009.o (symbol from plugin)
chFactoryReleaseObjectsFIFO                       C:\Users\Ridwane\AppData\Local\Temp\cck5XY5Q.ltrans0.ltrans.o
                                                  ./build/obj/chfactory.o (symbol from plugin)
                                                  C:\Users\Ridwane\AppData\Local\Temp\cck5XY5Q.ltrans1.ltrans.o
                                                  ./build/obj/oslib_test_sequence_009.o (symbol from plugin)
chFactoryReleasePipe                              C:\Users\Ridwane\AppData\Local\Temp\cck5XY5Q.ltrans0.ltrans.o
                                                  ./build/obj/chfactory.o (symbol from plugin)
                                                  C:\Users\Ridwane\AppData\Local\Temp\cck5XY5Q.ltrans1.ltrans.o
                                                  ./build/obj/oslib_test_sequence_009.o (symbol from plugin)
chFactoryReleaseSemaphore                         C:\Users\Ridwane\AppData\Local\Temp\cck5XY5Q.ltrans0.ltrans.o
                                                  ./build/obj/chfactory.o (symbol from plugin)
                                                  C:\Users\Ridwane\AppData\Local\Temp\cck5XY5Q.ltrans1.ltrans.o
                                                  ./build/obj/oslib_test_sequence_009.o (symbol from plugin)
chGuardedPoolAllocTimeout                         ./build/obj/chmempools.o (symbol from plugin)
                                                  ./build/obj/oslib_test_sequence_007.o (symbol from plugin)
                                                  ./build/obj/oslib_test_sequence_004.o (symbol from plugin)
chGuardedPoolAllocTimeoutS                        ./build/obj/chmempools.o (symbol from plugin)
chGuardedPoolFree                                 ./build/obj/chmempools.o (symbol from plugin)
                                                  ./build/obj/oslib_test_sequence_007.o (symbol from plugin)
                                                  ./build/obj/oslib_test_sequence_004.o (symbol from plugin)
chGuardedPoolLoadArray                            ./build/obj/chmempools.o (symbol from plugin)
                                                  ./build/obj/oslib_test_sequence_007.o (symbol from plugin)
                                                  ./build/obj/oslib_test_sequence_004.o (symbol from plugin)
                                                  ./build/obj/chfactory.o (symbol from plugin)
chGuardedPoolObjectInitAligned                    ./build/obj/chmempools.o (symbol from plugin)
                                                  ./build/obj/oslib_test_sequence_007.o (symbol from plugin)
                                                  ./build/obj/oslib_test_sequence_004.o (symbol from plugin)
                                                  ./build/obj/chfactory.o (symbol from plugin)
chHeapAllocAligned                                C:\Users\Ridwane\AppData\Local\Temp\cck5XY5Q.ltrans0.ltrans.o
                                                  ./build/obj/chmemheaps.o (symbol from plugin)
                                                  C:\Users\Ridwane\AppData\Local\Temp\cck5XY5Q.ltrans1.ltrans.o
                                                  ./build/obj/oslib_test_sequence_008.o (symbol from plugin)
                                                  ./build/obj/chfactory.o (symbol from plugin)
                                                  ./build/obj/chdynamic.o (symbol from plugin)
chHeapFree                                        C:\Users\Ridwane\AppData\Local\Temp\cck5XY5Q.ltrans0.ltrans.o
                                                  ./build/obj/chmemheaps.o (symbol from plugin)
                                                  C:\Users\Ridwane\AppData\Local\Temp\cck5XY5Q.ltrans1.ltrans.o
                                                  ./build/obj/oslib_test_sequence_008.o (symbol from plugin)
                                                  ./build/obj/chfactory.o (symbol from plugin)
                                                  ./build/obj/chthreads.o (symbol from plugin)
chHeapObjectInit                                  ./build/obj/chmemheaps.o (symbol from plugin)
                                                  ./build/obj/oslib_test_sequence_008.o (symbol from plugin)
                                                  ./build/obj/rt_test_sequence_011.o (symbol from plugin)
chHeapStatus                                      C:\Users\Ridwane\AppData\Local\Temp\cck5XY5Q.ltrans0.ltrans.o
                                                  ./build/obj/chmemheaps.o (symbol from plugin)
                                                  ./build/obj/oslib_test_sequence_008.o (symbol from plugin)
                                                  ./build/obj/rt_test_sequence_011.o (symbol from plugin)
chInstanceObjectInit                              ./build/obj/chinstances.o (symbol from plugin)
                                                  ./build/obj/chsys.o (symbol from plugin)
chMBFetchI                                        ./build/obj/chmboxes.o (symbol from plugin)
                                                  ./build/obj/oslib_test_sequence_002.o (symbol from plugin)
chMBFetchTimeout                                  ./build/obj/chmboxes.o (symbol from plugin)
                                                  ./build/obj/oslib_test_sequence_004.o (symbol from plugin)
                                                  ./build/obj/oslib_test_sequence_002.o (symbol from plugin)
chMBFetchTimeoutS                                 ./build/obj/chmboxes.o (symbol from plugin)
chMBObjectInit                                    ./build/obj/chmboxes.o (symbol from plugin)
                                                  ./build/obj/oslib_test_sequence_004.o (symbol from plugin)
                                                  ./build/obj/oslib_test_sequence_002.o (symbol from plugin)
                                                  ./build/obj/chfactory.o (symbol from plugin)
chMBPostAheadI                                    ./build/obj/chmboxes.o (symbol from plugin)
                                                  ./build/obj/oslib_test_sequence_002.o (symbol from plugin)
chMBPostAheadI.constprop.0                        C:\Users\Ridwane\AppData\Local\Temp\cck5XY5Q.ltrans1.ltrans.o
                                                  C:\Users\Ridwane\AppData\Local\Temp\cck5XY5Q.ltrans0.ltrans.o
chMBPostAheadTimeout                              ./build/obj/chmboxes.o (symbol from plugin)
                                                  ./build/obj/oslib_test_sequence_002.o (symbol from plugin)
chMBPostAheadTimeout.constprop.0                  C:\Users\Ridwane\AppData\Local\Temp\cck5XY5Q.ltrans1.ltrans.o
                                                  C:\Users\Ridwane\AppData\Local\Temp\cck5XY5Q.ltrans0.ltrans.o
chMBPostAheadTimeoutS                             ./build/obj/chmboxes.o (symbol from plugin)
chMBPostI                                         ./build/obj/chmboxes.o (symbol from plugin)
                                                  ./build/obj/oslib_test_sequence_002.o (symbol from plugin)
chMBPostTimeout                                   ./build/obj/chmboxes.o (symbol from plugin)
                                                  ./build/obj/oslib_test_sequence_004.o (symbol from plugin)
                                                  ./build/obj/oslib_test_sequence_002.o (symbol from plugin)
chMBPostTimeoutS                                  ./build/obj/chmboxes.o (symbol from plugin)
chMBReset                                         ./build/obj/chmboxes.o (symbol from plugin)
                                                  ./build/obj/oslib_test_sequence_002.o (symbol from plugin)
chMBReset.constprop.0                             C:\Users\Ridwane\AppData\Local\Temp\cck5XY5Q.ltrans1.ltrans.o
                                                  C:\Users\Ridwane\AppData\Local\Temp\cck5XY5Q.ltrans0.ltrans.o
chMBResetI                                        ./build/obj/chmboxes.o (symbol from plugin)
                                                  ./build/obj/oslib_test_sequence_002.o (symbol from plugin)
chMsgPollS                                        ./build/obj/chmsg.o (symbol from plugin)
chMsgRelease                                      ./build/obj/chmsg.o (symbol from plugin)
                                                  ./build/obj/rt_test_sequence_012.o (symbol from plugin)
                                                  ./build/obj/rt_test_sequence_009.o (symbol from plugin)
                                                  ./build/obj/chdelegates.o (symbol from plugin)
chMsgSend                                         ./build/obj/chmsg.o (symbol from plugin)
                                                  ./build/obj/rt_test_sequence_012.o (symbol from plugin)
                                                  ./build/obj/rt_test_sequence_009.o (symbol from plugin)
                                                  ./build/obj/chdelegates.o (symbol from plugin)
chMsgWaitS                                        ./build/obj/chmsg.o (symbol from plugin)
                                                  ./build/obj/rt_test_sequence_012.o (symbol from plugin)
                                                  ./build/obj/rt_test_sequence_009.o (symbol from plugin)
                                                  ./build/obj/chdelegates.o (symbol from plugin)
chMsgWaitTimeoutS                                 ./build/obj/chmsg.o (symbol from plugin)
                                                  ./build/obj/chdelegates.o (symbol from plugin)
chMtxLock                                         ./build/obj/chmtx.o (symbol from plugin)
                                                  ./build/obj/rt_test_sequence_012.o (symbol from plugin)
                                                  ./build/obj/rt_test_sequence_008.o (symbol from plugin)
                                                  ./build/obj/chfactory.o (symbol from plugin)
                                                  ./build/obj/chpipes.o (symbol from plugin)
                                                  ./build/obj/chmemheaps.o (symbol from plugin)
chMtxLockS                                        C:\Users\Ridwane\AppData\Local\Temp\cck5XY5Q.ltrans0.ltrans.o
                                                  ./build/obj/chmtx.o (symbol from plugin)
                                                  C:\Users\Ridwane\AppData\Local\Temp\cck5XY5Q.ltrans1.ltrans.o
                                                  ./build/obj/rt_test_sequence_008.o (symbol from plugin)
                                                  ./build/obj/chcond.o (symbol from plugin)
chMtxObjectInit                                   ./build/obj/chmtx.o (symbol from plugin)
                                                  ./build/obj/rt_test_sequence_012.o (symbol from plugin)
                                                  ./build/obj/rt_test_sequence_008.o (symbol from plugin)
                                                  ./build/obj/chfactory.o (symbol from plugin)
                                                  ./build/obj/chpipes.o (symbol from plugin)
                                                  ./build/obj/chmemheaps.o (symbol from plugin)
chMtxTryLock                                      ./build/obj/chmtx.o (symbol from plugin)
                                                  ./build/obj/rt_test_sequence_008.o (symbol from plugin)
chMtxTryLockS                                     ./build/obj/chmtx.o (symbol from plugin)
chMtxUnlock                                       C:\Users\Ridwane\AppData\Local\Temp\cck5XY5Q.ltrans0.ltrans.o
                                                  ./build/obj/chmtx.o (symbol from plugin)
                                                  C:\Users\Ridwane\AppData\Local\Temp\cck5XY5Q.ltrans1.ltrans.o
                                                  ./build/obj/rt_test_sequence_012.o (symbol from plugin)
                                                  ./build/obj/rt_test_sequence_008.o (symbol from plugin)
                                                  ./build/obj/chfactory.o (symbol from plugin)
                                                  ./build/obj/chpipes.o (symbol from plugin)
                                                  ./build/obj/chmemheaps.o (symbol from plugin)
chMtxUnlockAll                                    ./build/obj/chmtx.o (symbol from plugin)
                                                  ./build/obj/rt_test_sequence_008.o (symbol from plugin)
chMtxUnlockAllS                                   ./build/obj/chmtx.o (symbol from plugin)
chMtxUnlockS                                      ./build/obj/chmtx.o (symbol from plugin)
                                                  ./build/obj/rt_test_sequence_008.o (symbol from plugin)
                                                  ./build/obj/chcond.o (symbol from plugin)
chPipeObjectInit                                  ./build/obj/chpipes.o (symbol from plugin)
                                                  ./build/obj/oslib_test_sequence_003.o (symbol from plugin)
                                                  ./build/obj/chfactory.o (symbol from plugin)
chPipeReadTimeout                                 ./build/obj/chpipes.o (symbol from plugin)
                                                  ./build/obj/oslib_test_sequence_003.o (symbol from plugin)
chPipeReadTimeout.part.0.constprop.0              C:\Users\Ridwane\AppData\Local\Temp\cck5XY5Q.ltrans1.ltrans.o
                                                  C:\Users\Ridwane\AppData\Local\Temp\cck5XY5Q.ltrans0.ltrans.o
chPipeReset                                       ./build/obj/chpipes.o (symbol from plugin)
                                                  ./build/obj/oslib_test_sequence_003.o (symbol from plugin)
chPipeWriteTimeout                                ./build/obj/chpipes.o (symbol from plugin)
                                                  ./build/obj/oslib_test_sequence_003.o (symbol from plugin)
chPipeWriteTimeout.part.0.constprop.0             C:\Users\Ridwane\AppData\Local\Temp\cck5XY5Q.ltrans1.ltrans.o
                                                  C:\Users\Ridwane\AppData\Local\Temp\cck5XY5Q.ltrans0.ltrans.o
chPoolAlloc                                       ./build/obj/chmempools.o (symbol from plugin)
                                                  ./build/obj/oslib_test_sequence_007.o (symbol from plugin)
                                                  ./build/obj/rt_test_sequence_011.o (symbol from plugin)
                                                  ./build/obj/chfactory.o (symbol from plugin)
                                                  ./build/obj/chdynamic.o (symbol from plugin)
chPoolAllocI                                      ./build/obj/chmempools.o (symbol from plugin)
chPoolFree                                        ./build/obj/chmempools.o (symbol from plugin)
                                                  ./build/obj/oslib_test_sequence_007.o (symbol from plugin)
                                                  ./build/obj/rt_test_sequence_011.o (symbol from plugin)
                                                  ./build/obj/chfactory.o (symbol from plugin)
                                                  ./build/obj/chthreads.o (symbol from plugin)
chPoolFreeI                                       ./build/obj/chmempools.o (symbol from plugin)
chPoolLoadArray                                   ./build/obj/chmempools.o (symbol from plugin)
                                                  ./build/obj/oslib_test_sequence_007.o (symbol from plugin)
chPoolObjectInitAligned                           ./build/obj/chmempools.o (symbol from plugin)
                                                  ./build/obj/oslib_test_sequence_007.o (symbol from plugin)
                                                  ./build/obj/rt_test_sequence_011.o (symbol from plugin)
                                                  ./build/obj/chfactory.o (symbol from plugin)
chRFCUCollectFaultsI                              ./build/obj/chrfcu.o (symbol from plugin)
                                                  ./build/obj/chvt.o (symbol from plugin)
chRFCUGetAndClearFaultsI                          ./build/obj/chrfcu.o (symbol from plugin)
chRegFindThreadByName                             ./build/obj/chregistry.o (symbol from plugin)
chRegFindThreadByPointer                          ./build/obj/chregistry.o (symbol from plugin)
chRegFindThreadByWorkingArea                      ./build/obj/chregistry.o (symbol from plugin)
chRegFirstThread                                  ./build/obj/chregistry.o (symbol from plugin)
chRegNextThread                                   ./build/obj/chregistry.o (symbol from plugin)
chSchDoPreemption                                 C:\Users\Ridwane\AppData\Local\Temp\cck5XY5Q.ltrans0.ltrans.o
                                                  ./build/obj/chschd.o (symbol from plugin)
                                                  ./build/obj/chcoreasm.o
chSchDoYieldS                                     ./build/obj/chschd.o (symbol from plugin)
                                                  ./build/obj/chthreads.o (symbol from plugin)
chSchGoSleepS                                     ./build/obj/chschd.o (symbol from plugin)
                                                  ./build/obj/rt_test_sequence_012.o (symbol from plugin)
                                                  ./build/obj/chmsg.o (symbol from plugin)
                                                  ./build/obj/chevents.o (symbol from plugin)
                                                  ./build/obj/chcond.o (symbol from plugin)
                                                  ./build/obj/chmtx.o (symbol from plugin)
                                                  ./build/obj/chsem.o (symbol from plugin)
                                                  ./build/obj/chthreads.o (symbol from plugin)
chSchGoSleepTimeoutS                              C:\Users\Ridwane\AppData\Local\Temp\cck5XY5Q.ltrans0.ltrans.o
                                                  ./build/obj/chschd.o (symbol from plugin)
                                                  C:\Users\Ridwane\AppData\Local\Temp\cck5XY5Q.ltrans1.ltrans.o
                                                  ./build/obj/chmsg.o (symbol from plugin)
                                                  ./build/obj/chevents.o (symbol from plugin)
                                                  ./build/obj/chcond.o (symbol from plugin)
                                                  ./build/obj/chsem.o (symbol from plugin)
                                                  ./build/obj/chthreads.o (symbol from plugin)
chSchIsPreemptionRequired                         ./build/obj/chschd.o (symbol from plugin)
                                                  ./build/obj/chcore.o (symbol from plugin)
chSchPreemption                                   ./build/obj/chschd.o (symbol from plugin)
chSchReadyI                                       ./build/obj/chschd.o (symbol from plugin)
                                                  ./build/obj/chmsg.o (symbol from plugin)
                                                  ./build/obj/chevents.o (symbol from plugin)
                                                  ./build/obj/chcond.o (symbol from plugin)
                                                  ./build/obj/chmtx.o (symbol from plugin)
                                                  ./build/obj/chsem.o (symbol from plugin)
                                                  ./build/obj/chthreads.o (symbol from plugin)
chSchRescheduleS                                  ./build/obj/chschd.o (symbol from plugin)
                                                  ./build/obj/oslib_test_sequence_006.o (symbol from plugin)
                                                  ./build/obj/rt_test_sequence_008.o (symbol from plugin)
                                                  ./build/obj/rt_test_sequence_007.o (symbol from plugin)
                                                  ./build/obj/rt_test_sequence_006.o (symbol from plugin)
                                                  ./build/obj/chpipes.o (symbol from plugin)
                                                  ./build/obj/chmempools.o (symbol from plugin)
                                                  ./build/obj/chmboxes.o (symbol from plugin)
                                                  ./build/obj/chevents.o (symbol from plugin)
                                                  ./build/obj/chcond.o (symbol from plugin)
                                                  ./build/obj/chmtx.o (symbol from plugin)
                                                  ./build/obj/chsem.o (symbol from plugin)
                                                  ./build/obj/chthreads.o (symbol from plugin)
                                                  ./build/obj/chsys.o (symbol from plugin)
                                                  ./build/obj/hal_serial.o (symbol from plugin)
chSchSelectFirst                                  ./build/obj/chschd.o (symbol from plugin)
chSchWakeupS                                      C:\Users\Ridwane\AppData\Local\Temp\cck5XY5Q.ltrans0.ltrans.o
                                                  ./build/obj/chschd.o (symbol from plugin)
                                                  C:\Users\Ridwane\AppData\Local\Temp\cck5XY5Q.ltrans1.ltrans.o
                                                  ./build/obj/rt_test_sequence_012.o (symbol from plugin)
                                                  ./build/obj/chdynamic.o (symbol from plugin)
                                                  ./build/obj/chmsg.o (symbol from plugin)
                                                  ./build/obj/chcond.o (symbol from plugin)
                                                  ./build/obj/chsem.o (symbol from plugin)
                                                  ./build/obj/chthreads.o (symbol from plugin)
chSemAddCounterI                                  ./build/obj/chsem.o (symbol from plugin)
                                                  ./build/obj/rt_test_sequence_007.o (symbol from plugin)
chSemObjectInit                                   ./build/obj/chsem.o (symbol from plugin)
                                                  ./build/obj/rt_test_sequence_012.o (symbol from plugin)
                                                  ./build/obj/rt_test_sequence_007.o (symbol from plugin)
                                                  ./build/obj/chfactory.o (symbol from plugin)
                                                  ./build/obj/chobjcaches.o (symbol from plugin)
                                                  ./build/obj/chmempools.o (symbol from plugin)
chSemResetWithMessage                             ./build/obj/chsem.o (symbol from plugin)
                                                  ./build/obj/rt_test_sequence_012.o (symbol from plugin)
                                                  ./build/obj/rt_test_sequence_007.o (symbol from plugin)
chSemResetWithMessage.constprop.0                 C:\Users\Ridwane\AppData\Local\Temp\cck5XY5Q.ltrans1.ltrans.o
                                                  C:\Users\Ridwane\AppData\Local\Temp\cck5XY5Q.ltrans0.ltrans.o
chSemResetWithMessageI                            ./build/obj/chsem.o (symbol from plugin)
chSemSignal                                       ./build/obj/chsem.o (symbol from plugin)
                                                  ./build/obj/rt_test_sequence_012.o (symbol from plugin)
                                                  ./build/obj/rt_test_sequence_007.o (symbol from plugin)
chSemSignalI                                      C:\Users\Ridwane\AppData\Local\Temp\cck5XY5Q.ltrans0.ltrans.o
                                                  ./build/obj/chsem.o (symbol from plugin)
                                                  ./build/obj/rt_test_sequence_007.o (symbol from plugin)
                                                  ./build/obj/chobjcaches.o (symbol from plugin)
                                                  ./build/obj/chmempools.o (symbol from plugin)
chSemSignalWait                                   ./build/obj/chsem.o (symbol from plugin)
                                                  ./build/obj/rt_test_sequence_007.o (symbol from plugin)
chSemSignalWait.constprop.0.isra.0                C:\Users\Ridwane\AppData\Local\Temp\cck5XY5Q.ltrans1.ltrans.o
                                                  C:\Users\Ridwane\AppData\Local\Temp\cck5XY5Q.ltrans0.ltrans.o
chSemWait                                         ./build/obj/chsem.o (symbol from plugin)
                                                  ./build/obj/rt_test_sequence_012.o (symbol from plugin)
                                                  ./build/obj/rt_test_sequence_007.o (symbol from plugin)
chSemWaitS                                        ./build/obj/chsem.o (symbol from plugin)
                                                  ./build/obj/chobjcaches.o (symbol from plugin)
chSemWaitTimeout                                  ./build/obj/chsem.o (symbol from plugin)
                                                  ./build/obj/rt_test_sequence_007.o (symbol from plugin)
chSemWaitTimeoutS                                 ./build/obj/chsem.o (symbol from plugin)
                                                  ./build/obj/chmempools.o (symbol from plugin)
chSysGetIdleThreadX                               ./build/obj/chsys.o (symbol from plugin)
chSysGetStatusAndLockX                            ./build/obj/chsys.o (symbol from plugin)
                                                  ./build/obj/rt_test_sequence_002.o (symbol from plugin)
chSysHalt                                         ./build/obj/chsys.o (symbol from plugin)
                                                  ./build/obj/syscalls.o (symbol from plugin)
chSysInit                                         ./build/obj/chsys.o (symbol from plugin)
                                                  ./build/obj/main.o (symbol from plugin)
chSysIntegrityCheckI                              ./build/obj/chsys.o (symbol from plugin)
                                                  ./build/obj/rt_test_sequence_002.o (symbol from plugin)
chSysIsCounterWithinX                             ./build/obj/chsys.o (symbol from plugin)
chSysPolledDelayX                                 ./build/obj/chsys.o (symbol from plugin)
chSysRestoreStatusX                               ./build/obj/chsys.o (symbol from plugin)
                                                  ./build/obj/rt_test_sequence_002.o (symbol from plugin)
chSysTimerHandlerI                                ./build/obj/chsys.o (symbol from plugin)
                                                  ./build/obj/hal_st_lld.o (symbol from plugin)
chSysWaitSystemState                              ./build/obj/chsys.o (symbol from plugin)
chTMChainMeasurementToX                           ./build/obj/chtm.o (symbol from plugin)
chTMObjectInit                                    ./build/obj/chtm.o (symbol from plugin)
                                                  ./build/obj/chsys.o (symbol from plugin)
chTMStartMeasurementX                             C:\Users\Ridwane\AppData\Local\Temp\cck5XY5Q.ltrans0.ltrans.o
                                                  ./build/obj/chtm.o (symbol from plugin)
                                                  C:\Users\Ridwane\AppData\Local\Temp\cck5XY5Q.ltrans1.ltrans.o
                                                  ./build/obj/chsys.o (symbol from plugin)
chTMStopMeasurementX                              C:\Users\Ridwane\AppData\Local\Temp\cck5XY5Q.ltrans0.ltrans.o
                                                  ./build/obj/chtm.o (symbol from plugin)
                                                  C:\Users\Ridwane\AppData\Local\Temp\cck5XY5Q.ltrans1.ltrans.o
                                                  ./build/obj/chsys.o (symbol from plugin)
chThdAddRef                                       ./build/obj/chthreads.o (symbol from plugin)
chThdCreate                                       ./build/obj/chthreads.o (symbol from plugin)
                                                  ./build/obj/oslib_test_sequence_005.o (symbol from plugin)
                                                  ./build/obj/oslib_test_sequence_004.o (symbol from plugin)
chThdCreateFromHeap                               ./build/obj/chdynamic.o (symbol from plugin)
                                                  ./build/obj/rt_test_sequence_011.o (symbol from plugin)
chThdCreateFromHeap.constprop.0                   C:\Users\Ridwane\AppData\Local\Temp\cck5XY5Q.ltrans1.ltrans.o
                                                  C:\Users\Ridwane\AppData\Local\Temp\cck5XY5Q.ltrans0.ltrans.o
chThdCreateFromMemoryPool                         ./build/obj/chdynamic.o (symbol from plugin)
                                                  ./build/obj/rt_test_sequence_011.o (symbol from plugin)
chThdCreateFromMemoryPool.constprop.0             C:\Users\Ridwane\AppData\Local\Temp\cck5XY5Q.ltrans1.ltrans.o
                                                  C:\Users\Ridwane\AppData\Local\Temp\cck5XY5Q.ltrans0.ltrans.o
chThdCreateI                                      ./build/obj/chthreads.o (symbol from plugin)
                                                  ./build/obj/chinstances.o (symbol from plugin)
chThdCreateStatic                                 C:\Users\Ridwane\AppData\Local\Temp\cck5XY5Q.ltrans0.ltrans.o
                                                  ./build/obj/chthreads.o (symbol from plugin)
                                                  C:\Users\Ridwane\AppData\Local\Temp\cck5XY5Q.ltrans1.ltrans.o
                                                  ./build/obj/main.o (symbol from plugin)
                                                  ./build/obj/rt_test_sequence_012.o (symbol from plugin)
                                                  ./build/obj/rt_test_sequence_010.o (symbol from plugin)
                                                  ./build/obj/rt_test_sequence_009.o (symbol from plugin)
                                                  ./build/obj/rt_test_sequence_008.o (symbol from plugin)
                                                  ./build/obj/rt_test_sequence_007.o (symbol from plugin)
                                                  ./build/obj/rt_test_sequence_006.o (symbol from plugin)
                                                  ./build/obj/rt_test_sequence_005.o (symbol from plugin)
chThdCreateSuspended                              ./build/obj/chthreads.o (symbol from plugin)
chThdCreateSuspendedI                             C:\Users\Ridwane\AppData\Local\Temp\cck5XY5Q.ltrans0.ltrans.o
                                                  ./build/obj/chthreads.o (symbol from plugin)
                                                  C:\Users\Ridwane\AppData\Local\Temp\cck5XY5Q.ltrans1.ltrans.o
                                                  ./build/obj/chdynamic.o (symbol from plugin)
chThdDequeueAllI                                  ./build/obj/chthreads.o (symbol from plugin)
                                                  ./build/obj/chmboxes.o (symbol from plugin)
                                                  ./build/obj/hal_queues.o (symbol from plugin)
                                                  ./build/obj/hal_buffers.o (symbol from plugin)
chThdDequeueNextI                                 ./build/obj/chthreads.o (symbol from plugin)
                                                  ./build/obj/chmboxes.o (symbol from plugin)
                                                  ./build/obj/hal_queues.o (symbol from plugin)
                                                  ./build/obj/hal_buffers.o (symbol from plugin)
chThdEnqueueTimeoutS                              ./build/obj/chthreads.o (symbol from plugin)
                                                  ./build/obj/chmboxes.o (symbol from plugin)
                                                  ./build/obj/hal_queues.o (symbol from plugin)
                                                  ./build/obj/hal_buffers.o (symbol from plugin)
chThdExit                                         C:\Users\Ridwane\AppData\Local\Temp\cck5XY5Q.ltrans0.ltrans.o
                                                  ./build/obj/chthreads.o (symbol from plugin)
                                                  ./build/obj/oslib_test_sequence_005.o (symbol from plugin)
                                                  ./build/obj/rt_test_sequence_012.o (symbol from plugin)
                                                  ./build/obj/chcoreasm.o
chThdExitS                                        ./build/obj/chthreads.o (symbol from plugin)
chThdRelease                                      ./build/obj/chthreads.o (symbol from plugin)
                                                  ./build/obj/rt_test_sequence_012.o (symbol from plugin)
                                                  ./build/obj/chregistry.o (symbol from plugin)
chThdResume                                       ./build/obj/chthreads.o (symbol from plugin)
                                                  ./build/obj/chpipes.o (symbol from plugin)
chThdResumeI                                      ./build/obj/chthreads.o (symbol from plugin)
                                                  ./build/obj/rt_test_sequence_006.o (symbol from plugin)
                                                  ./build/obj/chpipes.o (symbol from plugin)
chThdResumeS                                      ./build/obj/chthreads.o (symbol from plugin)
chThdSetPriority                                  ./build/obj/chthreads.o (symbol from plugin)
                                                  ./build/obj/rt_test_sequence_005.o (symbol from plugin)
chThdSleep                                        ./build/obj/chthreads.o (symbol from plugin)
                                                  ./build/obj/main.o (symbol from plugin)
                                                  ./build/obj/oslib_test_sequence_004.o (symbol from plugin)
                                                  ./build/obj/rt_test_sequence_012.o (symbol from plugin)
                                                  ./build/obj/rt_test_sequence_010.o (symbol from plugin)
                                                  ./build/obj/rt_test_sequence_008.o (symbol from plugin)
                                                  ./build/obj/rt_test_sequence_007.o (symbol from plugin)
                                                  ./build/obj/rt_test_sequence_005.o (symbol from plugin)
                                                  ./build/obj/rt_test_sequence_002.o (symbol from plugin)
                                                  ./build/obj/rt_test_root.o (symbol from plugin)
                                                  ./build/obj/ch_test.o (symbol from plugin)
                                                  ./build/obj/hal_flash.o (symbol from plugin)
chThdSleepUntil                                   ./build/obj/chthreads.o (symbol from plugin)
                                                  ./build/obj/rt_test_sequence_005.o (symbol from plugin)
chThdSleepUntilWindowed                           ./build/obj/chthreads.o (symbol from plugin)
chThdStart                                        ./build/obj/chthreads.o (symbol from plugin)
chThdSuspendS                                     ./build/obj/chthreads.o (symbol from plugin)
chThdSuspendTimeoutS                              ./build/obj/chthreads.o (symbol from plugin)
                                                  ./build/obj/rt_test_sequence_006.o (symbol from plugin)
                                                  ./build/obj/chpipes.o (symbol from plugin)
chThdTerminate                                    ./build/obj/chthreads.o (symbol from plugin)
                                                  ./build/obj/rt_test_root.o (symbol from plugin)
chThdWait                                         ./build/obj/chthreads.o (symbol from plugin)
                                                  ./build/obj/oslib_test_sequence_005.o (symbol from plugin)
                                                  ./build/obj/oslib_test_sequence_004.o (symbol from plugin)
                                                  ./build/obj/rt_test_sequence_012.o (symbol from plugin)
                                                  ./build/obj/rt_test_root.o (symbol from plugin)
chThdYield                                        ./build/obj/chthreads.o (symbol from plugin)
                                                  ./build/obj/rt_test_sequence_012.o (symbol from plugin)
chVTDoResetI                                      C:\Users\Ridwane\AppData\Local\Temp\cck5XY5Q.ltrans0.ltrans.o
                                                  ./build/obj/chvt.o (symbol from plugin)
                                                  C:\Users\Ridwane\AppData\Local\Temp\cck5XY5Q.ltrans1.ltrans.o
                                                  ./build/obj/rt_test_sequence_012.o (symbol from plugin)
                                                  ./build/obj/rt_test_sequence_002.o (symbol from plugin)
                                                  ./build/obj/chschd.o (symbol from plugin)
chVTDoSetContinuousI                              ./build/obj/chvt.o (symbol from plugin)
chVTDoSetI                                        ./build/obj/chvt.o (symbol from plugin)
                                                  ./build/obj/rt_test_sequence_012.o (symbol from plugin)
                                                  ./build/obj/rt_test_sequence_002.o (symbol from plugin)
                                                  ./build/obj/chschd.o (symbol from plugin)
chVTDoTickI                                       ./build/obj/chvt.o (symbol from plugin)
                                                  ./build/obj/chsys.o (symbol from plugin)
chVTGetRemainingIntervalI                         ./build/obj/chvt.o (symbol from plugin)
chVTGetTimeStampI                                 ./build/obj/chvt.o (symbol from plugin)
                                                  ./build/obj/rt_test_sequence_004.o (symbol from plugin)
chVTResetTimeStampI                               ./build/obj/chvt.o (symbol from plugin)
ch_core0_cfg                                      ./build/obj/chsys.o (symbol from plugin)
ch_debug                                          ./build/obj/chregistry.o (symbol from plugin)
                                                  ./build/obj/chinstances.o (symbol from plugin)
ch_factory                                        C:\Users\Ridwane\AppData\Local\Temp\cck5XY5Q.ltrans0.ltrans.o
                                                  ./build/obj/chfactory.o (symbol from plugin)
                                                  C:\Users\Ridwane\AppData\Local\Temp\cck5XY5Q.ltrans1.ltrans.o
ch_memcore                                        C:\Users\Ridwane\AppData\Local\Temp\cck5XY5Q.ltrans0.ltrans.o
                                                  ./build/obj/chmemcore.o (symbol from plugin)
                                                  C:\Users\Ridwane\AppData\Local\Temp\cck5XY5Q.ltrans1.ltrans.o
ch_system                                         C:\Users\Ridwane\AppData\Local\Temp\cck5XY5Q.ltrans0.ltrans.o
                                                  ./build/obj/chsys.o (symbol from plugin)
                                                  C:\Users\Ridwane\AppData\Local\Temp\cck5XY5Q.ltrans1.ltrans.o
                                                  ./build/obj/chtm.o (symbol from plugin)
                                                  ./build/obj/chinstances.o (symbol from plugin)
ch_test.c.e409ad5d                                C:\Users\Ridwane\AppData\Local\Temp\cc0CkpZU.debug.temp.o
                                                  C:\Users\Ridwane\AppData\Local\Temp\cck5XY5Q.ltrans1.ltrans.o
                                                  C:\Users\Ridwane\AppData\Local\Temp\cck5XY5Q.ltrans0.ltrans.o
ch_test_printf.c.72cbebc9                         C:\Users\Ridwane\AppData\Local\Temp\cccLKoqN.debug.temp.o
                                                  C:\Users\Ridwane\AppData\Local\Temp\cck5XY5Q.ltrans1.ltrans.o
                                                  C:\Users\Ridwane\AppData\Local\Temp\cck5XY5Q.ltrans0.ltrans.o
chcond.c.21f5d023                                 C:\Users\Ridwane\AppData\Local\Temp\ccY9anIu.debug.temp.o
                                                  C:\Users\Ridwane\AppData\Local\Temp\cck5XY5Q.ltrans0.ltrans.o
chcore.c.d0613f85                                 C:\Users\Ridwane\AppData\Local\Temp\cccHEdM2.debug.temp.o
                                                  C:\Users\Ridwane\AppData\Local\Temp\cck5XY5Q.ltrans1.ltrans.o
                                                  C:\Users\Ridwane\AppData\Local\Temp\cck5XY5Q.ltrans0.ltrans.o
chdebug.c.7fab8648                                C:\Users\Ridwane\AppData\Local\Temp\ccuAYEoA.debug.temp.o
chdelegates.c.a76d29ec                            C:\Users\Ridwane\AppData\Local\Temp\ccANvPpi.debug.temp.o
                                                  C:\Users\Ridwane\AppData\Local\Temp\cck5XY5Q.ltrans0.ltrans.o
chdynamic.c.17c75475                              C:\Users\Ridwane\AppData\Local\Temp\ccSqom28.debug.temp.o
                                                  C:\Users\Ridwane\AppData\Local\Temp\cck5XY5Q.ltrans1.ltrans.o
chevents.c.39bea8e5                               C:\Users\Ridwane\AppData\Local\Temp\ccwr49mn.debug.temp.o
                                                  C:\Users\Ridwane\AppData\Local\Temp\cck5XY5Q.ltrans1.ltrans.o
                                                  C:\Users\Ridwane\AppData\Local\Temp\cck5XY5Q.ltrans0.ltrans.o
chfactory.c.0fd8b717                              C:\Users\Ridwane\AppData\Local\Temp\cc08mrua.debug.temp.o
                                                  C:\Users\Ridwane\AppData\Local\Temp\cck5XY5Q.ltrans1.ltrans.o
                                                  C:\Users\Ridwane\AppData\Local\Temp\cck5XY5Q.ltrans0.ltrans.o
chinstances.c.1ffa5db6                            C:\Users\Ridwane\AppData\Local\Temp\ccUbvXV9.debug.temp.o
                                                  C:\Users\Ridwane\AppData\Local\Temp\cck5XY5Q.ltrans1.ltrans.o
                                                  C:\Users\Ridwane\AppData\Local\Temp\cck5XY5Q.ltrans0.ltrans.o
chmboxes.c.def0f90b                               C:\Users\Ridwane\AppData\Local\Temp\ccuuTY31.debug.temp.o
                                                  C:\Users\Ridwane\AppData\Local\Temp\cck5XY5Q.ltrans1.ltrans.o
                                                  C:\Users\Ridwane\AppData\Local\Temp\cck5XY5Q.ltrans0.ltrans.o
chmemcore.c.3bc0bea9                              C:\Users\Ridwane\AppData\Local\Temp\cc2Lkl8U.debug.temp.o
                                                  C:\Users\Ridwane\AppData\Local\Temp\cck5XY5Q.ltrans1.ltrans.o
                                                  C:\Users\Ridwane\AppData\Local\Temp\cck5XY5Q.ltrans0.ltrans.o
chmemheaps.c.fc5833e8                             C:\Users\Ridwane\AppData\Local\Temp\cceur77N.debug.temp.o
                                                  C:\Users\Ridwane\AppData\Local\Temp\cck5XY5Q.ltrans1.ltrans.o
                                                  C:\Users\Ridwane\AppData\Local\Temp\cck5XY5Q.ltrans0.ltrans.o
chmempools.c.581737a8                             C:\Users\Ridwane\AppData\Local\Temp\cceuUSaG.debug.temp.o
                                                  C:\Users\Ridwane\AppData\Local\Temp\cck5XY5Q.ltrans1.ltrans.o
                                                  C:\Users\Ridwane\AppData\Local\Temp\cck5XY5Q.ltrans0.ltrans.o
chmsg.c.d1d9700c                                  C:\Users\Ridwane\AppData\Local\Temp\cckFvbfg.debug.temp.o
                                                  C:\Users\Ridwane\AppData\Local\Temp\cck5XY5Q.ltrans0.ltrans.o
chmtx.c.08b1d90e                                  C:\Users\Ridwane\AppData\Local\Temp\cc029BXB.debug.temp.o
                                                  C:\Users\Ridwane\AppData\Local\Temp\cck5XY5Q.ltrans1.ltrans.o
                                                  C:\Users\Ridwane\AppData\Local\Temp\cck5XY5Q.ltrans0.ltrans.o
chobjcaches.c.8f0852a2                            C:\Users\Ridwane\AppData\Local\Temp\cciyl9fq.debug.temp.o
                                                  C:\Users\Ridwane\AppData\Local\Temp\cck5XY5Q.ltrans1.ltrans.o
                                                  C:\Users\Ridwane\AppData\Local\Temp\cck5XY5Q.ltrans0.ltrans.o
chpipes.c.1da99460                                C:\Users\Ridwane\AppData\Local\Temp\cc0ibt6x.debug.temp.o
                                                  C:\Users\Ridwane\AppData\Local\Temp\cck5XY5Q.ltrans1.ltrans.o
                                                  C:\Users\Ridwane\AppData\Local\Temp\cck5XY5Q.ltrans0.ltrans.o
chprintf                                          ./build/obj/chprintf.o (symbol from plugin)
chprintf.c.0aaf906b                               C:\Users\Ridwane\AppData\Local\Temp\cc48Dgr1.debug.temp.o
chregistry.c.bff1b666                             C:\Users\Ridwane\AppData\Local\Temp\ccWmbsPQ.debug.temp.o
                                                  C:\Users\Ridwane\AppData\Local\Temp\cck5XY5Q.ltrans1.ltrans.o
chrfcu.c.c895f4e7                                 C:\Users\Ridwane\AppData\Local\Temp\ccEdjY1G.debug.temp.o
                                                  C:\Users\Ridwane\AppData\Local\Temp\cck5XY5Q.ltrans1.ltrans.o
                                                  C:\Users\Ridwane\AppData\Local\Temp\cck5XY5Q.ltrans0.ltrans.o
chschd.c.7ac4a4b1                                 C:\Users\Ridwane\AppData\Local\Temp\cc0I1Zug.debug.temp.o
                                                  C:\Users\Ridwane\AppData\Local\Temp\cck5XY5Q.ltrans1.ltrans.o
                                                  C:\Users\Ridwane\AppData\Local\Temp\cck5XY5Q.ltrans0.ltrans.o
chsem.c.1e089c27                                  C:\Users\Ridwane\AppData\Local\Temp\cciSG5pJ.debug.temp.o
                                                  C:\Users\Ridwane\AppData\Local\Temp\cck5XY5Q.ltrans1.ltrans.o
                                                  C:\Users\Ridwane\AppData\Local\Temp\cck5XY5Q.ltrans0.ltrans.o
chsnprintf                                        ./build/obj/chprintf.o (symbol from plugin)
chsys.c.a2cbaf2a                                  C:\Users\Ridwane\AppData\Local\Temp\cc6ZV6GN.debug.temp.o
                                                  C:\Users\Ridwane\AppData\Local\Temp\cck5XY5Q.ltrans1.ltrans.o
                                                  C:\Users\Ridwane\AppData\Local\Temp\cck5XY5Q.ltrans0.ltrans.o
chtest                                            C:\Users\Ridwane\AppData\Local\Temp\cck5XY5Q.ltrans0.ltrans.o
                                                  ./build/obj/ch_test.o (symbol from plugin)
                                                  C:\Users\Ridwane\AppData\Local\Temp\cck5XY5Q.ltrans1.ltrans.o
                                                  ./build/obj/oslib_test_sequence_009.o (symbol from plugin)
                                                  ./build/obj/oslib_test_sequence_008.o (symbol from plugin)
                                                  ./build/obj/oslib_test_sequence_007.o (symbol from plugin)
                                                  ./build/obj/oslib_test_sequence_006.o (symbol from plugin)
                                                  ./build/obj/oslib_test_sequence_005.o (symbol from plugin)
                                                  ./build/obj/oslib_test_sequence_004.o (symbol from plugin)
                                                  ./build/obj/oslib_test_sequence_003.o (symbol from plugin)
                                                  ./build/obj/oslib_test_sequence_002.o (symbol from plugin)
                                                  ./build/obj/oslib_test_sequence_001.o (symbol from plugin)
                                                  ./build/obj/rt_test_sequence_012.o (symbol from plugin)
                                                  ./build/obj/rt_test_sequence_011.o (symbol from plugin)
                                                  ./build/obj/rt_test_sequence_010.o (symbol from plugin)
                                                  ./build/obj/rt_test_sequence_009.o (symbol from plugin)
                                                  ./build/obj/rt_test_sequence_008.o (symbol from plugin)
                                                  ./build/obj/rt_test_sequence_007.o (symbol from plugin)
                                                  ./build/obj/rt_test_sequence_006.o (symbol from plugin)
                                                  ./build/obj/rt_test_sequence_005.o (symbol from plugin)
                                                  ./build/obj/rt_test_sequence_004.o (symbol from plugin)
                                                  ./build/obj/rt_test_sequence_003.o (symbol from plugin)
                                                  ./build/obj/rt_test_sequence_002.o (symbol from plugin)
                                                  ./build/obj/rt_test_sequence_001.o (symbol from plugin)
                                                  ./build/obj/ch_test_printf.o (symbol from plugin)
chthreads.c.5557c4f5                              C:\Users\Ridwane\AppData\Local\Temp\ccaiVzA3.debug.temp.o
                                                  C:\Users\Ridwane\AppData\Local\Temp\cck5XY5Q.ltrans1.ltrans.o
                                                  C:\Users\Ridwane\AppData\Local\Temp\cck5XY5Q.ltrans0.ltrans.o
chtm.c.c6d3a226                                   C:\Users\Ridwane\AppData\Local\Temp\ccqolcfX.debug.temp.o
                                                  C:\Users\Ridwane\AppData\Local\Temp\cck5XY5Q.ltrans1.ltrans.o
                                                  C:\Users\Ridwane\AppData\Local\Temp\cck5XY5Q.ltrans0.ltrans.o
chtrace.c.0824063b                                C:\Users\Ridwane\AppData\Local\Temp\ccSK0SGt.debug.temp.o
chvprintf                                         ./build/obj/chprintf.o (symbol from plugin)
chvsnprintf                                       ./build/obj/chprintf.o (symbol from plugin)
chvt.c.e41f813f                                   C:\Users\Ridwane\AppData\Local\Temp\ccgV26Ym.debug.temp.o
                                                  C:\Users\Ridwane\AppData\Local\Temp\cck5XY5Q.ltrans1.ltrans.o
                                                  C:\Users\Ridwane\AppData\Local\Temp\cck5XY5Q.ltrans0.ltrans.o
codec.c.97caadc1                                  C:\Users\Ridwane\AppData\Local\Temp\cc0AHCEH.debug.temp.o
                                                  C:\Users\Ridwane\AppData\Local\Temp\cck5XY5Q.ltrans1.ltrans.o
common.c.d9463ee7                                 C:\Users\Ridwane\AppData\Local\Temp\ccawVIOC.debug.temp.o
                                                  C:\Users\Ridwane\AppData\Local\Temp\cck5XY5Q.ltrans1.ltrans.o
crt1.c.72d01c06                                   C:\Users\Ridwane\AppData\Local\Temp\cc8o5MEn.debug.temp.o
                                                  C:\Users\Ridwane\AppData\Local\Temp\cck5XY5Q.ltrans0.ltrans.o
crypto_sign                                       ./build/obj/nist.o (symbol from plugin)
                                                  ./build/obj/main.o (symbol from plugin)
crypto_sign_keypair                               ./build/obj/nist.o (symbol from plugin)
crypto_sign_open                                  ./build/obj/nist.o (symbol from plugin)
default_heap.lto_priv.0                           C:\Users\Ridwane\AppData\Local\Temp\cck5XY5Q.ltrans0.ltrans.o
                                                  C:\Users\Ridwane\AppData\Local\Temp\cck5XY5Q.ltrans1.ltrans.o
dyn_create_object_heap.lto_priv.0                 C:\Users\Ridwane\AppData\Local\Temp\cck5XY5Q.ltrans0.ltrans.o
                                                  C:\Users\Ridwane\AppData\Local\Temp\cck5XY5Q.ltrans1.ltrans.o
dyn_thread1.lto_priv.0                            C:\Users\Ridwane\AppData\Local\Temp\cck5XY5Q.ltrans0.ltrans.o
                                                  C:\Users\Ridwane\AppData\Local\Temp\cck5XY5Q.ltrans1.ltrans.o
errno                                             c:/chibistudio/tools/gnu tools arm embedded/11.3 2022.08/bin/../lib/gcc/arm-none-eabi/11.3.1/thumb/v7e-m/nofp\libg_nano.a(libc_a-reent.o)
                                                  c:/chibistudio/tools/gnu tools arm embedded/11.3 2022.08/bin/../lib/gcc/arm-none-eabi/11.3.1/thumb/v7e-m/nofp\libg_nano.a(libc_a-signalr.o)
falcon_inner_FFT                                  ./build/obj/fft.o (symbol from plugin)
                                                  ./build/obj/keygen.o (symbol from plugin)
                                                  ./build/obj/sign.o (symbol from plugin)
falcon_inner_comp_decode                          ./build/obj/codec.o (symbol from plugin)
                                                  ./build/obj/nist.o (symbol from plugin)
falcon_inner_comp_encode                          ./build/obj/codec.o (symbol from plugin)
                                                  ./build/obj/nist.o (symbol from plugin)
falcon_inner_complete_private                     ./build/obj/vrfy.o (symbol from plugin)
                                                  ./build/obj/nist.o (symbol from plugin)
falcon_inner_compute_public                       ./build/obj/vrfy.o (symbol from plugin)
                                                  ./build/obj/keygen.o (symbol from plugin)
falcon_inner_count_nttzero                        ./build/obj/vrfy.o (symbol from plugin)
falcon_inner_expand_privkey                       ./build/obj/sign.o (symbol from plugin)
falcon_inner_fpr_add                              C:\Users\Ridwane\AppData\Local\Temp\cck5XY5Q.ltrans1.ltrans.o
                                                  ./build/obj/fpr.o (symbol from plugin)
                                                  ./build/obj/keygen.o (symbol from plugin)
                                                  ./build/obj/fft.o (symbol from plugin)
                                                  ./build/obj/sign.o (symbol from plugin)
falcon_inner_fpr_div                              C:\Users\Ridwane\AppData\Local\Temp\cck5XY5Q.ltrans1.ltrans.o
                                                  ./build/obj/fpr.o (symbol from plugin)
                                                  ./build/obj/fft.o (symbol from plugin)
falcon_inner_fpr_expm_p63                         ./build/obj/fpr.o (symbol from plugin)
                                                  ./build/obj/sign.o (symbol from plugin)
falcon_inner_fpr_gm_tab                           ./build/obj/fpr.o (symbol from plugin)
                                                  ./build/obj/fft.o (symbol from plugin)
falcon_inner_fpr_mul                              C:\Users\Ridwane\AppData\Local\Temp\cck5XY5Q.ltrans1.ltrans.o
                                                  ./build/obj/fpr.o (symbol from plugin)
                                                  ./build/obj/keygen.o (symbol from plugin)
                                                  ./build/obj/fft.o (symbol from plugin)
                                                  ./build/obj/sign.o (symbol from plugin)
falcon_inner_fpr_p2_tab                           ./build/obj/fpr.o (symbol from plugin)
                                                  ./build/obj/fft.o (symbol from plugin)
falcon_inner_fpr_scaled                           C:\Users\Ridwane\AppData\Local\Temp\cck5XY5Q.ltrans1.ltrans.o
                                                  ./build/obj/fpr.o (symbol from plugin)
                                                  ./build/obj/keygen.o (symbol from plugin)
                                                  ./build/obj/sign.o (symbol from plugin)
falcon_inner_fpr_sqrt                             C:\Users\Ridwane\AppData\Local\Temp\cck5XY5Q.ltrans1.ltrans.o
                                                  ./build/obj/fpr.o (symbol from plugin)
                                                  ./build/obj/sign.o (symbol from plugin)
falcon_inner_gaussian0_sampler                    ./build/obj/sign.o (symbol from plugin)
falcon_inner_hash_to_point_ct                     ./build/obj/common.o (symbol from plugin)
falcon_inner_hash_to_point_vartime                ./build/obj/common.o (symbol from plugin)
                                                  ./build/obj/nist.o (symbol from plugin)
falcon_inner_iFFT                                 ./build/obj/fft.o (symbol from plugin)
                                                  ./build/obj/keygen.o (symbol from plugin)
                                                  ./build/obj/sign.o (symbol from plugin)
falcon_inner_i_shake256_extract                   ./build/obj/shake.o (symbol from plugin)
                                                  ./build/obj/rng.o (symbol from plugin)
                                                  ./build/obj/keygen.o (symbol from plugin)
                                                  ./build/obj/common.o (symbol from plugin)
falcon_inner_i_shake256_flip                      ./build/obj/shake.o (symbol from plugin)
                                                  ./build/obj/nist.o (symbol from plugin)
falcon_inner_i_shake256_init                      ./build/obj/shake.o (symbol from plugin)
                                                  ./build/obj/nist.o (symbol from plugin)
falcon_inner_i_shake256_inject                    ./build/obj/shake.o (symbol from plugin)
                                                  ./build/obj/nist.o (symbol from plugin)
falcon_inner_is_invertible                        ./build/obj/vrfy.o (symbol from plugin)
falcon_inner_is_short                             ./build/obj/common.o (symbol from plugin)
                                                  ./build/obj/vrfy.o (symbol from plugin)
falcon_inner_is_short_half                        ./build/obj/common.o (symbol from plugin)
                                                  ./build/obj/sign.o (symbol from plugin)
falcon_inner_keygen                               ./build/obj/keygen.o (symbol from plugin)
                                                  ./build/obj/nist.o (symbol from plugin)
falcon_inner_max_FG_bits                          ./build/obj/codec.o (symbol from plugin)
                                                  ./build/obj/keygen.o (symbol from plugin)
                                                  ./build/obj/nist.o (symbol from plugin)
falcon_inner_max_fg_bits                          ./build/obj/codec.o (symbol from plugin)
                                                  ./build/obj/keygen.o (symbol from plugin)
                                                  ./build/obj/nist.o (symbol from plugin)
falcon_inner_max_sig_bits                         ./build/obj/codec.o (symbol from plugin)
falcon_inner_modq_decode                          ./build/obj/codec.o (symbol from plugin)
                                                  ./build/obj/nist.o (symbol from plugin)
falcon_inner_modq_encode                          ./build/obj/codec.o (symbol from plugin)
                                                  ./build/obj/nist.o (symbol from plugin)
falcon_inner_poly_LDL_fft                         ./build/obj/fft.o (symbol from plugin)
                                                  ./build/obj/sign.o (symbol from plugin)
falcon_inner_poly_LDLmv_fft                       ./build/obj/fft.o (symbol from plugin)
                                                  ./build/obj/sign.o (symbol from plugin)
falcon_inner_poly_add                             ./build/obj/fft.o (symbol from plugin)
                                                  ./build/obj/keygen.o (symbol from plugin)
                                                  ./build/obj/sign.o (symbol from plugin)
falcon_inner_poly_add_muladj_fft                  ./build/obj/fft.o (symbol from plugin)
                                                  ./build/obj/keygen.o (symbol from plugin)
falcon_inner_poly_adj_fft                         ./build/obj/fft.o (symbol from plugin)
                                                  ./build/obj/keygen.o (symbol from plugin)
falcon_inner_poly_div_autoadj_fft                 ./build/obj/fft.o (symbol from plugin)
                                                  ./build/obj/keygen.o (symbol from plugin)
falcon_inner_poly_div_fft                         ./build/obj/fft.o (symbol from plugin)
falcon_inner_poly_invnorm2_fft                    ./build/obj/fft.o (symbol from plugin)
                                                  ./build/obj/keygen.o (symbol from plugin)
falcon_inner_poly_merge_fft                       ./build/obj/fft.o (symbol from plugin)
                                                  ./build/obj/sign.o (symbol from plugin)
falcon_inner_poly_mul_autoadj_fft                 ./build/obj/fft.o (symbol from plugin)
                                                  ./build/obj/keygen.o (symbol from plugin)
falcon_inner_poly_mul_fft                         ./build/obj/fft.o (symbol from plugin)
                                                  ./build/obj/keygen.o (symbol from plugin)
                                                  ./build/obj/sign.o (symbol from plugin)
falcon_inner_poly_muladj_fft                      ./build/obj/fft.o (symbol from plugin)
                                                  ./build/obj/sign.o (symbol from plugin)
falcon_inner_poly_mulconst                        ./build/obj/fft.o (symbol from plugin)
                                                  ./build/obj/keygen.o (symbol from plugin)
                                                  ./build/obj/sign.o (symbol from plugin)
falcon_inner_poly_mulselfadj_fft                  ./build/obj/fft.o (symbol from plugin)
                                                  ./build/obj/sign.o (symbol from plugin)
falcon_inner_poly_neg                             ./build/obj/fft.o (symbol from plugin)
                                                  ./build/obj/sign.o (symbol from plugin)
falcon_inner_poly_split_fft                       ./build/obj/fft.o (symbol from plugin)
                                                  ./build/obj/sign.o (symbol from plugin)
falcon_inner_poly_sub                             ./build/obj/fft.o (symbol from plugin)
                                                  ./build/obj/keygen.o (symbol from plugin)
                                                  ./build/obj/sign.o (symbol from plugin)
falcon_inner_prng_get_bytes                       ./build/obj/rng.o (symbol from plugin)
falcon_inner_prng_init                            ./build/obj/rng.o (symbol from plugin)
                                                  ./build/obj/sign.o (symbol from plugin)
falcon_inner_prng_refill                          ./build/obj/rng.o (symbol from plugin)
                                                  ./build/obj/sign.o (symbol from plugin)
falcon_inner_sampler                              ./build/obj/sign.o (symbol from plugin)
falcon_inner_sign_dyn                             ./build/obj/sign.o (symbol from plugin)
                                                  ./build/obj/nist.o (symbol from plugin)
falcon_inner_sign_tree                            ./build/obj/sign.o (symbol from plugin)
falcon_inner_to_ntt_monty                         ./build/obj/vrfy.o (symbol from plugin)
                                                  ./build/obj/nist.o (symbol from plugin)
falcon_inner_trim_i16_decode                      ./build/obj/codec.o (symbol from plugin)
falcon_inner_trim_i16_encode                      ./build/obj/codec.o (symbol from plugin)
falcon_inner_trim_i8_decode                       ./build/obj/codec.o (symbol from plugin)
                                                  ./build/obj/nist.o (symbol from plugin)
falcon_inner_trim_i8_encode                       ./build/obj/codec.o (symbol from plugin)
                                                  ./build/obj/nist.o (symbol from plugin)
falcon_inner_verify_raw                           ./build/obj/vrfy.o (symbol from plugin)
                                                  ./build/obj/nist.o (symbol from plugin)
falcon_inner_verify_recover                       ./build/obj/vrfy.o (symbol from plugin)
fflush                                            c:/chibistudio/tools/gnu tools arm embedded/11.3 2022.08/bin/../lib/gcc/arm-none-eabi/11.3.1/thumb/v7e-m/nofp\libg_nano.a(libc_a-fflush.o)
fft.c.3c76e387                                    C:\Users\Ridwane\AppData\Local\Temp\cc6Tbp1x.debug.temp.o
                                                  C:\Users\Ridwane\AppData\Local\Temp\cck5XY5Q.ltrans1.ltrans.o
fiprintf                                          c:/chibistudio/tools/gnu tools arm embedded/11.3 2022.08/bin/../lib/gcc/arm-none-eabi/11.3.1/thumb/v7e-m/nofp\libg_nano.a(libc_a-fprintf.o)
                                                  c:/chibistudio/tools/gnu tools arm embedded/11.3 2022.08/bin/../lib/gcc/arm-none-eabi/11.3.1/thumb/v7e-m/nofp\libg_nano.a(libc_a-assert.o)
flashGetAddressOffset                             ./build/obj/hal_flash.o (symbol from plugin)
flashGetOffsetAddress                             ./build/obj/hal_flash.o (symbol from plugin)
flashGetOffsetSector                              ./build/obj/hal_flash.o (symbol from plugin)
flashGetSectorOffset                              ./build/obj/hal_flash.o (symbol from plugin)
flashGetSectorSize                                ./build/obj/hal_flash.o (symbol from plugin)
flashWaitErase                                    ./build/obj/hal_flash.o (symbol from plugin)
fpr.c.e28e5bc6                                    C:\Users\Ridwane\AppData\Local\Temp\cckpXTjt.debug.temp.o
                                                  C:\Users\Ridwane\AppData\Local\Temp\cck5XY5Q.ltrans1.ltrans.o
fprintf                                           c:/chibistudio/tools/gnu tools arm embedded/11.3 2022.08/bin/../lib/gcc/arm-none-eabi/11.3.1/thumb/v7e-m/nofp\libg_nano.a(libc_a-fprintf.o)
free                                              c:/chibistudio/tools/gnu tools arm embedded/11.3 2022.08/bin/../lib/gcc/arm-none-eabi/11.3.1/thumb/v7e-m/nofp\libg_nano.a(libc_a-malloc.o)
hal.c.66946054                                    C:\Users\Ridwane\AppData\Local\Temp\ccGk73vd.debug.temp.o
                                                  C:\Users\Ridwane\AppData\Local\Temp\cck5XY5Q.ltrans1.ltrans.o
halInit                                           ./build/obj/hal.o (symbol from plugin)
                                                  ./build/obj/main.o (symbol from plugin)
hal_buffered_serial.c.985e9b1e                    C:\Users\Ridwane\AppData\Local\Temp\ccEVsw5S.debug.temp.o
hal_buffers.c.dfd8bd49                            C:\Users\Ridwane\AppData\Local\Temp\ccumAU5I.debug.temp.o
hal_efl_lld.c.acf91f76                            C:\Users\Ridwane\AppData\Local\Temp\ccacDEmA.debug.temp.o
hal_flash.c.a881b6cf                              C:\Users\Ridwane\AppData\Local\Temp\ccgBZC8o.debug.temp.o
hal_lld.c.a7f9c98e                                C:\Users\Ridwane\AppData\Local\Temp\ccUToRxG.debug.temp.o
                                                  C:\Users\Ridwane\AppData\Local\Temp\cck5XY5Q.ltrans1.ltrans.o
                                                  C:\Users\Ridwane\AppData\Local\Temp\cck5XY5Q.ltrans0.ltrans.o
hal_lld_init                                      ./build/obj/hal_lld.o (symbol from plugin)
                                                  ./build/obj/hal.o (symbol from plugin)
hal_mmcsd.c.2993bfe9                              C:\Users\Ridwane\AppData\Local\Temp\ccYfUPgf.debug.temp.o
hal_pal.c.0cb65783                                C:\Users\Ridwane\AppData\Local\Temp\ccCiuDk5.debug.temp.o
hal_pal_lld.c.a9836c19                            C:\Users\Ridwane\AppData\Local\Temp\ccyoI2yi.debug.temp.o
                                                  C:\Users\Ridwane\AppData\Local\Temp\cck5XY5Q.ltrans1.ltrans.o
hal_queues.c.10afee71                             C:\Users\Ridwane\AppData\Local\Temp\ccyW4p0y.debug.temp.o
                                                  C:\Users\Ridwane\AppData\Local\Temp\cck5XY5Q.ltrans1.ltrans.o
                                                  C:\Users\Ridwane\AppData\Local\Temp\cck5XY5Q.ltrans0.ltrans.o
hal_serial.c.5a9d6d57                             C:\Users\Ridwane\AppData\Local\Temp\cceQi06Y.debug.temp.o
                                                  C:\Users\Ridwane\AppData\Local\Temp\cck5XY5Q.ltrans1.ltrans.o
                                                  C:\Users\Ridwane\AppData\Local\Temp\cck5XY5Q.ltrans0.ltrans.o
hal_serial_lld.c.062cd1cb                         C:\Users\Ridwane\AppData\Local\Temp\ccmaCS36.debug.temp.o
                                                  C:\Users\Ridwane\AppData\Local\Temp\cck5XY5Q.ltrans1.ltrans.o
                                                  C:\Users\Ridwane\AppData\Local\Temp\cck5XY5Q.ltrans0.ltrans.o
hal_st.c.6e0a1a94                                 C:\Users\Ridwane\AppData\Local\Temp\cca8hNi3.debug.temp.o
                                                  C:\Users\Ridwane\AppData\Local\Temp\cck5XY5Q.ltrans1.ltrans.o
                                                  C:\Users\Ridwane\AppData\Local\Temp\cck5XY5Q.ltrans0.ltrans.o
hal_st_lld.c.ba917bdc                             C:\Users\Ridwane\AppData\Local\Temp\ccshFsOc.debug.temp.o
                                                  C:\Users\Ridwane\AppData\Local\Temp\cck5XY5Q.ltrans1.ltrans.o
                                                  C:\Users\Ridwane\AppData\Local\Temp\cck5XY5Q.ltrans0.ltrans.o
heap1.lto_priv.0                                  C:\Users\Ridwane\AppData\Local\Temp\cck5XY5Q.ltrans0.ltrans.o
                                                  C:\Users\Ridwane\AppData\Local\Temp\cck5XY5Q.ltrans1.ltrans.o
ibqGetEmptyBufferI                                ./build/obj/hal_buffers.o (symbol from plugin)
ibqGetFullBufferTimeout                           ./build/obj/hal_buffers.o (symbol from plugin)
ibqGetFullBufferTimeoutS                          ./build/obj/hal_buffers.o (symbol from plugin)
ibqGetTimeout                                     ./build/obj/hal_buffers.o (symbol from plugin)
ibqObjectInit                                     ./build/obj/hal_buffers.o (symbol from plugin)
ibqPostFullBufferI                                ./build/obj/hal_buffers.o (symbol from plugin)
ibqReadTimeout                                    ./build/obj/hal_buffers.o (symbol from plugin)
ibqReleaseEmptyBuffer                             ./build/obj/hal_buffers.o (symbol from plugin)
ibqReleaseEmptyBufferS                            ./build/obj/hal_buffers.o (symbol from plugin)
ibqResetI                                         ./build/obj/hal_buffers.o (symbol from plugin)
iqGetI                                            ./build/obj/hal_queues.o (symbol from plugin)
iqGetTimeout                                      ./build/obj/hal_queues.o (symbol from plugin)
                                                  ./build/obj/hal_serial.o (symbol from plugin)
iqObjectInit                                      ./build/obj/hal_queues.o (symbol from plugin)
                                                  ./build/obj/hal_serial.o (symbol from plugin)
iqPutI                                            ./build/obj/hal_queues.o (symbol from plugin)
                                                  ./build/obj/hal_serial.o (symbol from plugin)
                                                  ./build/obj/hal_buffered_serial.o (symbol from plugin)
iqReadI                                           ./build/obj/hal_queues.o (symbol from plugin)
iqReadTimeout                                     ./build/obj/hal_queues.o (symbol from plugin)
                                                  ./build/obj/hal_serial.o (symbol from plugin)
iqResetI                                          ./build/obj/hal_queues.o (symbol from plugin)
                                                  ./build/obj/hal_serial.o (symbol from plugin)
irqDeinit                                         ./build/obj/stm32_isr.o (symbol from plugin)
irqInit                                           ./build/obj/stm32_isr.o (symbol from plugin)
                                                  ./build/obj/hal_lld.o (symbol from plugin)
katrng.c.6bc7be8f                                 C:\Users\Ridwane\AppData\Local\Temp\ccaCPxb2.debug.temp.o
                                                  C:\Users\Ridwane\AppData\Local\Temp\cck5XY5Q.ltrans1.ltrans.o
keygen.c.0fda95b5                                 C:\Users\Ridwane\AppData\Local\Temp\cckdwBDo.debug.temp.o
main                                              C:\Users\Ridwane\AppData\Local\Temp\cck5XY5Q.ltrans1.ltrans.o
                                                  ./build/obj/main.o (symbol from plugin)
                                                  ./build/obj/crt0_v7m.o
main.c.043425c3                                   C:\Users\Ridwane\AppData\Local\Temp\ccYFp4wW.debug.temp.o
                                                  C:\Users\Ridwane\AppData\Local\Temp\cck5XY5Q.ltrans1.ltrans.o
malloc                                            c:/chibistudio/tools/gnu tools arm embedded/11.3 2022.08/bin/../lib/gcc/arm-none-eabi/11.3.1/thumb/v7e-m/nofp\libg_nano.a(libc_a-malloc.o)
                                                  c:/chibistudio/tools/gnu tools arm embedded/11.3 2022.08/bin/../lib/gcc/arm-none-eabi/11.3.1/thumb/v7e-m/nofp\libg_nano.a(libc_a-rand.o)
mb1.lto_priv.0                                    C:\Users\Ridwane\AppData\Local\Temp\cck5XY5Q.ltrans0.ltrans.o
                                                  C:\Users\Ridwane\AppData\Local\Temp\cck5XY5Q.ltrans1.ltrans.o
memchr                                            c:/chibistudio/tools/gnu tools arm embedded/11.3 2022.08/bin/../lib/gcc/arm-none-eabi/11.3.1/thumb/v7e-m/nofp\libg_nano.a(libc_a-memchr.o)
                                                  c:/chibistudio/tools/gnu tools arm embedded/11.3 2022.08/bin/../lib/gcc/arm-none-eabi/11.3.1/thumb/v7e-m/nofp\libg_nano.a(libc_a-fvwrite.o)
                                                  c:/chibistudio/tools/gnu tools arm embedded/11.3 2022.08/bin/../lib/gcc/arm-none-eabi/11.3.1/thumb/v7e-m/nofp\libg_nano.a(libc_a-nano-vfprintf_i.o)
                                                  c:/chibistudio/tools/gnu tools arm embedded/11.3 2022.08/bin/../lib/gcc/arm-none-eabi/11.3.1/thumb/v7e-m/nofp\libg_nano.a(libc_a-nano-vfprintf.o)
memcmp                                            c:/chibistudio/tools/gnu tools arm embedded/11.3 2022.08/bin/../lib/gcc/arm-none-eabi/11.3.1/thumb/v7e-m/nofp\libg_nano.a(libc_a-memcmp.o)
                                                  C:\Users\Ridwane\AppData\Local\Temp\cck5XY5Q.ltrans0.ltrans.o
memcpy                                            c:/chibistudio/tools/gnu tools arm embedded/11.3 2022.08/bin/../lib/gcc/arm-none-eabi/11.3.1/thumb/v7e-m/nofp\libg_nano.a(libc_a-memcpy-stub.o)
                                                  C:\Users\Ridwane\AppData\Local\Temp\cck5XY5Q.ltrans1.ltrans.o
                                                  C:\Users\Ridwane\AppData\Local\Temp\cck5XY5Q.ltrans0.ltrans.o
                                                  c:/chibistudio/tools/gnu tools arm embedded/11.3 2022.08/bin/../lib/gcc/arm-none-eabi/11.3.1/thumb/v7e-m/nofp\libg_nano.a(libc_a-reallocr.o)
                                                  c:/chibistudio/tools/gnu tools arm embedded/11.3 2022.08/bin/../lib/gcc/arm-none-eabi/11.3.1/thumb/v7e-m/nofp\libg_nano.a(libc_a-fvwrite.o)
memmove                                           c:/chibistudio/tools/gnu tools arm embedded/11.3 2022.08/bin/../lib/gcc/arm-none-eabi/11.3.1/thumb/v7e-m/nofp\libg_nano.a(libc_a-memmove.o)
                                                  C:\Users\Ridwane\AppData\Local\Temp\cck5XY5Q.ltrans1.ltrans.o
                                                  c:/chibistudio/tools/gnu tools arm embedded/11.3 2022.08/bin/../lib/gcc/arm-none-eabi/11.3.1/thumb/v7e-m/nofp\libg_nano.a(libc_a-fvwrite.o)
memset                                            c:/chibistudio/tools/gnu tools arm embedded/11.3 2022.08/bin/../lib/gcc/arm-none-eabi/11.3.1/thumb/v7e-m/nofp\libg_nano.a(libc_a-memset.o)
                                                  C:\Users\Ridwane\AppData\Local\Temp\cck5XY5Q.ltrans1.ltrans.o
                                                  C:\Users\Ridwane\AppData\Local\Temp\cck5XY5Q.ltrans0.ltrans.o
                                                  c:/chibistudio/tools/gnu tools arm embedded/11.3 2022.08/bin/../lib/gcc/arm-none-eabi/11.3.1/thumb/v7e-m/nofp\libg_nano.a(libc_a-findfp.o)
mp1.lto_priv.0                                    C:\Users\Ridwane\AppData\Local\Temp\cck5XY5Q.ltrans0.ltrans.o
                                                  C:\Users\Ridwane\AppData\Local\Temp\cck5XY5Q.ltrans1.ltrans.o
msObjectInit                                      ./build/obj/chprintf.o (symbol from plugin)
nist.c.664fad53                                   C:\Users\Ridwane\AppData\Local\Temp\ccKQowBM.debug.temp.o
                                                  C:\Users\Ridwane\AppData\Local\Temp\cck5XY5Q.ltrans1.ltrans.o
notify1.lto_priv.0                                C:\Users\Ridwane\AppData\Local\Temp\cck5XY5Q.ltrans0.ltrans.o
                                                  C:\Users\Ridwane\AppData\Local\Temp\cck5XY5Q.ltrans1.ltrans.o
notify2.lto_priv.0                                C:\Users\Ridwane\AppData\Local\Temp\cck5XY5Q.ltrans0.ltrans.o
                                                  C:\Users\Ridwane\AppData\Local\Temp\cck5XY5Q.ltrans1.ltrans.o
nvic.c.477ada9e                                   C:\Users\Ridwane\AppData\Local\Temp\ccKcZOOS.debug.temp.o
                                                  C:\Users\Ridwane\AppData\Local\Temp\cck5XY5Q.ltrans1.ltrans.o
nvicClearPending                                  ./build/obj/nvic.o (symbol from plugin)
nvicDisableVector                                 ./build/obj/nvic.o (symbol from plugin)
                                                  ./build/obj/stm32_isr.o (symbol from plugin)
nvicEnableVector                                  ./build/obj/nvic.o (symbol from plugin)
                                                  ./build/obj/stm32_isr.o (symbol from plugin)
nvicInit                                          ./build/obj/nvic.o (symbol from plugin)
nvicSetPending                                    ./build/obj/nvic.o (symbol from plugin)
nvicSetSystemHandlerPriority                      ./build/obj/nvic.o (symbol from plugin)
obqFlush                                          ./build/obj/hal_buffers.o (symbol from plugin)
obqGetEmptyBufferTimeout                          ./build/obj/hal_buffers.o (symbol from plugin)
obqGetEmptyBufferTimeoutS                         ./build/obj/hal_buffers.o (symbol from plugin)
obqGetFullBufferI                                 ./build/obj/hal_buffers.o (symbol from plugin)
obqObjectInit                                     ./build/obj/hal_buffers.o (symbol from plugin)
obqPostFullBuffer                                 ./build/obj/hal_buffers.o (symbol from plugin)
obqPostFullBufferS                                ./build/obj/hal_buffers.o (symbol from plugin)
obqPutTimeout                                     ./build/obj/hal_buffers.o (symbol from plugin)
obqReleaseEmptyBufferI                            ./build/obj/hal_buffers.o (symbol from plugin)
obqResetI                                         ./build/obj/hal_buffers.o (symbol from plugin)
obqTryFlushI                                      ./build/obj/hal_buffers.o (symbol from plugin)
obqWriteTimeout                                   ./build/obj/hal_buffers.o (symbol from plugin)
oqGetI                                            ./build/obj/hal_queues.o (symbol from plugin)
                                                  ./build/obj/hal_serial_lld.o (symbol from plugin)
                                                  ./build/obj/hal_serial.o (symbol from plugin)
                                                  ./build/obj/hal_buffered_serial.o (symbol from plugin)
oqObjectInit                                      ./build/obj/hal_queues.o (symbol from plugin)
                                                  ./build/obj/hal_serial.o (symbol from plugin)
oqPutI                                            ./build/obj/hal_queues.o (symbol from plugin)
oqPutTimeout                                      ./build/obj/hal_queues.o (symbol from plugin)
                                                  ./build/obj/hal_serial.o (symbol from plugin)
oqResetI                                          ./build/obj/hal_queues.o (symbol from plugin)
                                                  ./build/obj/hal_serial.o (symbol from plugin)
oqWriteI                                          ./build/obj/hal_queues.o (symbol from plugin)
oqWriteTimeout                                    ./build/obj/hal_queues.o (symbol from plugin)
                                                  ./build/obj/hal_serial.o (symbol from plugin)
osal.c.993459b5                                   C:\Users\Ridwane\AppData\Local\Temp\ccCaOZsU.debug.temp.o
oslib_test_001_001_execute.lto_priv.0             C:\Users\Ridwane\AppData\Local\Temp\cck5XY5Q.ltrans0.ltrans.o
                                                  C:\Users\Ridwane\AppData\Local\Temp\cck5XY5Q.ltrans1.ltrans.o
oslib_test_001_002_execute.lto_priv.0             C:\Users\Ridwane\AppData\Local\Temp\cck5XY5Q.ltrans0.ltrans.o
                                                  C:\Users\Ridwane\AppData\Local\Temp\cck5XY5Q.ltrans1.ltrans.o
oslib_test_001_003_execute.lto_priv.0             C:\Users\Ridwane\AppData\Local\Temp\cck5XY5Q.ltrans0.ltrans.o
                                                  C:\Users\Ridwane\AppData\Local\Temp\cck5XY5Q.ltrans1.ltrans.o
oslib_test_002_001_execute.lto_priv.0             C:\Users\Ridwane\AppData\Local\Temp\cck5XY5Q.ltrans0.ltrans.o
                                                  C:\Users\Ridwane\AppData\Local\Temp\cck5XY5Q.ltrans1.ltrans.o
oslib_test_002_001_setup.lto_priv.0               C:\Users\Ridwane\AppData\Local\Temp\cck5XY5Q.ltrans0.ltrans.o
                                                  C:\Users\Ridwane\AppData\Local\Temp\cck5XY5Q.ltrans1.ltrans.o
oslib_test_002_001_teardown.lto_priv.0            C:\Users\Ridwane\AppData\Local\Temp\cck5XY5Q.ltrans0.ltrans.o
                                                  C:\Users\Ridwane\AppData\Local\Temp\cck5XY5Q.ltrans1.ltrans.o
oslib_test_002_002_execute.lto_priv.0             C:\Users\Ridwane\AppData\Local\Temp\cck5XY5Q.ltrans0.ltrans.o
                                                  C:\Users\Ridwane\AppData\Local\Temp\cck5XY5Q.ltrans1.ltrans.o
oslib_test_002_002_setup.lto_priv.0               C:\Users\Ridwane\AppData\Local\Temp\cck5XY5Q.ltrans0.ltrans.o
                                                  C:\Users\Ridwane\AppData\Local\Temp\cck5XY5Q.ltrans1.ltrans.o
oslib_test_002_002_teardown.lto_priv.0            C:\Users\Ridwane\AppData\Local\Temp\cck5XY5Q.ltrans0.ltrans.o
                                                  C:\Users\Ridwane\AppData\Local\Temp\cck5XY5Q.ltrans1.ltrans.o
oslib_test_002_003_execute.lto_priv.0             C:\Users\Ridwane\AppData\Local\Temp\cck5XY5Q.ltrans0.ltrans.o
                                                  C:\Users\Ridwane\AppData\Local\Temp\cck5XY5Q.ltrans1.ltrans.o
oslib_test_002_003_setup.lto_priv.0               C:\Users\Ridwane\AppData\Local\Temp\cck5XY5Q.ltrans0.ltrans.o
                                                  C:\Users\Ridwane\AppData\Local\Temp\cck5XY5Q.ltrans1.ltrans.o
oslib_test_002_003_teardown.lto_priv.0            C:\Users\Ridwane\AppData\Local\Temp\cck5XY5Q.ltrans0.ltrans.o
                                                  C:\Users\Ridwane\AppData\Local\Temp\cck5XY5Q.ltrans1.ltrans.o
oslib_test_003_001_execute.lto_priv.0             C:\Users\Ridwane\AppData\Local\Temp\cck5XY5Q.ltrans0.ltrans.o
                                                  C:\Users\Ridwane\AppData\Local\Temp\cck5XY5Q.ltrans1.ltrans.o
oslib_test_003_001_setup.lto_priv.0               C:\Users\Ridwane\AppData\Local\Temp\cck5XY5Q.ltrans0.ltrans.o
                                                  C:\Users\Ridwane\AppData\Local\Temp\cck5XY5Q.ltrans1.ltrans.o
oslib_test_003_002_execute.lto_priv.0             C:\Users\Ridwane\AppData\Local\Temp\cck5XY5Q.ltrans0.ltrans.o
                                                  C:\Users\Ridwane\AppData\Local\Temp\cck5XY5Q.ltrans1.ltrans.o
oslib_test_003_002_setup.lto_priv.0               C:\Users\Ridwane\AppData\Local\Temp\cck5XY5Q.ltrans0.ltrans.o
                                                  C:\Users\Ridwane\AppData\Local\Temp\cck5XY5Q.ltrans1.ltrans.o
oslib_test_004_001_execute.lto_priv.0             C:\Users\Ridwane\AppData\Local\Temp\cck5XY5Q.ltrans0.ltrans.o
                                                  C:\Users\Ridwane\AppData\Local\Temp\cck5XY5Q.ltrans1.ltrans.o
oslib_test_005_001_execute.lto_priv.0             C:\Users\Ridwane\AppData\Local\Temp\cck5XY5Q.ltrans0.ltrans.o
                                                  C:\Users\Ridwane\AppData\Local\Temp\cck5XY5Q.ltrans1.ltrans.o
oslib_test_006_001_execute.lto_priv.0             C:\Users\Ridwane\AppData\Local\Temp\cck5XY5Q.ltrans0.ltrans.o
                                                  C:\Users\Ridwane\AppData\Local\Temp\cck5XY5Q.ltrans1.ltrans.o
oslib_test_007_001_execute.lto_priv.0             C:\Users\Ridwane\AppData\Local\Temp\cck5XY5Q.ltrans0.ltrans.o
                                                  C:\Users\Ridwane\AppData\Local\Temp\cck5XY5Q.ltrans1.ltrans.o
oslib_test_007_001_setup.lto_priv.0               C:\Users\Ridwane\AppData\Local\Temp\cck5XY5Q.ltrans0.ltrans.o
                                                  C:\Users\Ridwane\AppData\Local\Temp\cck5XY5Q.ltrans1.ltrans.o
oslib_test_007_002_execute.lto_priv.0             C:\Users\Ridwane\AppData\Local\Temp\cck5XY5Q.ltrans0.ltrans.o
                                                  C:\Users\Ridwane\AppData\Local\Temp\cck5XY5Q.ltrans1.ltrans.o
oslib_test_007_002_setup.lto_priv.0               C:\Users\Ridwane\AppData\Local\Temp\cck5XY5Q.ltrans0.ltrans.o
                                                  C:\Users\Ridwane\AppData\Local\Temp\cck5XY5Q.ltrans1.ltrans.o
oslib_test_007_003_execute.lto_priv.0             C:\Users\Ridwane\AppData\Local\Temp\cck5XY5Q.ltrans0.ltrans.o
                                                  C:\Users\Ridwane\AppData\Local\Temp\cck5XY5Q.ltrans1.ltrans.o
oslib_test_007_003_setup.lto_priv.0               C:\Users\Ridwane\AppData\Local\Temp\cck5XY5Q.ltrans0.ltrans.o
                                                  C:\Users\Ridwane\AppData\Local\Temp\cck5XY5Q.ltrans1.ltrans.o
oslib_test_008_001_execute.lto_priv.0             C:\Users\Ridwane\AppData\Local\Temp\cck5XY5Q.ltrans0.ltrans.o
                                                  C:\Users\Ridwane\AppData\Local\Temp\cck5XY5Q.ltrans1.ltrans.o
oslib_test_008_001_setup.lto_priv.0               C:\Users\Ridwane\AppData\Local\Temp\cck5XY5Q.ltrans0.ltrans.o
                                                  C:\Users\Ridwane\AppData\Local\Temp\cck5XY5Q.ltrans1.ltrans.o
oslib_test_root.c.e284c4e2                        C:\Users\Ridwane\AppData\Local\Temp\ccKIgpUN.debug.temp.o
                                                  C:\Users\Ridwane\AppData\Local\Temp\cck5XY5Q.ltrans1.ltrans.o
oslib_test_sequence_001                           ./build/obj/oslib_test_sequence_001.o (symbol from plugin)
                                                  ./build/obj/oslib_test_root.o (symbol from plugin)
oslib_test_sequence_001.c.34f8d6b8                C:\Users\Ridwane\AppData\Local\Temp\ccSWMzoJ.debug.temp.o
                                                  C:\Users\Ridwane\AppData\Local\Temp\cck5XY5Q.ltrans1.ltrans.o
                                                  C:\Users\Ridwane\AppData\Local\Temp\cck5XY5Q.ltrans0.ltrans.o
oslib_test_sequence_001_array                     ./build/obj/oslib_test_sequence_001.o (symbol from plugin)
oslib_test_sequence_002                           ./build/obj/oslib_test_sequence_002.o (symbol from plugin)
                                                  ./build/obj/oslib_test_root.o (symbol from plugin)
oslib_test_sequence_002.c.ca062983                C:\Users\Ridwane\AppData\Local\Temp\ccU7ol6E.debug.temp.o
                                                  C:\Users\Ridwane\AppData\Local\Temp\cck5XY5Q.ltrans1.ltrans.o
                                                  C:\Users\Ridwane\AppData\Local\Temp\cck5XY5Q.ltrans0.ltrans.o
oslib_test_sequence_002_array                     ./build/obj/oslib_test_sequence_002.o (symbol from plugin)
oslib_test_sequence_003                           ./build/obj/oslib_test_sequence_003.o (symbol from plugin)
                                                  ./build/obj/oslib_test_root.o (symbol from plugin)
oslib_test_sequence_003.c.cca91667                C:\Users\Ridwane\AppData\Local\Temp\cc80MbJA.debug.temp.o
                                                  C:\Users\Ridwane\AppData\Local\Temp\cck5XY5Q.ltrans1.ltrans.o
                                                  C:\Users\Ridwane\AppData\Local\Temp\cck5XY5Q.ltrans0.ltrans.o
oslib_test_sequence_003_array                     ./build/obj/oslib_test_sequence_003.o (symbol from plugin)
oslib_test_sequence_004                           ./build/obj/oslib_test_sequence_004.o (symbol from plugin)
                                                  ./build/obj/oslib_test_root.o (symbol from plugin)
oslib_test_sequence_004.c.d0439267                C:\Users\Ridwane\AppData\Local\Temp\ccmUa2lw.debug.temp.o
                                                  C:\Users\Ridwane\AppData\Local\Temp\cck5XY5Q.ltrans1.ltrans.o
                                                  C:\Users\Ridwane\AppData\Local\Temp\cck5XY5Q.ltrans0.ltrans.o
oslib_test_sequence_004_array                     ./build/obj/oslib_test_sequence_004.o (symbol from plugin)
oslib_test_sequence_005                           ./build/obj/oslib_test_sequence_005.o (symbol from plugin)
                                                  ./build/obj/oslib_test_root.o (symbol from plugin)
oslib_test_sequence_005.c.a888feed                C:\Users\Ridwane\AppData\Local\Temp\ccKM3d5r.debug.temp.o
                                                  C:\Users\Ridwane\AppData\Local\Temp\cck5XY5Q.ltrans1.ltrans.o
                                                  C:\Users\Ridwane\AppData\Local\Temp\cck5XY5Q.ltrans0.ltrans.o
oslib_test_sequence_005_array                     ./build/obj/oslib_test_sequence_005.o (symbol from plugin)
oslib_test_sequence_006                           ./build/obj/oslib_test_sequence_006.o (symbol from plugin)
                                                  ./build/obj/oslib_test_root.o (symbol from plugin)
oslib_test_sequence_006.c.4bcb378f                C:\Users\Ridwane\AppData\Local\Temp\cc2rh7Rn.debug.temp.o
                                                  C:\Users\Ridwane\AppData\Local\Temp\cck5XY5Q.ltrans1.ltrans.o
                                                  C:\Users\Ridwane\AppData\Local\Temp\cck5XY5Q.ltrans0.ltrans.o
oslib_test_sequence_006_array                     ./build/obj/oslib_test_sequence_006.o (symbol from plugin)
oslib_test_sequence_007                           ./build/obj/oslib_test_sequence_007.o (symbol from plugin)
                                                  ./build/obj/oslib_test_root.o (symbol from plugin)
oslib_test_sequence_007.c.f4b9492f                C:\Users\Ridwane\AppData\Local\Temp\cck7u0Ej.debug.temp.o
                                                  C:\Users\Ridwane\AppData\Local\Temp\cck5XY5Q.ltrans1.ltrans.o
                                                  C:\Users\Ridwane\AppData\Local\Temp\cck5XY5Q.ltrans0.ltrans.o
oslib_test_sequence_007_array                     ./build/obj/oslib_test_sequence_007.o (symbol from plugin)
oslib_test_sequence_008                           ./build/obj/oslib_test_sequence_008.o (symbol from plugin)
                                                  ./build/obj/oslib_test_root.o (symbol from plugin)
oslib_test_sequence_008.c.9a1e4e3f                C:\Users\Ridwane\AppData\Local\Temp\cccLAAFf.debug.temp.o
                                                  C:\Users\Ridwane\AppData\Local\Temp\cck5XY5Q.ltrans1.ltrans.o
                                                  C:\Users\Ridwane\AppData\Local\Temp\cck5XY5Q.ltrans0.ltrans.o
oslib_test_sequence_008_array                     ./build/obj/oslib_test_sequence_008.o (symbol from plugin)
oslib_test_sequence_009                           ./build/obj/oslib_test_sequence_009.o (symbol from plugin)
                                                  ./build/obj/oslib_test_root.o (symbol from plugin)
oslib_test_sequence_009.c.2f3d119b                C:\Users\Ridwane\AppData\Local\Temp\ccaYCeBb.debug.temp.o
                                                  C:\Users\Ridwane\AppData\Local\Temp\cck5XY5Q.ltrans1.ltrans.o
oslib_test_sequence_009_array                     ./build/obj/oslib_test_sequence_009.o (symbol from plugin)
oslib_test_suite                                  ./build/obj/oslib_test_root.o (symbol from plugin)
                                                  ./build/obj/main.o (symbol from plugin)
oslib_test_suite_array                            ./build/obj/oslib_test_root.o (symbol from plugin)
palReadBus                                        ./build/obj/hal_pal.o (symbol from plugin)
palSetBusMode                                     ./build/obj/hal_pal.o (symbol from plugin)
palWriteBus                                       ./build/obj/hal_pal.o (symbol from plugin)
pipe1.lto_priv.0                                  C:\Users\Ridwane\AppData\Local\Temp\cck5XY5Q.ltrans0.ltrans.o
                                                  C:\Users\Ridwane\AppData\Local\Temp\cck5XY5Q.ltrans1.ltrans.o
pipe_pattern.lto_priv.0                           C:\Users\Ridwane\AppData\Local\Temp\cck5XY5Q.ltrans0.ltrans.o
                                                  C:\Users\Ridwane\AppData\Local\Temp\cck5XY5Q.ltrans1.ltrans.o
port_init                                         ./build/obj/chcore.o (symbol from plugin)
                                                  ./build/obj/chinstances.o (symbol from plugin)
raise                                             c:/chibistudio/tools/gnu tools arm embedded/11.3 2022.08/bin/../lib/gcc/arm-none-eabi/11.3.1/thumb/v7e-m/nofp\libg_nano.a(libc_a-signal.o)
                                                  c:/chibistudio/tools/gnu tools arm embedded/11.3 2022.08/bin/../lib/gcc/arm-none-eabi/11.3.1/thumb/v7e-m/nofp\libg_nano.a(libc_a-abort.o)
rand                                              c:/chibistudio/tools/gnu tools arm embedded/11.3 2022.08/bin/../lib/gcc/arm-none-eabi/11.3.1/thumb/v7e-m/nofp\libg_nano.a(libc_a-rand.o)
                                                  C:\Users\Ridwane\AppData\Local\Temp\cck5XY5Q.ltrans1.ltrans.o
                                                  ./build/obj/main.o (symbol from plugin)
randombytes                                       ./build/obj/katrng.o (symbol from plugin)
                                                  ./build/obj/nist.o (symbol from plugin)
randombytes_init                                  ./build/obj/katrng.o (symbol from plugin)
rng.c.aa975aa3                                    C:\Users\Ridwane\AppData\Local\Temp\ccE7SD0i.debug.temp.o
                                                  C:\Users\Ridwane\AppData\Local\Temp\cck5XY5Q.ltrans1.ltrans.o
rt_test_001_001_execute.lto_priv.0                C:\Users\Ridwane\AppData\Local\Temp\cck5XY5Q.ltrans0.ltrans.o
                                                  C:\Users\Ridwane\AppData\Local\Temp\cck5XY5Q.ltrans1.ltrans.o
rt_test_001_002_execute.lto_priv.0                C:\Users\Ridwane\AppData\Local\Temp\cck5XY5Q.ltrans0.ltrans.o
                                                  C:\Users\Ridwane\AppData\Local\Temp\cck5XY5Q.ltrans1.ltrans.o
rt_test_001_003_execute.lto_priv.0                C:\Users\Ridwane\AppData\Local\Temp\cck5XY5Q.ltrans0.ltrans.o
                                                  C:\Users\Ridwane\AppData\Local\Temp\cck5XY5Q.ltrans1.ltrans.o
rt_test_002_001_execute.lto_priv.0                C:\Users\Ridwane\AppData\Local\Temp\cck5XY5Q.ltrans0.ltrans.o
                                                  C:\Users\Ridwane\AppData\Local\Temp\cck5XY5Q.ltrans1.ltrans.o
rt_test_002_002_execute.lto_priv.0                C:\Users\Ridwane\AppData\Local\Temp\cck5XY5Q.ltrans0.ltrans.o
                                                  C:\Users\Ridwane\AppData\Local\Temp\cck5XY5Q.ltrans1.ltrans.o
rt_test_002_003_execute.lto_priv.0                C:\Users\Ridwane\AppData\Local\Temp\cck5XY5Q.ltrans0.ltrans.o
                                                  C:\Users\Ridwane\AppData\Local\Temp\cck5XY5Q.ltrans1.ltrans.o
rt_test_003_001_execute.lto_priv.0                C:\Users\Ridwane\AppData\Local\Temp\cck5XY5Q.ltrans0.ltrans.o
                                                  C:\Users\Ridwane\AppData\Local\Temp\cck5XY5Q.ltrans1.ltrans.o
rt_test_003_002_execute.lto_priv.0                C:\Users\Ridwane\AppData\Local\Temp\cck5XY5Q.ltrans0.ltrans.o
                                                  C:\Users\Ridwane\AppData\Local\Temp\cck5XY5Q.ltrans1.ltrans.o
rt_test_004_001_execute.lto_priv.0                C:\Users\Ridwane\AppData\Local\Temp\cck5XY5Q.ltrans0.ltrans.o
                                                  C:\Users\Ridwane\AppData\Local\Temp\cck5XY5Q.ltrans1.ltrans.o
rt_test_005_001_execute.lto_priv.0                C:\Users\Ridwane\AppData\Local\Temp\cck5XY5Q.ltrans0.ltrans.o
                                                  C:\Users\Ridwane\AppData\Local\Temp\cck5XY5Q.ltrans1.ltrans.o
rt_test_005_002_execute.lto_priv.0                C:\Users\Ridwane\AppData\Local\Temp\cck5XY5Q.ltrans0.ltrans.o
                                                  C:\Users\Ridwane\AppData\Local\Temp\cck5XY5Q.ltrans1.ltrans.o
rt_test_005_003_execute.lto_priv.0                C:\Users\Ridwane\AppData\Local\Temp\cck5XY5Q.ltrans0.ltrans.o
                                                  C:\Users\Ridwane\AppData\Local\Temp\cck5XY5Q.ltrans1.ltrans.o
rt_test_005_004_execute.lto_priv.0                C:\Users\Ridwane\AppData\Local\Temp\cck5XY5Q.ltrans0.ltrans.o
                                                  C:\Users\Ridwane\AppData\Local\Temp\cck5XY5Q.ltrans1.ltrans.o
rt_test_006_001_execute.lto_priv.0                C:\Users\Ridwane\AppData\Local\Temp\cck5XY5Q.ltrans0.ltrans.o
                                                  C:\Users\Ridwane\AppData\Local\Temp\cck5XY5Q.ltrans1.ltrans.o
rt_test_006_001_setup.lto_priv.0                  C:\Users\Ridwane\AppData\Local\Temp\cck5XY5Q.ltrans0.ltrans.o
                                                  C:\Users\Ridwane\AppData\Local\Temp\cck5XY5Q.ltrans1.ltrans.o
rt_test_007_001_execute.lto_priv.0                C:\Users\Ridwane\AppData\Local\Temp\cck5XY5Q.ltrans0.ltrans.o
                                                  C:\Users\Ridwane\AppData\Local\Temp\cck5XY5Q.ltrans1.ltrans.o
rt_test_007_001_setup.lto_priv.0                  C:\Users\Ridwane\AppData\Local\Temp\cck5XY5Q.ltrans0.ltrans.o
                                                  C:\Users\Ridwane\AppData\Local\Temp\cck5XY5Q.ltrans1.ltrans.o
rt_test_007_001_teardown.lto_priv.0               C:\Users\Ridwane\AppData\Local\Temp\cck5XY5Q.ltrans0.ltrans.o
                                                  C:\Users\Ridwane\AppData\Local\Temp\cck5XY5Q.ltrans1.ltrans.o
rt_test_007_002_execute.lto_priv.0                C:\Users\Ridwane\AppData\Local\Temp\cck5XY5Q.ltrans0.ltrans.o
                                                  C:\Users\Ridwane\AppData\Local\Temp\cck5XY5Q.ltrans1.ltrans.o
rt_test_007_002_setup.lto_priv.0                  C:\Users\Ridwane\AppData\Local\Temp\cck5XY5Q.ltrans0.ltrans.o
                                                  C:\Users\Ridwane\AppData\Local\Temp\cck5XY5Q.ltrans1.ltrans.o
rt_test_007_003_execute.lto_priv.0                C:\Users\Ridwane\AppData\Local\Temp\cck5XY5Q.ltrans0.ltrans.o
                                                  C:\Users\Ridwane\AppData\Local\Temp\cck5XY5Q.ltrans1.ltrans.o
rt_test_007_003_setup.lto_priv.0                  C:\Users\Ridwane\AppData\Local\Temp\cck5XY5Q.ltrans0.ltrans.o
                                                  C:\Users\Ridwane\AppData\Local\Temp\cck5XY5Q.ltrans1.ltrans.o
rt_test_007_004_execute.lto_priv.0                C:\Users\Ridwane\AppData\Local\Temp\cck5XY5Q.ltrans0.ltrans.o
                                                  C:\Users\Ridwane\AppData\Local\Temp\cck5XY5Q.ltrans1.ltrans.o
rt_test_007_004_setup.lto_priv.0                  C:\Users\Ridwane\AppData\Local\Temp\cck5XY5Q.ltrans0.ltrans.o
                                                  C:\Users\Ridwane\AppData\Local\Temp\cck5XY5Q.ltrans1.ltrans.o
rt_test_007_005_execute.lto_priv.0                C:\Users\Ridwane\AppData\Local\Temp\cck5XY5Q.ltrans0.ltrans.o
                                                  C:\Users\Ridwane\AppData\Local\Temp\cck5XY5Q.ltrans1.ltrans.o
rt_test_007_005_setup.lto_priv.0                  C:\Users\Ridwane\AppData\Local\Temp\cck5XY5Q.ltrans0.ltrans.o
                                                  C:\Users\Ridwane\AppData\Local\Temp\cck5XY5Q.ltrans1.ltrans.o
rt_test_007_005_teardown.lto_priv.0               C:\Users\Ridwane\AppData\Local\Temp\cck5XY5Q.ltrans0.ltrans.o
                                                  C:\Users\Ridwane\AppData\Local\Temp\cck5XY5Q.ltrans1.ltrans.o
rt_test_007_006_execute.lto_priv.0                C:\Users\Ridwane\AppData\Local\Temp\cck5XY5Q.ltrans0.ltrans.o
                                                  C:\Users\Ridwane\AppData\Local\Temp\cck5XY5Q.ltrans1.ltrans.o
rt_test_007_006_teardown.lto_priv.0               C:\Users\Ridwane\AppData\Local\Temp\cck5XY5Q.ltrans0.ltrans.o
                                                  C:\Users\Ridwane\AppData\Local\Temp\cck5XY5Q.ltrans1.ltrans.o
rt_test_008_001_execute.lto_priv.0                C:\Users\Ridwane\AppData\Local\Temp\cck5XY5Q.ltrans0.ltrans.o
                                                  C:\Users\Ridwane\AppData\Local\Temp\cck5XY5Q.ltrans1.ltrans.o
rt_test_008_001_setup.lto_priv.0                  C:\Users\Ridwane\AppData\Local\Temp\cck5XY5Q.ltrans0.ltrans.o
                                                  C:\Users\Ridwane\AppData\Local\Temp\cck5XY5Q.ltrans1.ltrans.o
rt_test_008_004_execute.lto_priv.0                C:\Users\Ridwane\AppData\Local\Temp\cck5XY5Q.ltrans0.ltrans.o
                                                  C:\Users\Ridwane\AppData\Local\Temp\cck5XY5Q.ltrans1.ltrans.o
rt_test_008_004_setup.lto_priv.0                  C:\Users\Ridwane\AppData\Local\Temp\cck5XY5Q.ltrans0.ltrans.o
                                                  C:\Users\Ridwane\AppData\Local\Temp\cck5XY5Q.ltrans1.ltrans.o
rt_test_008_004_teardown.lto_priv.0               C:\Users\Ridwane\AppData\Local\Temp\cck5XY5Q.ltrans0.ltrans.o
                                                  C:\Users\Ridwane\AppData\Local\Temp\cck5XY5Q.ltrans1.ltrans.o
rt_test_008_005_execute.lto_priv.0                C:\Users\Ridwane\AppData\Local\Temp\cck5XY5Q.ltrans0.ltrans.o
                                                  C:\Users\Ridwane\AppData\Local\Temp\cck5XY5Q.ltrans1.ltrans.o
rt_test_008_005_setup.lto_priv.0                  C:\Users\Ridwane\AppData\Local\Temp\cck5XY5Q.ltrans0.ltrans.o
                                                  C:\Users\Ridwane\AppData\Local\Temp\cck5XY5Q.ltrans1.ltrans.o
rt_test_008_007_execute.lto_priv.0                C:\Users\Ridwane\AppData\Local\Temp\cck5XY5Q.ltrans0.ltrans.o
                                                  C:\Users\Ridwane\AppData\Local\Temp\cck5XY5Q.ltrans1.ltrans.o
rt_test_008_007_setup.lto_priv.0                  C:\Users\Ridwane\AppData\Local\Temp\cck5XY5Q.ltrans0.ltrans.o
                                                  C:\Users\Ridwane\AppData\Local\Temp\cck5XY5Q.ltrans1.ltrans.o
rt_test_008_008_execute.lto_priv.0                C:\Users\Ridwane\AppData\Local\Temp\cck5XY5Q.ltrans0.ltrans.o
                                                  C:\Users\Ridwane\AppData\Local\Temp\cck5XY5Q.ltrans1.ltrans.o
rt_test_008_008_setup.lto_priv.0                  C:\Users\Ridwane\AppData\Local\Temp\cck5XY5Q.ltrans0.ltrans.o
                                                  C:\Users\Ridwane\AppData\Local\Temp\cck5XY5Q.ltrans1.ltrans.o
rt_test_008_009_execute.lto_priv.0                C:\Users\Ridwane\AppData\Local\Temp\cck5XY5Q.ltrans0.ltrans.o
                                                  C:\Users\Ridwane\AppData\Local\Temp\cck5XY5Q.ltrans1.ltrans.o
rt_test_008_009_setup.lto_priv.0                  C:\Users\Ridwane\AppData\Local\Temp\cck5XY5Q.ltrans0.ltrans.o
                                                  C:\Users\Ridwane\AppData\Local\Temp\cck5XY5Q.ltrans1.ltrans.o
rt_test_009_001_execute.lto_priv.0                C:\Users\Ridwane\AppData\Local\Temp\cck5XY5Q.ltrans0.ltrans.o
                                                  C:\Users\Ridwane\AppData\Local\Temp\cck5XY5Q.ltrans1.ltrans.o
rt_test_010_001_execute.lto_priv.0                C:\Users\Ridwane\AppData\Local\Temp\cck5XY5Q.ltrans0.ltrans.o
                                                  C:\Users\Ridwane\AppData\Local\Temp\cck5XY5Q.ltrans1.ltrans.o
rt_test_010_002_execute.lto_priv.0                C:\Users\Ridwane\AppData\Local\Temp\cck5XY5Q.ltrans0.ltrans.o
                                                  C:\Users\Ridwane\AppData\Local\Temp\cck5XY5Q.ltrans1.ltrans.o
rt_test_010_002_setup.lto_priv.0                  C:\Users\Ridwane\AppData\Local\Temp\cck5XY5Q.ltrans0.ltrans.o
                                                  C:\Users\Ridwane\AppData\Local\Temp\cck5XY5Q.ltrans1.ltrans.o
rt_test_010_003_execute.lto_priv.0                C:\Users\Ridwane\AppData\Local\Temp\cck5XY5Q.ltrans0.ltrans.o
                                                  C:\Users\Ridwane\AppData\Local\Temp\cck5XY5Q.ltrans1.ltrans.o
rt_test_010_003_setup.lto_priv.0                  C:\Users\Ridwane\AppData\Local\Temp\cck5XY5Q.ltrans0.ltrans.o
                                                  C:\Users\Ridwane\AppData\Local\Temp\cck5XY5Q.ltrans1.ltrans.o
rt_test_010_004_execute.lto_priv.0                C:\Users\Ridwane\AppData\Local\Temp\cck5XY5Q.ltrans0.ltrans.o
                                                  C:\Users\Ridwane\AppData\Local\Temp\cck5XY5Q.ltrans1.ltrans.o
rt_test_010_004_setup.lto_priv.0                  C:\Users\Ridwane\AppData\Local\Temp\cck5XY5Q.ltrans0.ltrans.o
                                                  C:\Users\Ridwane\AppData\Local\Temp\cck5XY5Q.ltrans1.ltrans.o
rt_test_010_005_execute.lto_priv.0                C:\Users\Ridwane\AppData\Local\Temp\cck5XY5Q.ltrans0.ltrans.o
                                                  C:\Users\Ridwane\AppData\Local\Temp\cck5XY5Q.ltrans1.ltrans.o
rt_test_010_005_setup.lto_priv.0                  C:\Users\Ridwane\AppData\Local\Temp\cck5XY5Q.ltrans0.ltrans.o
                                                  C:\Users\Ridwane\AppData\Local\Temp\cck5XY5Q.ltrans1.ltrans.o
rt_test_010_006_execute.lto_priv.0                C:\Users\Ridwane\AppData\Local\Temp\cck5XY5Q.ltrans0.ltrans.o
                                                  C:\Users\Ridwane\AppData\Local\Temp\cck5XY5Q.ltrans1.ltrans.o
rt_test_010_006_setup.lto_priv.0                  C:\Users\Ridwane\AppData\Local\Temp\cck5XY5Q.ltrans0.ltrans.o
                                                  C:\Users\Ridwane\AppData\Local\Temp\cck5XY5Q.ltrans1.ltrans.o
rt_test_010_007_execute.lto_priv.0                C:\Users\Ridwane\AppData\Local\Temp\cck5XY5Q.ltrans0.ltrans.o
                                                  C:\Users\Ridwane\AppData\Local\Temp\cck5XY5Q.ltrans1.ltrans.o
rt_test_010_007_setup.lto_priv.0                  C:\Users\Ridwane\AppData\Local\Temp\cck5XY5Q.ltrans0.ltrans.o
                                                  C:\Users\Ridwane\AppData\Local\Temp\cck5XY5Q.ltrans1.ltrans.o
rt_test_011_001_execute.lto_priv.0                C:\Users\Ridwane\AppData\Local\Temp\cck5XY5Q.ltrans0.ltrans.o
                                                  C:\Users\Ridwane\AppData\Local\Temp\cck5XY5Q.ltrans1.ltrans.o
rt_test_011_001_setup.lto_priv.0                  C:\Users\Ridwane\AppData\Local\Temp\cck5XY5Q.ltrans0.ltrans.o
                                                  C:\Users\Ridwane\AppData\Local\Temp\cck5XY5Q.ltrans1.ltrans.o
rt_test_011_002_execute.lto_priv.0                C:\Users\Ridwane\AppData\Local\Temp\cck5XY5Q.ltrans0.ltrans.o
                                                  C:\Users\Ridwane\AppData\Local\Temp\cck5XY5Q.ltrans1.ltrans.o
rt_test_011_002_setup.lto_priv.0                  C:\Users\Ridwane\AppData\Local\Temp\cck5XY5Q.ltrans0.ltrans.o
                                                  C:\Users\Ridwane\AppData\Local\Temp\cck5XY5Q.ltrans1.ltrans.o
rt_test_012_001_execute.lto_priv.0                C:\Users\Ridwane\AppData\Local\Temp\cck5XY5Q.ltrans0.ltrans.o
                                                  C:\Users\Ridwane\AppData\Local\Temp\cck5XY5Q.ltrans1.ltrans.o
rt_test_012_002_execute.lto_priv.0                C:\Users\Ridwane\AppData\Local\Temp\cck5XY5Q.ltrans0.ltrans.o
                                                  C:\Users\Ridwane\AppData\Local\Temp\cck5XY5Q.ltrans1.ltrans.o
rt_test_012_003_execute.lto_priv.0                C:\Users\Ridwane\AppData\Local\Temp\cck5XY5Q.ltrans0.ltrans.o
                                                  C:\Users\Ridwane\AppData\Local\Temp\cck5XY5Q.ltrans1.ltrans.o
rt_test_012_004_execute.lto_priv.0                C:\Users\Ridwane\AppData\Local\Temp\cck5XY5Q.ltrans0.ltrans.o
                                                  C:\Users\Ridwane\AppData\Local\Temp\cck5XY5Q.ltrans1.ltrans.o
rt_test_012_005_execute.lto_priv.0                C:\Users\Ridwane\AppData\Local\Temp\cck5XY5Q.ltrans0.ltrans.o
                                                  C:\Users\Ridwane\AppData\Local\Temp\cck5XY5Q.ltrans1.ltrans.o
rt_test_012_006_execute.lto_priv.0                C:\Users\Ridwane\AppData\Local\Temp\cck5XY5Q.ltrans0.ltrans.o
                                                  C:\Users\Ridwane\AppData\Local\Temp\cck5XY5Q.ltrans1.ltrans.o
rt_test_012_007_execute.lto_priv.0                C:\Users\Ridwane\AppData\Local\Temp\cck5XY5Q.ltrans0.ltrans.o
                                                  C:\Users\Ridwane\AppData\Local\Temp\cck5XY5Q.ltrans1.ltrans.o
rt_test_012_007_setup.lto_priv.0                  C:\Users\Ridwane\AppData\Local\Temp\cck5XY5Q.ltrans0.ltrans.o
                                                  C:\Users\Ridwane\AppData\Local\Temp\cck5XY5Q.ltrans1.ltrans.o
rt_test_012_008_execute.lto_priv.0                C:\Users\Ridwane\AppData\Local\Temp\cck5XY5Q.ltrans0.ltrans.o
                                                  C:\Users\Ridwane\AppData\Local\Temp\cck5XY5Q.ltrans1.ltrans.o
rt_test_012_009_execute.lto_priv.0                C:\Users\Ridwane\AppData\Local\Temp\cck5XY5Q.ltrans0.ltrans.o
                                                  C:\Users\Ridwane\AppData\Local\Temp\cck5XY5Q.ltrans1.ltrans.o
rt_test_012_010_execute.lto_priv.0                C:\Users\Ridwane\AppData\Local\Temp\cck5XY5Q.ltrans0.ltrans.o
                                                  C:\Users\Ridwane\AppData\Local\Temp\cck5XY5Q.ltrans1.ltrans.o
rt_test_012_010_setup.lto_priv.0                  C:\Users\Ridwane\AppData\Local\Temp\cck5XY5Q.ltrans0.ltrans.o
                                                  C:\Users\Ridwane\AppData\Local\Temp\cck5XY5Q.ltrans1.ltrans.o
rt_test_012_011_execute.lto_priv.0                C:\Users\Ridwane\AppData\Local\Temp\cck5XY5Q.ltrans0.ltrans.o
                                                  C:\Users\Ridwane\AppData\Local\Temp\cck5XY5Q.ltrans1.ltrans.o
rt_test_012_011_setup.lto_priv.0                  C:\Users\Ridwane\AppData\Local\Temp\cck5XY5Q.ltrans0.ltrans.o
                                                  C:\Users\Ridwane\AppData\Local\Temp\cck5XY5Q.ltrans1.ltrans.o
rt_test_012_012_execute.lto_priv.0                C:\Users\Ridwane\AppData\Local\Temp\cck5XY5Q.ltrans0.ltrans.o
                                                  C:\Users\Ridwane\AppData\Local\Temp\cck5XY5Q.ltrans1.ltrans.o
rt_test_root.c.0290d465                           C:\Users\Ridwane\AppData\Local\Temp\ccqQ2iMF.debug.temp.o
                                                  C:\Users\Ridwane\AppData\Local\Temp\cck5XY5Q.ltrans1.ltrans.o
                                                  C:\Users\Ridwane\AppData\Local\Temp\cck5XY5Q.ltrans0.ltrans.o
rt_test_sequence_001                              ./build/obj/rt_test_sequence_001.o (symbol from plugin)
                                                  ./build/obj/rt_test_root.o (symbol from plugin)
rt_test_sequence_001.c.a05e5700                   C:\Users\Ridwane\AppData\Local\Temp\ccEVkd8x.debug.temp.o
                                                  C:\Users\Ridwane\AppData\Local\Temp\cck5XY5Q.ltrans1.ltrans.o
                                                  C:\Users\Ridwane\AppData\Local\Temp\cck5XY5Q.ltrans0.ltrans.o
rt_test_sequence_001_array                        ./build/obj/rt_test_sequence_001.o (symbol from plugin)
rt_test_sequence_002                              ./build/obj/rt_test_sequence_002.o (symbol from plugin)
                                                  ./build/obj/rt_test_root.o (symbol from plugin)
rt_test_sequence_002.c.7693c634                   C:\Users\Ridwane\AppData\Local\Temp\ccM31Udu.debug.temp.o
                                                  C:\Users\Ridwane\AppData\Local\Temp\cck5XY5Q.ltrans1.ltrans.o
                                                  C:\Users\Ridwane\AppData\Local\Temp\cck5XY5Q.ltrans0.ltrans.o
rt_test_sequence_002_array                        ./build/obj/rt_test_sequence_002.o (symbol from plugin)
rt_test_sequence_003                              ./build/obj/rt_test_sequence_003.o (symbol from plugin)
                                                  ./build/obj/rt_test_root.o (symbol from plugin)
rt_test_sequence_003.c.e62b3365                   C:\Users\Ridwane\AppData\Local\Temp\cceEa8eq.debug.temp.o
                                                  C:\Users\Ridwane\AppData\Local\Temp\cck5XY5Q.ltrans1.ltrans.o
                                                  C:\Users\Ridwane\AppData\Local\Temp\cck5XY5Q.ltrans0.ltrans.o
rt_test_sequence_003_array                        ./build/obj/rt_test_sequence_003.o (symbol from plugin)
rt_test_sequence_004                              ./build/obj/rt_test_sequence_004.o (symbol from plugin)
                                                  ./build/obj/rt_test_root.o (symbol from plugin)
rt_test_sequence_004.c.af972b59                   C:\Users\Ridwane\AppData\Local\Temp\ccOU8tkm.debug.temp.o
                                                  C:\Users\Ridwane\AppData\Local\Temp\cck5XY5Q.ltrans1.ltrans.o
                                                  C:\Users\Ridwane\AppData\Local\Temp\cck5XY5Q.ltrans0.ltrans.o
rt_test_sequence_004_array                        ./build/obj/rt_test_sequence_004.o (symbol from plugin)
rt_test_sequence_005                              ./build/obj/rt_test_sequence_005.o (symbol from plugin)
                                                  ./build/obj/rt_test_root.o (symbol from plugin)
rt_test_sequence_005.c.f415dd57                   C:\Users\Ridwane\AppData\Local\Temp\ccob7Ppi.debug.temp.o
                                                  C:\Users\Ridwane\AppData\Local\Temp\cck5XY5Q.ltrans1.ltrans.o
                                                  C:\Users\Ridwane\AppData\Local\Temp\cck5XY5Q.ltrans0.ltrans.o
rt_test_sequence_005_array                        ./build/obj/rt_test_sequence_005.o (symbol from plugin)
rt_test_sequence_006                              ./build/obj/rt_test_sequence_006.o (symbol from plugin)
                                                  ./build/obj/rt_test_root.o (symbol from plugin)
rt_test_sequence_006.c.fb9291de                   C:\Users\Ridwane\AppData\Local\Temp\ccQlUMIe.debug.temp.o
                                                  C:\Users\Ridwane\AppData\Local\Temp\cck5XY5Q.ltrans1.ltrans.o
                                                  C:\Users\Ridwane\AppData\Local\Temp\cck5XY5Q.ltrans0.ltrans.o
rt_test_sequence_006_array                        ./build/obj/rt_test_sequence_006.o (symbol from plugin)
rt_test_sequence_007                              ./build/obj/rt_test_sequence_007.o (symbol from plugin)
                                                  ./build/obj/rt_test_root.o (symbol from plugin)
rt_test_sequence_007.c.9d832a79                   C:\Users\Ridwane\AppData\Local\Temp\ccYXASWa.debug.temp.o
                                                  C:\Users\Ridwane\AppData\Local\Temp\cck5XY5Q.ltrans1.ltrans.o
                                                  C:\Users\Ridwane\AppData\Local\Temp\cck5XY5Q.ltrans0.ltrans.o
rt_test_sequence_007_array                        ./build/obj/rt_test_sequence_007.o (symbol from plugin)
rt_test_sequence_008                              ./build/obj/rt_test_sequence_008.o (symbol from plugin)
                                                  ./build/obj/rt_test_root.o (symbol from plugin)
rt_test_sequence_008.c.2cfdc47d                   C:\Users\Ridwane\AppData\Local\Temp\ccQl65o7.debug.temp.o
                                                  C:\Users\Ridwane\AppData\Local\Temp\cck5XY5Q.ltrans1.ltrans.o
                                                  C:\Users\Ridwane\AppData\Local\Temp\cck5XY5Q.ltrans0.ltrans.o
rt_test_sequence_008_array                        ./build/obj/rt_test_sequence_008.o (symbol from plugin)
rt_test_sequence_009                              ./build/obj/rt_test_sequence_009.o (symbol from plugin)
                                                  ./build/obj/rt_test_root.o (symbol from plugin)
rt_test_sequence_009.c.6a20c73f                   C:\Users\Ridwane\AppData\Local\Temp\ccIJBjR3.debug.temp.o
                                                  C:\Users\Ridwane\AppData\Local\Temp\cck5XY5Q.ltrans1.ltrans.o
                                                  C:\Users\Ridwane\AppData\Local\Temp\cck5XY5Q.ltrans0.ltrans.o
rt_test_sequence_009_array                        ./build/obj/rt_test_sequence_009.o (symbol from plugin)
rt_test_sequence_010                              ./build/obj/rt_test_sequence_010.o (symbol from plugin)
                                                  ./build/obj/rt_test_root.o (symbol from plugin)
rt_test_sequence_010.c.c9f22a43                   C:\Users\Ridwane\AppData\Local\Temp\ccqOnHe0.debug.temp.o
                                                  C:\Users\Ridwane\AppData\Local\Temp\cck5XY5Q.ltrans1.ltrans.o
                                                  C:\Users\Ridwane\AppData\Local\Temp\cck5XY5Q.ltrans0.ltrans.o
rt_test_sequence_010_array                        ./build/obj/rt_test_sequence_010.o (symbol from plugin)
rt_test_sequence_011                              ./build/obj/rt_test_sequence_011.o (symbol from plugin)
                                                  ./build/obj/rt_test_root.o (symbol from plugin)
rt_test_sequence_011.c.37d2c6e9                   C:\Users\Ridwane\AppData\Local\Temp\ccmgUaPW.debug.temp.o
                                                  C:\Users\Ridwane\AppData\Local\Temp\cck5XY5Q.ltrans1.ltrans.o
                                                  C:\Users\Ridwane\AppData\Local\Temp\cck5XY5Q.ltrans0.ltrans.o
rt_test_sequence_011_array                        ./build/obj/rt_test_sequence_011.o (symbol from plugin)
rt_test_sequence_012                              ./build/obj/rt_test_sequence_012.o (symbol from plugin)
                                                  ./build/obj/rt_test_root.o (symbol from plugin)
rt_test_sequence_012.c.57880f65                   C:\Users\Ridwane\AppData\Local\Temp\cco7vFlS.debug.temp.o
                                                  C:\Users\Ridwane\AppData\Local\Temp\cck5XY5Q.ltrans1.ltrans.o
                                                  C:\Users\Ridwane\AppData\Local\Temp\cck5XY5Q.ltrans0.ltrans.o
rt_test_sequence_012_array                        ./build/obj/rt_test_sequence_012.o (symbol from plugin)
rt_test_suite                                     ./build/obj/rt_test_root.o (symbol from plugin)
                                                  ./build/obj/main.o (symbol from plugin)
rt_test_suite_array                               ./build/obj/rt_test_root.o (symbol from plugin)
sdControl                                         ./build/obj/hal_serial.o (symbol from plugin)
sdGetWouldBlock                                   ./build/obj/hal_serial.o (symbol from plugin)
sdIncomingDataI                                   ./build/obj/hal_serial.o (symbol from plugin)
                                                  ./build/obj/hal_serial_lld.o (symbol from plugin)
sdInit                                            ./build/obj/hal_serial.o (symbol from plugin)
                                                  ./build/obj/hal.o (symbol from plugin)
sdObjectInit                                      ./build/obj/hal_serial.o (symbol from plugin)
                                                  ./build/obj/hal_serial_lld.o (symbol from plugin)
sdPutWouldBlock                                   ./build/obj/hal_serial.o (symbol from plugin)
sdRequestDataI                                    ./build/obj/hal_serial.o (symbol from plugin)
sdStart                                           ./build/obj/hal_serial.o (symbol from plugin)
                                                  ./build/obj/main.o (symbol from plugin)
sdStop                                            ./build/obj/hal_serial.o (symbol from plugin)
sd_lld_init                                       ./build/obj/hal_serial_lld.o (symbol from plugin)
                                                  ./build/obj/hal_serial.o (symbol from plugin)
sd_lld_serve_interrupt                            ./build/obj/hal_serial_lld.o (symbol from plugin)
                                                  ./build/obj/stm32_isr.o (symbol from plugin)
sd_lld_start                                      ./build/obj/hal_serial_lld.o (symbol from plugin)
                                                  ./build/obj/hal_serial.o (symbol from plugin)
sd_lld_stop                                       ./build/obj/hal_serial_lld.o (symbol from plugin)
                                                  ./build/obj/hal_serial.o (symbol from plugin)
seedexpander                                      ./build/obj/katrng.o (symbol from plugin)
seedexpander_init                                 ./build/obj/katrng.o (symbol from plugin)
sem1.lto_priv.0                                   C:\Users\Ridwane\AppData\Local\Temp\cck5XY5Q.ltrans0.ltrans.o
                                                  C:\Users\Ridwane\AppData\Local\Temp\cck5XY5Q.ltrans1.ltrans.o
shake.c.8b23fe14                                  C:\Users\Ridwane\AppData\Local\Temp\ccY1fGnd.debug.temp.o
                                                  C:\Users\Ridwane\AppData\Local\Temp\cck5XY5Q.ltrans1.ltrans.o
sign.c.44f69ee3                                   C:\Users\Ridwane\AppData\Local\Temp\ccu65pyR.debug.temp.o
                                                  C:\Users\Ridwane\AppData\Local\Temp\cck5XY5Q.ltrans1.ltrans.o
signal                                            c:/chibistudio/tools/gnu tools arm embedded/11.3 2022.08/bin/../lib/gcc/arm-none-eabi/11.3.1/thumb/v7e-m/nofp\libg_nano.a(libc_a-signal.o)
srand                                             c:/chibistudio/tools/gnu tools arm embedded/11.3 2022.08/bin/../lib/gcc/arm-none-eabi/11.3.1/thumb/v7e-m/nofp\libg_nano.a(libc_a-rand.o)
stGetAlarm                                        ./build/obj/hal_st.o (symbol from plugin)
stGetCounter                                      ./build/obj/hal_st.o (symbol from plugin)
                                                  ./build/obj/rt_test_sequence_012.o (symbol from plugin)
                                                  ./build/obj/rt_test_sequence_006.o (symbol from plugin)
                                                  ./build/obj/rt_test_sequence_005.o (symbol from plugin)
                                                  ./build/obj/rt_test_sequence_004.o (symbol from plugin)
                                                  ./build/obj/rt_test_sequence_003.o (symbol from plugin)
                                                  ./build/obj/rt_test_root.o (symbol from plugin)
                                                  ./build/obj/ch_test.o (symbol from plugin)
                                                  ./build/obj/chthreads.o (symbol from plugin)
                                                  ./build/obj/chinstances.o (symbol from plugin)
                                                  ./build/obj/chvt.o (symbol from plugin)
stInit                                            ./build/obj/hal_st.o (symbol from plugin)
                                                  ./build/obj/hal.o (symbol from plugin)
stIsAlarmActive                                   ./build/obj/hal_st.o (symbol from plugin)
stSetAlarm                                        ./build/obj/hal_st.o (symbol from plugin)
                                                  ./build/obj/chvt.o (symbol from plugin)
stStartAlarm                                      ./build/obj/hal_st.o (symbol from plugin)
                                                  ./build/obj/chvt.o (symbol from plugin)
stStopAlarm                                       ./build/obj/hal_st.o (symbol from plugin)
                                                  ./build/obj/chvt.o (symbol from plugin)
st_lld_init                                       ./build/obj/hal_st_lld.o (symbol from plugin)
                                                  ./build/obj/hal_st.o (symbol from plugin)
st_lld_serve_interrupt                            ./build/obj/hal_st_lld.o (symbol from plugin)
                                                  ./build/obj/stm32_isr.o (symbol from plugin)
stm32_clock_init                                  ./build/obj/hal_lld.o (symbol from plugin)
                                                  ./build/obj/board.o (symbol from plugin)
stm32_dma.c.4b515f8d                              C:\Users\Ridwane\AppData\Local\Temp\ccsnV7qu.debug.temp.o
stm32_exti.c.52c5e5a6                             C:\Users\Ridwane\AppData\Local\Temp\ccqIbNwo.debug.temp.o
stm32_isr.c.3b740f34                              C:\Users\Ridwane\AppData\Local\Temp\ccEBa4IM.debug.temp.o
                                                  C:\Users\Ridwane\AppData\Local\Temp\cck5XY5Q.ltrans1.ltrans.o
                                                  C:\Users\Ridwane\AppData\Local\Temp\cck5XY5Q.ltrans0.ltrans.o
strcmp                                            c:/chibistudio/tools/gnu tools arm embedded/11.3 2022.08/bin/../lib/gcc/arm-none-eabi/11.3.1/thumb/v7e-m/nofp\libg_nano.a(libc_a-strcmp.o)
                                                  C:\Users\Ridwane\AppData\Local\Temp\cck5XY5Q.ltrans1.ltrans.o
strncmp                                           c:/chibistudio/tools/gnu tools arm embedded/11.3 2022.08/bin/../lib/gcc/arm-none-eabi/11.3.1/thumb/v7e-m/nofp\libg_nano.a(libc_a-strncmp.o)
                                                  C:\Users\Ridwane\AppData\Local\Temp\cck5XY5Q.ltrans0.ltrans.o
syscalls.c.f69dfe6e                               C:\Users\Ridwane\AppData\Local\Temp\ccucy7y6.debug.temp.o
                                                  C:\Users\Ridwane\AppData\Local\Temp\cck5XY5Q.ltrans1.ltrans.o
test_buffer                                       ./build/obj/rt_test_root.o (symbol from plugin)
                                                  ./build/obj/rt_test_sequence_011.o (symbol from plugin)
test_emit_token                                   ./build/obj/ch_test.o (symbol from plugin)
                                                  ./build/obj/oslib_test_sequence_006.o (symbol from plugin)
                                                  ./build/obj/oslib_test_sequence_005.o (symbol from plugin)
                                                  ./build/obj/oslib_test_sequence_004.o (symbol from plugin)
                                                  ./build/obj/oslib_test_sequence_002.o (symbol from plugin)
                                                  ./build/obj/rt_test_sequence_011.o (symbol from plugin)
                                                  ./build/obj/rt_test_sequence_010.o (symbol from plugin)
                                                  ./build/obj/rt_test_sequence_009.o (symbol from plugin)
                                                  ./build/obj/rt_test_sequence_008.o (symbol from plugin)
                                                  ./build/obj/rt_test_sequence_007.o (symbol from plugin)
                                                  ./build/obj/rt_test_sequence_006.o (symbol from plugin)
                                                  ./build/obj/rt_test_sequence_005.o (symbol from plugin)
test_execute_putchar                              ./build/obj/ch_test.o (symbol from plugin)
test_execute_stream                               ./build/obj/ch_test.o (symbol from plugin)
                                                  ./build/obj/main.o (symbol from plugin)
test_heap.lto_priv.0                              C:\Users\Ridwane\AppData\Local\Temp\cck5XY5Q.ltrans0.ltrans.o
                                                  C:\Users\Ridwane\AppData\Local\Temp\cck5XY5Q.ltrans1.ltrans.o
test_printf                                       C:\Users\Ridwane\AppData\Local\Temp\cck5XY5Q.ltrans0.ltrans.o
                                                  ./build/obj/ch_test_printf.o (symbol from plugin)
                                                  C:\Users\Ridwane\AppData\Local\Temp\cck5XY5Q.ltrans1.ltrans.o
                                                  ./build/obj/oslib_test_sequence_001.o (symbol from plugin)
                                                  ./build/obj/rt_test_sequence_012.o (symbol from plugin)
                                                  ./build/obj/rt_test_sequence_001.o (symbol from plugin)
                                                  ./build/obj/ch_test.o (symbol from plugin)
test_putchar                                      ./build/obj/ch_test_printf.o (symbol from plugin)
                                                  ./build/obj/ch_test.o (symbol from plugin)
test_stream_putchar.lto_priv.0                    C:\Users\Ridwane\AppData\Local\Temp\cck5XY5Q.ltrans0.ltrans.o
                                                  C:\Users\Ridwane\AppData\Local\Temp\cck5XY5Q.ltrans1.ltrans.o
test_terminate_threads                            ./build/obj/rt_test_root.o (symbol from plugin)
                                                  ./build/obj/rt_test_sequence_012.o (symbol from plugin)
test_vprintf                                      ./build/obj/ch_test_printf.o (symbol from plugin)
test_wait_threads                                 ./build/obj/rt_test_root.o (symbol from plugin)
                                                  ./build/obj/rt_test_sequence_012.o (symbol from plugin)
                                                  ./build/obj/rt_test_sequence_011.o (symbol from plugin)
                                                  ./build/obj/rt_test_sequence_010.o (symbol from plugin)
                                                  ./build/obj/rt_test_sequence_009.o (symbol from plugin)
                                                  ./build/obj/rt_test_sequence_008.o (symbol from plugin)
                                                  ./build/obj/rt_test_sequence_007.o (symbol from plugin)
                                                  ./build/obj/rt_test_sequence_006.o (symbol from plugin)
                                                  ./build/obj/rt_test_sequence_005.o (symbol from plugin)
test_wait_tick                                    ./build/obj/rt_test_root.o (symbol from plugin)
                                                  ./build/obj/rt_test_sequence_012.o (symbol from plugin)
                                                  ./build/obj/rt_test_sequence_010.o (symbol from plugin)
                                                  ./build/obj/rt_test_sequence_007.o (symbol from plugin)
                                                  ./build/obj/rt_test_sequence_004.o (symbol from plugin)
threads                                           ./build/obj/rt_test_root.o (symbol from plugin)
                                                  ./build/obj/rt_test_sequence_012.o (symbol from plugin)
                                                  ./build/obj/rt_test_sequence_011.o (symbol from plugin)
                                                  ./build/obj/rt_test_sequence_010.o (symbol from plugin)
                                                  ./build/obj/rt_test_sequence_009.o (symbol from plugin)
                                                  ./build/obj/rt_test_sequence_008.o (symbol from plugin)
                                                  ./build/obj/rt_test_sequence_007.o (symbol from plugin)
                                                  ./build/obj/rt_test_sequence_006.o (symbol from plugin)
                                                  ./build/obj/rt_test_sequence_005.o (symbol from plugin)
usart_init.lto_priv.0                             C:\Users\Ridwane\AppData\Local\Temp\cck5XY5Q.ltrans0.ltrans.o
                                                  C:\Users\Ridwane\AppData\Local\Temp\cck5XY5Q.ltrans1.ltrans.o
vfiprintf                                         c:/chibistudio/tools/gnu tools arm embedded/11.3 2022.08/bin/../lib/gcc/arm-none-eabi/11.3.1/thumb/v7e-m/nofp\libg_nano.a(libc_a-nano-vfprintf.o)
vfprintf                                          c:/chibistudio/tools/gnu tools arm embedded/11.3 2022.08/bin/../lib/gcc/arm-none-eabi/11.3.1/thumb/v7e-m/nofp\libg_nano.a(libc_a-nano-vfprintf.o)
vrfy.c.949e96f3                                   C:\Users\Ridwane\AppData\Local\Temp\ccqyQMF7.debug.temp.o
                                                  C:\Users\Ridwane\AppData\Local\Temp\cck5XY5Q.ltrans1.ltrans.o
vt_enqueue.constprop.0                            C:\Users\Ridwane\AppData\Local\Temp\cck5XY5Q.ltrans1.ltrans.o
                                                  C:\Users\Ridwane\AppData\Local\Temp\cck5XY5Q.ltrans0.ltrans.o
vt_insert_first.constprop.0                       C:\Users\Ridwane\AppData\Local\Temp\cck5XY5Q.ltrans1.ltrans.o
                                                  C:\Users\Ridwane\AppData\Local\Temp\cck5XY5Q.ltrans0.ltrans.o
wa                                                ./build/obj/rt_test_root.o (symbol from plugin)
                                                  ./build/obj/rt_test_sequence_012.o (symbol from plugin)
                                                  ./build/obj/rt_test_sequence_011.o (symbol from plugin)
                                                  ./build/obj/rt_test_sequence_010.o (symbol from plugin)
                                                  ./build/obj/rt_test_sequence_009.o (symbol from plugin)
                                                  ./build/obj/rt_test_sequence_008.o (symbol from plugin)
                                                  ./build/obj/rt_test_sequence_007.o (symbol from plugin)
                                                  ./build/obj/rt_test_sequence_006.o (symbol from plugin)
                                                  ./build/obj/rt_test_sequence_005.o (symbol from plugin)
