Archive member included to satisfy reference by file (symbol)

c:/chibistudio/tools/gnu tools arm embedded/11.3 2022.08/bin/../lib/gcc/arm-none-eabi/11.3.1/thumb/v7e-m/nofp\libg_nano.a(libc_a-rand.o)
                              ./build/obj/main.o (symbol from plugin) (rand)
c:/chibistudio/tools/gnu tools arm embedded/11.3 2022.08/bin/../lib/gcc/arm-none-eabi/11.3.1/thumb/v7e-m/nofp\libg_nano.a(libc_a-impure.o)
                              c:/chibistudio/tools/gnu tools arm embedded/11.3 2022.08/bin/../lib/gcc/arm-none-eabi/11.3.1/thumb/v7e-m/nofp\libg_nano.a(libc_a-rand.o) (_impure_ptr)
c:/chibistudio/tools/gnu tools arm embedded/11.3 2022.08/bin/../lib/gcc/arm-none-eabi/11.3.1/thumb/v7e-m/nofp\libg_nano.a(libc_a-errno.o)
                              ./build/obj/randombytes.o (symbol from plugin) (__errno)
c:/chibistudio/tools/gnu tools arm embedded/11.3 2022.08/bin/../lib/gcc/arm-none-eabi/11.3.1/thumb/v7e-m/nofp\libg_nano.a(libc_a-sysopen.o)
                              ./build/obj/randombytes.o (symbol from plugin) (open)
c:/chibistudio/tools/gnu tools arm embedded/11.3 2022.08/bin/../lib/gcc/arm-none-eabi/11.3.1/thumb/v7e-m/nofp\libg_nano.a(libc_a-sysread.o)
                              ./build/obj/randombytes.o (symbol from plugin) (read)
c:/chibistudio/tools/gnu tools arm embedded/11.3 2022.08/bin/../lib/gcc/arm-none-eabi/11.3.1/thumb/v7e-m/nofp\libg_nano.a(libc_a-assert.o)
                              c:/chibistudio/tools/gnu tools arm embedded/11.3 2022.08/bin/../lib/gcc/arm-none-eabi/11.3.1/thumb/v7e-m/nofp\libg_nano.a(libc_a-rand.o) (__assert_func)
c:/chibistudio/tools/gnu tools arm embedded/11.3 2022.08/bin/../lib/gcc/arm-none-eabi/11.3.1/thumb/v7e-m/nofp\libg_nano.a(libc_a-malloc.o)
                              c:/chibistudio/tools/gnu tools arm embedded/11.3 2022.08/bin/../lib/gcc/arm-none-eabi/11.3.1/thumb/v7e-m/nofp\libg_nano.a(libc_a-rand.o) (malloc)
c:/chibistudio/tools/gnu tools arm embedded/11.3 2022.08/bin/../lib/gcc/arm-none-eabi/11.3.1/thumb/v7e-m/nofp\libg_nano.a(libc_a-mallocr.o)
                              c:/chibistudio/tools/gnu tools arm embedded/11.3 2022.08/bin/../lib/gcc/arm-none-eabi/11.3.1/thumb/v7e-m/nofp\libg_nano.a(libc_a-malloc.o) (_malloc_r)
c:/chibistudio/tools/gnu tools arm embedded/11.3 2022.08/bin/../lib/gcc/arm-none-eabi/11.3.1/thumb/v7e-m/nofp\libg_nano.a(libc_a-mlock.o)
                              c:/chibistudio/tools/gnu tools arm embedded/11.3 2022.08/bin/../lib/gcc/arm-none-eabi/11.3.1/thumb/v7e-m/nofp\libg_nano.a(libc_a-mallocr.o) (__malloc_lock)
c:/chibistudio/tools/gnu tools arm embedded/11.3 2022.08/bin/../lib/gcc/arm-none-eabi/11.3.1/thumb/v7e-m/nofp\libg_nano.a(libc_a-fprintf.o)
                              c:/chibistudio/tools/gnu tools arm embedded/11.3 2022.08/bin/../lib/gcc/arm-none-eabi/11.3.1/thumb/v7e-m/nofp\libg_nano.a(libc_a-assert.o) (fiprintf)
c:/chibistudio/tools/gnu tools arm embedded/11.3 2022.08/bin/../lib/gcc/arm-none-eabi/11.3.1/thumb/v7e-m/nofp\libg_nano.a(libc_a-lock.o)
                              c:/chibistudio/tools/gnu tools arm embedded/11.3 2022.08/bin/../lib/gcc/arm-none-eabi/11.3.1/thumb/v7e-m/nofp\libg_nano.a(libc_a-mlock.o) (__retarget_lock_acquire_recursive)
c:/chibistudio/tools/gnu tools arm embedded/11.3 2022.08/bin/../lib/gcc/arm-none-eabi/11.3.1/thumb/v7e-m/nofp\libg_nano.a(libc_a-abort.o)
                              c:/chibistudio/tools/gnu tools arm embedded/11.3 2022.08/bin/../lib/gcc/arm-none-eabi/11.3.1/thumb/v7e-m/nofp\libg_nano.a(libc_a-assert.o) (abort)
c:/chibistudio/tools/gnu tools arm embedded/11.3 2022.08/bin/../lib/gcc/arm-none-eabi/11.3.1/thumb/v7e-m/nofp\libg_nano.a(libc_a-freer.o)
                              c:/chibistudio/tools/gnu tools arm embedded/11.3 2022.08/bin/../lib/gcc/arm-none-eabi/11.3.1/thumb/v7e-m/nofp\libg_nano.a(libc_a-malloc.o) (_free_r)
c:/chibistudio/tools/gnu tools arm embedded/11.3 2022.08/bin/../lib/gcc/arm-none-eabi/11.3.1/thumb/v7e-m/nofp\libg_nano.a(libc_a-nano-vfprintf.o)
                              c:/chibistudio/tools/gnu tools arm embedded/11.3 2022.08/bin/../lib/gcc/arm-none-eabi/11.3.1/thumb/v7e-m/nofp\libg_nano.a(libc_a-fprintf.o) (_vfprintf_r)
c:/chibistudio/tools/gnu tools arm embedded/11.3 2022.08/bin/../lib/gcc/arm-none-eabi/11.3.1/thumb/v7e-m/nofp\libg_nano.a(libc_a-nano-vfprintf_i.o)
                              c:/chibistudio/tools/gnu tools arm embedded/11.3 2022.08/bin/../lib/gcc/arm-none-eabi/11.3.1/thumb/v7e-m/nofp\libg_nano.a(libc_a-nano-vfprintf.o) (_printf_i)
c:/chibistudio/tools/gnu tools arm embedded/11.3 2022.08/bin/../lib/gcc/arm-none-eabi/11.3.1/thumb/v7e-m/nofp\libg_nano.a(libc_a-findfp.o)
                              c:/chibistudio/tools/gnu tools arm embedded/11.3 2022.08/bin/../lib/gcc/arm-none-eabi/11.3.1/thumb/v7e-m/nofp\libg_nano.a(libc_a-nano-vfprintf.o) (__sinit)
c:/chibistudio/tools/gnu tools arm embedded/11.3 2022.08/bin/../lib/gcc/arm-none-eabi/11.3.1/thumb/v7e-m/nofp\libg_nano.a(libc_a-fvwrite.o)
                              c:/chibistudio/tools/gnu tools arm embedded/11.3 2022.08/bin/../lib/gcc/arm-none-eabi/11.3.1/thumb/v7e-m/nofp\libg_nano.a(libc_a-nano-vfprintf.o) (__sfvwrite_r)
c:/chibistudio/tools/gnu tools arm embedded/11.3 2022.08/bin/../lib/gcc/arm-none-eabi/11.3.1/thumb/v7e-m/nofp\libg_nano.a(libc_a-fwalk.o)
                              c:/chibistudio/tools/gnu tools arm embedded/11.3 2022.08/bin/../lib/gcc/arm-none-eabi/11.3.1/thumb/v7e-m/nofp\libg_nano.a(libc_a-findfp.o) (_fwalk_sglue)
c:/chibistudio/tools/gnu tools arm embedded/11.3 2022.08/bin/../lib/gcc/arm-none-eabi/11.3.1/thumb/v7e-m/nofp\libg_nano.a(libc_a-stdio.o)
                              c:/chibistudio/tools/gnu tools arm embedded/11.3 2022.08/bin/../lib/gcc/arm-none-eabi/11.3.1/thumb/v7e-m/nofp\libg_nano.a(libc_a-findfp.o) (__sread)
c:/chibistudio/tools/gnu tools arm embedded/11.3 2022.08/bin/../lib/gcc/arm-none-eabi/11.3.1/thumb/v7e-m/nofp\libg_nano.a(libc_a-wbuf.o)
                              c:/chibistudio/tools/gnu tools arm embedded/11.3 2022.08/bin/../lib/gcc/arm-none-eabi/11.3.1/thumb/v7e-m/nofp\libg_nano.a(libc_a-nano-vfprintf.o) (__swbuf_r)
c:/chibistudio/tools/gnu tools arm embedded/11.3 2022.08/bin/../lib/gcc/arm-none-eabi/11.3.1/thumb/v7e-m/nofp\libg_nano.a(libc_a-wsetup.o)
                              c:/chibistudio/tools/gnu tools arm embedded/11.3 2022.08/bin/../lib/gcc/arm-none-eabi/11.3.1/thumb/v7e-m/nofp\libg_nano.a(libc_a-nano-vfprintf.o) (__swsetup_r)
c:/chibistudio/tools/gnu tools arm embedded/11.3 2022.08/bin/../lib/gcc/arm-none-eabi/11.3.1/thumb/v7e-m/nofp\libg_nano.a(libc_a-memmove.o)
                              c:/chibistudio/tools/gnu tools arm embedded/11.3 2022.08/bin/../lib/gcc/arm-none-eabi/11.3.1/thumb/v7e-m/nofp\libg_nano.a(libc_a-fvwrite.o) (memmove)
c:/chibistudio/tools/gnu tools arm embedded/11.3 2022.08/bin/../lib/gcc/arm-none-eabi/11.3.1/thumb/v7e-m/nofp\libg_nano.a(libc_a-memset.o)
                              c:/chibistudio/tools/gnu tools arm embedded/11.3 2022.08/bin/../lib/gcc/arm-none-eabi/11.3.1/thumb/v7e-m/nofp\libg_nano.a(libc_a-findfp.o) (memset)
c:/chibistudio/tools/gnu tools arm embedded/11.3 2022.08/bin/../lib/gcc/arm-none-eabi/11.3.1/thumb/v7e-m/nofp\libg_nano.a(libc_a-signal.o)
                              c:/chibistudio/tools/gnu tools arm embedded/11.3 2022.08/bin/../lib/gcc/arm-none-eabi/11.3.1/thumb/v7e-m/nofp\libg_nano.a(libc_a-abort.o) (raise)
c:/chibistudio/tools/gnu tools arm embedded/11.3 2022.08/bin/../lib/gcc/arm-none-eabi/11.3.1/thumb/v7e-m/nofp\libg_nano.a(libc_a-signalr.o)
                              c:/chibistudio/tools/gnu tools arm embedded/11.3 2022.08/bin/../lib/gcc/arm-none-eabi/11.3.1/thumb/v7e-m/nofp\libg_nano.a(libc_a-signal.o) (_kill_r)
c:/chibistudio/tools/gnu tools arm embedded/11.3 2022.08/bin/../lib/gcc/arm-none-eabi/11.3.1/thumb/v7e-m/nofp\libg_nano.a(libc_a-memchr.o)
                              c:/chibistudio/tools/gnu tools arm embedded/11.3 2022.08/bin/../lib/gcc/arm-none-eabi/11.3.1/thumb/v7e-m/nofp\libg_nano.a(libc_a-nano-vfprintf.o) (memchr)
c:/chibistudio/tools/gnu tools arm embedded/11.3 2022.08/bin/../lib/gcc/arm-none-eabi/11.3.1/thumb/v7e-m/nofp\libg_nano.a(libc_a-memcpy-stub.o)
                              c:/chibistudio/tools/gnu tools arm embedded/11.3 2022.08/bin/../lib/gcc/arm-none-eabi/11.3.1/thumb/v7e-m/nofp\libg_nano.a(libc_a-fvwrite.o) (memcpy)
c:/chibistudio/tools/gnu tools arm embedded/11.3 2022.08/bin/../lib/gcc/arm-none-eabi/11.3.1/thumb/v7e-m/nofp\libg_nano.a(libc_a-reallocr.o)
                              c:/chibistudio/tools/gnu tools arm embedded/11.3 2022.08/bin/../lib/gcc/arm-none-eabi/11.3.1/thumb/v7e-m/nofp\libg_nano.a(libc_a-fvwrite.o) (_realloc_r)
c:/chibistudio/tools/gnu tools arm embedded/11.3 2022.08/bin/../lib/gcc/arm-none-eabi/11.3.1/thumb/v7e-m/nofp\libg_nano.a(libc_a-fflush.o)
                              c:/chibistudio/tools/gnu tools arm embedded/11.3 2022.08/bin/../lib/gcc/arm-none-eabi/11.3.1/thumb/v7e-m/nofp\libg_nano.a(libc_a-findfp.o) (_fflush_r)
c:/chibistudio/tools/gnu tools arm embedded/11.3 2022.08/bin/../lib/gcc/arm-none-eabi/11.3.1/thumb/v7e-m/nofp\libg_nano.a(libc_a-makebuf.o)
                              c:/chibistudio/tools/gnu tools arm embedded/11.3 2022.08/bin/../lib/gcc/arm-none-eabi/11.3.1/thumb/v7e-m/nofp\libg_nano.a(libc_a-wsetup.o) (__smakebuf_r)
c:/chibistudio/tools/gnu tools arm embedded/11.3 2022.08/bin/../lib/gcc/arm-none-eabi/11.3.1/thumb/v7e-m/nofp\libg_nano.a(libc_a-reent.o)
                              c:/chibistudio/tools/gnu tools arm embedded/11.3 2022.08/bin/../lib/gcc/arm-none-eabi/11.3.1/thumb/v7e-m/nofp\libg_nano.a(libc_a-signalr.o) (errno)
c:/chibistudio/tools/gnu tools arm embedded/11.3 2022.08/bin/../lib/gcc/arm-none-eabi/11.3.1/thumb/v7e-m/nofp\libg_nano.a(libc_a-msizer.o)
                              c:/chibistudio/tools/gnu tools arm embedded/11.3 2022.08/bin/../lib/gcc/arm-none-eabi/11.3.1/thumb/v7e-m/nofp\libg_nano.a(libc_a-reallocr.o) (_malloc_usable_size_r)
c:/chibistudio/tools/gnu tools arm embedded/11.3 2022.08/bin/../lib/gcc/arm-none-eabi/11.3.1/thumb/v7e-m/nofp\libg_nano.a(libc_a-memcmp.o)
                              C:\Users\Ridwane\AppData\Local\Temp\ccG6qa3f.ltrans0.ltrans.o (memcmp)
c:/chibistudio/tools/gnu tools arm embedded/11.3 2022.08/bin/../lib/gcc/arm-none-eabi/11.3.1/thumb/v7e-m/nofp\libg_nano.a(libc_a-strncmp.o)
                              C:\Users\Ridwane\AppData\Local\Temp\ccG6qa3f.ltrans0.ltrans.o (strncmp)
c:/chibistudio/tools/gnu tools arm embedded/11.3 2022.08/bin/../lib/gcc/arm-none-eabi/11.3.1/thumb/v7e-m/nofp\libg_nano.a(libc_a-strcmp.o)
                              C:\Users\Ridwane\AppData\Local\Temp\ccG6qa3f.ltrans1.ltrans.o (strcmp)

Discarded input sections

 .data          0x00000000        0x0 ./build/obj/crt0_v7m.o
 .bss           0x00000000        0x0 ./build/obj/crt0_v7m.o
 .data          0x00000000        0x0 ./build/obj/vectors.o
 .bss           0x00000000        0x0 ./build/obj/vectors.o
 .data          0x00000000        0x0 ./build/obj/chcoreasm.o
 .bss           0x00000000        0x0 ./build/obj/chcoreasm.o
 .text          0x00000000        0x0 C:\Users\Ridwane\AppData\Local\Temp\ccG6qa3f.ltrans0.ltrans.o
 .data          0x00000000        0x0 C:\Users\Ridwane\AppData\Local\Temp\ccG6qa3f.ltrans0.ltrans.o
 .bss           0x00000000        0x0 C:\Users\Ridwane\AppData\Local\Temp\ccG6qa3f.ltrans0.ltrans.o
 .text          0x00000000        0x0 C:\Users\Ridwane\AppData\Local\Temp\ccG6qa3f.ltrans1.ltrans.o
 .data          0x00000000        0x0 C:\Users\Ridwane\AppData\Local\Temp\ccG6qa3f.ltrans1.ltrans.o
 .bss           0x00000000        0x0 C:\Users\Ridwane\AppData\Local\Temp\ccG6qa3f.ltrans1.ltrans.o
 .comment       0x00000000       0x34 C:\Users\Ridwane\AppData\Local\Temp\ccMjm6eA.debug.temp.o
 .comment       0x00000000       0x34 C:\Users\Ridwane\AppData\Local\Temp\ccmIIEHO.debug.temp.o
 .comment       0x00000000       0x34 C:\Users\Ridwane\AppData\Local\Temp\ccGc6L52.debug.temp.o
 .debug_info    0x00000000      0xbbe C:\Users\Ridwane\AppData\Local\Temp\ccM3mEvh.debug.temp.o
 .debug_abbrev  0x00000000      0x1f4 C:\Users\Ridwane\AppData\Local\Temp\ccM3mEvh.debug.temp.o
 .debug_line    0x00000000       0xaf C:\Users\Ridwane\AppData\Local\Temp\ccM3mEvh.debug.temp.o
 .debug_str     0x00000000      0x78c C:\Users\Ridwane\AppData\Local\Temp\ccM3mEvh.debug.temp.o
 .debug_line_str
                0x00000000      0x314 C:\Users\Ridwane\AppData\Local\Temp\ccM3mEvh.debug.temp.o
 .comment       0x00000000       0x34 C:\Users\Ridwane\AppData\Local\Temp\ccM3mEvh.debug.temp.o
 .debug_info    0x00000000      0x95a C:\Users\Ridwane\AppData\Local\Temp\ccQHTV6v.debug.temp.o
 .debug_abbrev  0x00000000      0x209 C:\Users\Ridwane\AppData\Local\Temp\ccQHTV6v.debug.temp.o
 .debug_line    0x00000000       0xa4 C:\Users\Ridwane\AppData\Local\Temp\ccQHTV6v.debug.temp.o
 .debug_str     0x00000000      0x5c3 C:\Users\Ridwane\AppData\Local\Temp\ccQHTV6v.debug.temp.o
 .debug_line_str
                0x00000000      0x339 C:\Users\Ridwane\AppData\Local\Temp\ccQHTV6v.debug.temp.o
 .comment       0x00000000       0x34 C:\Users\Ridwane\AppData\Local\Temp\ccQHTV6v.debug.temp.o
 .comment       0x00000000       0x34 C:\Users\Ridwane\AppData\Local\Temp\ccErrMDK.debug.temp.o
 .debug_info    0x00000000      0x5a5 C:\Users\Ridwane\AppData\Local\Temp\cc6pSUcZ.debug.temp.o
 .debug_abbrev  0x00000000      0x15f C:\Users\Ridwane\AppData\Local\Temp\cc6pSUcZ.debug.temp.o
 .debug_line    0x00000000       0x75 C:\Users\Ridwane\AppData\Local\Temp\cc6pSUcZ.debug.temp.o
 .debug_str     0x00000000      0x524 C:\Users\Ridwane\AppData\Local\Temp\cc6pSUcZ.debug.temp.o
 .debug_line_str
                0x00000000      0x23d C:\Users\Ridwane\AppData\Local\Temp\cc6pSUcZ.debug.temp.o
 .comment       0x00000000       0x34 C:\Users\Ridwane\AppData\Local\Temp\cc6pSUcZ.debug.temp.o
 .debug_info    0x00000000       0x7a C:\Users\Ridwane\AppData\Local\Temp\cc6PAfvh.debug.temp.o
 .debug_abbrev  0x00000000       0x26 C:\Users\Ridwane\AppData\Local\Temp\cc6PAfvh.debug.temp.o
 .debug_line    0x00000000       0x31 C:\Users\Ridwane\AppData\Local\Temp\cc6PAfvh.debug.temp.o
 .debug_str     0x00000000      0x1b0 C:\Users\Ridwane\AppData\Local\Temp\cc6PAfvh.debug.temp.o
 .debug_line_str
                0x00000000       0x5a C:\Users\Ridwane\AppData\Local\Temp\cc6PAfvh.debug.temp.o
 .comment       0x00000000       0x34 C:\Users\Ridwane\AppData\Local\Temp\cc6PAfvh.debug.temp.o
 .debug_info    0x00000000      0x2e8 C:\Users\Ridwane\AppData\Local\Temp\ccWIePGz.debug.temp.o
 .debug_abbrev  0x00000000      0x136 C:\Users\Ridwane\AppData\Local\Temp\ccWIePGz.debug.temp.o
 .debug_line    0x00000000       0x6c C:\Users\Ridwane\AppData\Local\Temp\ccWIePGz.debug.temp.o
 .debug_str     0x00000000      0x2ae C:\Users\Ridwane\AppData\Local\Temp\ccWIePGz.debug.temp.o
 .debug_line_str
                0x00000000      0x212 C:\Users\Ridwane\AppData\Local\Temp\ccWIePGz.debug.temp.o
 .comment       0x00000000       0x34 C:\Users\Ridwane\AppData\Local\Temp\ccWIePGz.debug.temp.o
 .comment       0x00000000       0x34 C:\Users\Ridwane\AppData\Local\Temp\ccE1d85R.debug.temp.o
 .comment       0x00000000       0x34 C:\Users\Ridwane\AppData\Local\Temp\ccgXiLxa.debug.temp.o
 .comment       0x00000000       0x34 C:\Users\Ridwane\AppData\Local\Temp\ccuIcoUs.debug.temp.o
 .comment       0x00000000       0x34 C:\Users\Ridwane\AppData\Local\Temp\ccATrKuL.debug.temp.o
 .debug_info    0x00000000       0x7a C:\Users\Ridwane\AppData\Local\Temp\ccwxClY3.debug.temp.o
 .debug_abbrev  0x00000000       0x26 C:\Users\Ridwane\AppData\Local\Temp\ccwxClY3.debug.temp.o
 .debug_line    0x00000000       0x31 C:\Users\Ridwane\AppData\Local\Temp\ccwxClY3.debug.temp.o
 .debug_str     0x00000000      0x1c4 C:\Users\Ridwane\AppData\Local\Temp\ccwxClY3.debug.temp.o
 .debug_line_str
                0x00000000       0x6e C:\Users\Ridwane\AppData\Local\Temp\ccwxClY3.debug.temp.o
 .comment       0x00000000       0x34 C:\Users\Ridwane\AppData\Local\Temp\ccwxClY3.debug.temp.o
 .debug_info    0x00000000       0x7a C:\Users\Ridwane\AppData\Local\Temp\ccclW6Em.debug.temp.o
 .debug_abbrev  0x00000000       0x26 C:\Users\Ridwane\AppData\Local\Temp\ccclW6Em.debug.temp.o
 .debug_line    0x00000000       0x31 C:\Users\Ridwane\AppData\Local\Temp\ccclW6Em.debug.temp.o
 .debug_str     0x00000000      0x1c2 C:\Users\Ridwane\AppData\Local\Temp\ccclW6Em.debug.temp.o
 .debug_line_str
                0x00000000       0x6c C:\Users\Ridwane\AppData\Local\Temp\ccclW6Em.debug.temp.o
 .comment       0x00000000       0x34 C:\Users\Ridwane\AppData\Local\Temp\ccclW6Em.debug.temp.o
 .debug_info    0x00000000       0x7a C:\Users\Ridwane\AppData\Local\Temp\ccoPLnpF.debug.temp.o
 .debug_abbrev  0x00000000       0x26 C:\Users\Ridwane\AppData\Local\Temp\ccoPLnpF.debug.temp.o
 .debug_line    0x00000000       0x31 C:\Users\Ridwane\AppData\Local\Temp\ccoPLnpF.debug.temp.o
 .debug_str     0x00000000      0x1c4 C:\Users\Ridwane\AppData\Local\Temp\ccoPLnpF.debug.temp.o
 .debug_line_str
                0x00000000       0x6e C:\Users\Ridwane\AppData\Local\Temp\ccoPLnpF.debug.temp.o
 .comment       0x00000000       0x34 C:\Users\Ridwane\AppData\Local\Temp\ccoPLnpF.debug.temp.o
 .comment       0x00000000       0x34 C:\Users\Ridwane\AppData\Local\Temp\ccOI6H1X.debug.temp.o
 .comment       0x00000000       0x34 C:\Users\Ridwane\AppData\Local\Temp\ccsthxGf.debug.temp.o
 .comment       0x00000000       0x34 C:\Users\Ridwane\AppData\Local\Temp\ccYNgGnx.debug.temp.o
 .comment       0x00000000       0x34 C:\Users\Ridwane\AppData\Local\Temp\ccghyo0O.debug.temp.o
 .debug_info    0x00000000       0x7a C:\Users\Ridwane\AppData\Local\Temp\ccqabQQ6.debug.temp.o
 .debug_abbrev  0x00000000       0x26 C:\Users\Ridwane\AppData\Local\Temp\ccqabQQ6.debug.temp.o
 .debug_line    0x00000000       0x31 C:\Users\Ridwane\AppData\Local\Temp\ccqabQQ6.debug.temp.o
 .debug_str     0x00000000      0x1b3 C:\Users\Ridwane\AppData\Local\Temp\ccqabQQ6.debug.temp.o
 .debug_line_str
                0x00000000       0x5d C:\Users\Ridwane\AppData\Local\Temp\ccqabQQ6.debug.temp.o
 .comment       0x00000000       0x34 C:\Users\Ridwane\AppData\Local\Temp\ccqabQQ6.debug.temp.o
 .comment       0x00000000       0x34 C:\Users\Ridwane\AppData\Local\Temp\cccTChCo.debug.temp.o
 .comment       0x00000000       0x34 C:\Users\Ridwane\AppData\Local\Temp\ccWok8yG.debug.temp.o
 .debug_info    0x00000000       0x7a C:\Users\Ridwane\AppData\Local\Temp\ccq02xrY.debug.temp.o
 .debug_abbrev  0x00000000       0x26 C:\Users\Ridwane\AppData\Local\Temp\ccq02xrY.debug.temp.o
 .debug_line    0x00000000       0x31 C:\Users\Ridwane\AppData\Local\Temp\ccq02xrY.debug.temp.o
 .debug_str     0x00000000      0x1ad C:\Users\Ridwane\AppData\Local\Temp\ccq02xrY.debug.temp.o
 .debug_line_str
                0x00000000       0x57 C:\Users\Ridwane\AppData\Local\Temp\ccq02xrY.debug.temp.o
 .comment       0x00000000       0x34 C:\Users\Ridwane\AppData\Local\Temp\ccq02xrY.debug.temp.o
 .debug_info    0x00000000       0x7a C:\Users\Ridwane\AppData\Local\Temp\ccABK2ng.debug.temp.o
 .debug_abbrev  0x00000000       0x26 C:\Users\Ridwane\AppData\Local\Temp\ccABK2ng.debug.temp.o
 .debug_line    0x00000000       0x31 C:\Users\Ridwane\AppData\Local\Temp\ccABK2ng.debug.temp.o
 .debug_str     0x00000000      0x1ad C:\Users\Ridwane\AppData\Local\Temp\ccABK2ng.debug.temp.o
 .debug_line_str
                0x00000000       0x57 C:\Users\Ridwane\AppData\Local\Temp\ccABK2ng.debug.temp.o
 .comment       0x00000000       0x34 C:\Users\Ridwane\AppData\Local\Temp\ccABK2ng.debug.temp.o
 .comment       0x00000000       0x34 C:\Users\Ridwane\AppData\Local\Temp\ccGWqWvy.debug.temp.o
 .comment       0x00000000       0x34 C:\Users\Ridwane\AppData\Local\Temp\ccyqppzQ.debug.temp.o
 .comment       0x00000000       0x34 C:\Users\Ridwane\AppData\Local\Temp\ccGGihE7.debug.temp.o
 .comment       0x00000000       0x34 C:\Users\Ridwane\AppData\Local\Temp\ccGEczMo.debug.temp.o
 .comment       0x00000000       0x34 C:\Users\Ridwane\AppData\Local\Temp\ccqI7pQF.debug.temp.o
 .comment       0x00000000       0x34 C:\Users\Ridwane\AppData\Local\Temp\ccQBiv5W.debug.temp.o
 .comment       0x00000000       0x34 C:\Users\Ridwane\AppData\Local\Temp\cc0Emute.debug.temp.o
 .comment       0x00000000       0x34 C:\Users\Ridwane\AppData\Local\Temp\ccOAwtMv.debug.temp.o
 .comment       0x00000000       0x34 C:\Users\Ridwane\AppData\Local\Temp\ccuW1bjN.debug.temp.o
 .comment       0x00000000       0x34 C:\Users\Ridwane\AppData\Local\Temp\ccUnytL4.debug.temp.o
 .comment       0x00000000       0x34 C:\Users\Ridwane\AppData\Local\Temp\ccyGUfgl.debug.temp.o
 .comment       0x00000000       0x34 C:\Users\Ridwane\AppData\Local\Temp\cc46ELNB.debug.temp.o
 .comment       0x00000000       0x34 C:\Users\Ridwane\AppData\Local\Temp\cckVnQrS.debug.temp.o
 .comment       0x00000000       0x34 C:\Users\Ridwane\AppData\Local\Temp\ccczVU08.debug.temp.o
 .comment       0x00000000       0x34 C:\Users\Ridwane\AppData\Local\Temp\ccWCOINp.debug.temp.o
 .comment       0x00000000       0x34 C:\Users\Ridwane\AppData\Local\Temp\cciwwwvG.debug.temp.o
 .comment       0x00000000       0x34 C:\Users\Ridwane\AppData\Local\Temp\ccgVACmX.debug.temp.o
 .comment       0x00000000       0x34 C:\Users\Ridwane\AppData\Local\Temp\cc4M6tfe.debug.temp.o
 .comment       0x00000000       0x34 C:\Users\Ridwane\AppData\Local\Temp\ccKmzVTy.debug.temp.o
 .comment       0x00000000       0x34 C:\Users\Ridwane\AppData\Local\Temp\ccExP4rT.debug.temp.o
 .comment       0x00000000       0x34 C:\Users\Ridwane\AppData\Local\Temp\ccmYMode.debug.temp.o
 .comment       0x00000000       0x34 C:\Users\Ridwane\AppData\Local\Temp\ccUVh20y.debug.temp.o
 .comment       0x00000000       0x34 C:\Users\Ridwane\AppData\Local\Temp\cccZNeKT.debug.temp.o
 .comment       0x00000000       0x34 C:\Users\Ridwane\AppData\Local\Temp\ccectBGe.debug.temp.o
 .comment       0x00000000       0x34 C:\Users\Ridwane\AppData\Local\Temp\ccARztyz.debug.temp.o
 .comment       0x00000000       0x34 C:\Users\Ridwane\AppData\Local\Temp\cckXvOBU.debug.temp.o
 .comment       0x00000000       0x34 C:\Users\Ridwane\AppData\Local\Temp\ccGSg9zf.debug.temp.o
 .comment       0x00000000       0x34 C:\Users\Ridwane\AppData\Local\Temp\ccoV3xBz.debug.temp.o
 .comment       0x00000000       0x34 C:\Users\Ridwane\AppData\Local\Temp\ccQ3RvyT.debug.temp.o
 .comment       0x00000000       0x34 C:\Users\Ridwane\AppData\Local\Temp\cc2lPDId.debug.temp.o
 .comment       0x00000000       0x34 C:\Users\Ridwane\AppData\Local\Temp\ccWGwkOx.debug.temp.o
 .comment       0x00000000       0x34 C:\Users\Ridwane\AppData\Local\Temp\ccKuQK7R.debug.temp.o
 .comment       0x00000000       0x34 C:\Users\Ridwane\AppData\Local\Temp\cccbgbmc.debug.temp.o
 .comment       0x00000000       0x34 C:\Users\Ridwane\AppData\Local\Temp\ccueKkOw.debug.temp.o
 .comment       0x00000000       0x34 C:\Users\Ridwane\AppData\Local\Temp\cco72tbR.debug.temp.o
 .comment       0x00000000       0x34 C:\Users\Ridwane\AppData\Local\Temp\ccE7nHBa.debug.temp.o
 .comment       0x00000000       0x34 C:\Users\Ridwane\AppData\Local\Temp\ccEdKtXt.debug.temp.o
 .comment       0x00000000       0x34 C:\Users\Ridwane\AppData\Local\Temp\ccyWbAlN.debug.temp.o
 .comment       0x00000000       0x34 C:\Users\Ridwane\AppData\Local\Temp\cccPMQW6.debug.temp.o
 .comment       0x00000000       0x34 C:\Users\Ridwane\AppData\Local\Temp\ccANoGtq.debug.temp.o
 .comment       0x00000000       0x34 C:\Users\Ridwane\AppData\Local\Temp\ccWygVbK.debug.temp.o
 .comment       0x00000000       0x34 C:\Users\Ridwane\AppData\Local\Temp\ccU9W9O3.debug.temp.o
 .comment       0x00000000       0x34 C:\Users\Ridwane\AppData\Local\Temp\ccMnJIun.debug.temp.o
 .comment       0x00000000       0x34 C:\Users\Ridwane\AppData\Local\Temp\ccw1Q0nH.debug.temp.o
 .comment       0x00000000       0x34 C:\Users\Ridwane\AppData\Local\Temp\ccSuNic1.debug.temp.o
 .comment       0x00000000       0x34 C:\Users\Ridwane\AppData\Local\Temp\cc8APU2k.debug.temp.o
 .comment       0x00000000       0x34 C:\Users\Ridwane\AppData\Local\Temp\ccKOTAWD.debug.temp.o
 .debug_info    0x00000000      0x523 C:\Users\Ridwane\AppData\Local\Temp\ccYRMgLW.debug.temp.o
 .debug_abbrev  0x00000000      0x1c9 C:\Users\Ridwane\AppData\Local\Temp\ccYRMgLW.debug.temp.o
 .debug_line    0x00000000       0x76 C:\Users\Ridwane\AppData\Local\Temp\ccYRMgLW.debug.temp.o
 .debug_str     0x00000000      0x35e C:\Users\Ridwane\AppData\Local\Temp\ccYRMgLW.debug.temp.o
 .debug_line_str
                0x00000000      0x237 C:\Users\Ridwane\AppData\Local\Temp\ccYRMgLW.debug.temp.o
 .comment       0x00000000       0x34 C:\Users\Ridwane\AppData\Local\Temp\ccYRMgLW.debug.temp.o
 .comment       0x00000000       0x34 C:\Users\Ridwane\AppData\Local\Temp\cc4k1FNf.debug.temp.o
 .comment       0x00000000       0x34 C:\Users\Ridwane\AppData\Local\Temp\ccUTgELy.debug.temp.o
 .comment       0x00000000       0x34 C:\Users\Ridwane\AppData\Local\Temp\ccAZzsUR.debug.temp.o
 .comment       0x00000000       0x34 C:\Users\Ridwane\AppData\Local\Temp\cc0aUPYa.debug.temp.o
 .comment       0x00000000       0x34 C:\Users\Ridwane\AppData\Local\Temp\cciMzWgu.debug.temp.o
 .comment       0x00000000       0x34 C:\Users\Ridwane\AppData\Local\Temp\cckHRNAN.debug.temp.o
 .comment       0x00000000       0x34 C:\Users\Ridwane\AppData\Local\Temp\cc8KreQ6.debug.temp.o
 .text          0x00000000        0x0 c:/chibistudio/tools/gnu tools arm embedded/11.3 2022.08/bin/../lib/gcc/arm-none-eabi/11.3.1/thumb/v7e-m/nofp\libg_nano.a(libc_a-rand.o)
 .data          0x00000000        0x0 c:/chibistudio/tools/gnu tools arm embedded/11.3 2022.08/bin/../lib/gcc/arm-none-eabi/11.3.1/thumb/v7e-m/nofp\libg_nano.a(libc_a-rand.o)
 .bss           0x00000000        0x0 c:/chibistudio/tools/gnu tools arm embedded/11.3 2022.08/bin/../lib/gcc/arm-none-eabi/11.3.1/thumb/v7e-m/nofp\libg_nano.a(libc_a-rand.o)
 .text.srand    0x00000000       0x5c c:/chibistudio/tools/gnu tools arm embedded/11.3 2022.08/bin/../lib/gcc/arm-none-eabi/11.3.1/thumb/v7e-m/nofp\libg_nano.a(libc_a-rand.o)
 .text          0x00000000        0x0 c:/chibistudio/tools/gnu tools arm embedded/11.3 2022.08/bin/../lib/gcc/arm-none-eabi/11.3.1/thumb/v7e-m/nofp\libg_nano.a(libc_a-impure.o)
 .data          0x00000000        0x0 c:/chibistudio/tools/gnu tools arm embedded/11.3 2022.08/bin/../lib/gcc/arm-none-eabi/11.3.1/thumb/v7e-m/nofp\libg_nano.a(libc_a-impure.o)
 .bss           0x00000000        0x0 c:/chibistudio/tools/gnu tools arm embedded/11.3 2022.08/bin/../lib/gcc/arm-none-eabi/11.3.1/thumb/v7e-m/nofp\libg_nano.a(libc_a-impure.o)
 .text          0x00000000        0x0 c:/chibistudio/tools/gnu tools arm embedded/11.3 2022.08/bin/../lib/gcc/arm-none-eabi/11.3.1/thumb/v7e-m/nofp\libg_nano.a(libc_a-errno.o)
 .data          0x00000000        0x0 c:/chibistudio/tools/gnu tools arm embedded/11.3 2022.08/bin/../lib/gcc/arm-none-eabi/11.3.1/thumb/v7e-m/nofp\libg_nano.a(libc_a-errno.o)
 .bss           0x00000000        0x0 c:/chibistudio/tools/gnu tools arm embedded/11.3 2022.08/bin/../lib/gcc/arm-none-eabi/11.3.1/thumb/v7e-m/nofp\libg_nano.a(libc_a-errno.o)
 .text          0x00000000        0x0 c:/chibistudio/tools/gnu tools arm embedded/11.3 2022.08/bin/../lib/gcc/arm-none-eabi/11.3.1/thumb/v7e-m/nofp\libg_nano.a(libc_a-sysopen.o)
 .data          0x00000000        0x0 c:/chibistudio/tools/gnu tools arm embedded/11.3 2022.08/bin/../lib/gcc/arm-none-eabi/11.3.1/thumb/v7e-m/nofp\libg_nano.a(libc_a-sysopen.o)
 .bss           0x00000000        0x0 c:/chibistudio/tools/gnu tools arm embedded/11.3 2022.08/bin/../lib/gcc/arm-none-eabi/11.3.1/thumb/v7e-m/nofp\libg_nano.a(libc_a-sysopen.o)
 .text          0x00000000        0x0 c:/chibistudio/tools/gnu tools arm embedded/11.3 2022.08/bin/../lib/gcc/arm-none-eabi/11.3.1/thumb/v7e-m/nofp\libg_nano.a(libc_a-sysread.o)
 .data          0x00000000        0x0 c:/chibistudio/tools/gnu tools arm embedded/11.3 2022.08/bin/../lib/gcc/arm-none-eabi/11.3.1/thumb/v7e-m/nofp\libg_nano.a(libc_a-sysread.o)
 .bss           0x00000000        0x0 c:/chibistudio/tools/gnu tools arm embedded/11.3 2022.08/bin/../lib/gcc/arm-none-eabi/11.3.1/thumb/v7e-m/nofp\libg_nano.a(libc_a-sysread.o)
 .text          0x00000000        0x0 c:/chibistudio/tools/gnu tools arm embedded/11.3 2022.08/bin/../lib/gcc/arm-none-eabi/11.3.1/thumb/v7e-m/nofp\libg_nano.a(libc_a-assert.o)
 .data          0x00000000        0x0 c:/chibistudio/tools/gnu tools arm embedded/11.3 2022.08/bin/../lib/gcc/arm-none-eabi/11.3.1/thumb/v7e-m/nofp\libg_nano.a(libc_a-assert.o)
 .bss           0x00000000        0x0 c:/chibistudio/tools/gnu tools arm embedded/11.3 2022.08/bin/../lib/gcc/arm-none-eabi/11.3.1/thumb/v7e-m/nofp\libg_nano.a(libc_a-assert.o)
 .text.__assert
                0x00000000        0xa c:/chibistudio/tools/gnu tools arm embedded/11.3 2022.08/bin/../lib/gcc/arm-none-eabi/11.3.1/thumb/v7e-m/nofp\libg_nano.a(libc_a-assert.o)
 .text          0x00000000        0x0 c:/chibistudio/tools/gnu tools arm embedded/11.3 2022.08/bin/../lib/gcc/arm-none-eabi/11.3.1/thumb/v7e-m/nofp\libg_nano.a(libc_a-malloc.o)
 .data          0x00000000        0x0 c:/chibistudio/tools/gnu tools arm embedded/11.3 2022.08/bin/../lib/gcc/arm-none-eabi/11.3.1/thumb/v7e-m/nofp\libg_nano.a(libc_a-malloc.o)
 .bss           0x00000000        0x0 c:/chibistudio/tools/gnu tools arm embedded/11.3 2022.08/bin/../lib/gcc/arm-none-eabi/11.3.1/thumb/v7e-m/nofp\libg_nano.a(libc_a-malloc.o)
 .text.free     0x00000000       0x10 c:/chibistudio/tools/gnu tools arm embedded/11.3 2022.08/bin/../lib/gcc/arm-none-eabi/11.3.1/thumb/v7e-m/nofp\libg_nano.a(libc_a-malloc.o)
 .text          0x00000000        0x0 c:/chibistudio/tools/gnu tools arm embedded/11.3 2022.08/bin/../lib/gcc/arm-none-eabi/11.3.1/thumb/v7e-m/nofp\libg_nano.a(libc_a-mallocr.o)
 .data          0x00000000        0x0 c:/chibistudio/tools/gnu tools arm embedded/11.3 2022.08/bin/../lib/gcc/arm-none-eabi/11.3.1/thumb/v7e-m/nofp\libg_nano.a(libc_a-mallocr.o)
 .bss           0x00000000        0x0 c:/chibistudio/tools/gnu tools arm embedded/11.3 2022.08/bin/../lib/gcc/arm-none-eabi/11.3.1/thumb/v7e-m/nofp\libg_nano.a(libc_a-mallocr.o)
 .text          0x00000000        0x0 c:/chibistudio/tools/gnu tools arm embedded/11.3 2022.08/bin/../lib/gcc/arm-none-eabi/11.3.1/thumb/v7e-m/nofp\libg_nano.a(libc_a-mlock.o)
 .data          0x00000000        0x0 c:/chibistudio/tools/gnu tools arm embedded/11.3 2022.08/bin/../lib/gcc/arm-none-eabi/11.3.1/thumb/v7e-m/nofp\libg_nano.a(libc_a-mlock.o)
 .bss           0x00000000        0x0 c:/chibistudio/tools/gnu tools arm embedded/11.3 2022.08/bin/../lib/gcc/arm-none-eabi/11.3.1/thumb/v7e-m/nofp\libg_nano.a(libc_a-mlock.o)
 .text          0x00000000        0x0 c:/chibistudio/tools/gnu tools arm embedded/11.3 2022.08/bin/../lib/gcc/arm-none-eabi/11.3.1/thumb/v7e-m/nofp\libg_nano.a(libc_a-fprintf.o)
 .data          0x00000000        0x0 c:/chibistudio/tools/gnu tools arm embedded/11.3 2022.08/bin/../lib/gcc/arm-none-eabi/11.3.1/thumb/v7e-m/nofp\libg_nano.a(libc_a-fprintf.o)
 .bss           0x00000000        0x0 c:/chibistudio/tools/gnu tools arm embedded/11.3 2022.08/bin/../lib/gcc/arm-none-eabi/11.3.1/thumb/v7e-m/nofp\libg_nano.a(libc_a-fprintf.o)
 .text._fprintf_r
                0x00000000       0x1a c:/chibistudio/tools/gnu tools arm embedded/11.3 2022.08/bin/../lib/gcc/arm-none-eabi/11.3.1/thumb/v7e-m/nofp\libg_nano.a(libc_a-fprintf.o)
 .text          0x00000000        0x0 c:/chibistudio/tools/gnu tools arm embedded/11.3 2022.08/bin/../lib/gcc/arm-none-eabi/11.3.1/thumb/v7e-m/nofp\libg_nano.a(libc_a-lock.o)
 .data          0x00000000        0x0 c:/chibistudio/tools/gnu tools arm embedded/11.3 2022.08/bin/../lib/gcc/arm-none-eabi/11.3.1/thumb/v7e-m/nofp\libg_nano.a(libc_a-lock.o)
 .bss           0x00000000        0x0 c:/chibistudio/tools/gnu tools arm embedded/11.3 2022.08/bin/../lib/gcc/arm-none-eabi/11.3.1/thumb/v7e-m/nofp\libg_nano.a(libc_a-lock.o)
 .text.__retarget_lock_init
                0x00000000        0x2 c:/chibistudio/tools/gnu tools arm embedded/11.3 2022.08/bin/../lib/gcc/arm-none-eabi/11.3.1/thumb/v7e-m/nofp\libg_nano.a(libc_a-lock.o)
 .text.__retarget_lock_init_recursive
                0x00000000        0x2 c:/chibistudio/tools/gnu tools arm embedded/11.3 2022.08/bin/../lib/gcc/arm-none-eabi/11.3.1/thumb/v7e-m/nofp\libg_nano.a(libc_a-lock.o)
 .text.__retarget_lock_close
                0x00000000        0x2 c:/chibistudio/tools/gnu tools arm embedded/11.3 2022.08/bin/../lib/gcc/arm-none-eabi/11.3.1/thumb/v7e-m/nofp\libg_nano.a(libc_a-lock.o)
 .text.__retarget_lock_close_recursive
                0x00000000        0x2 c:/chibistudio/tools/gnu tools arm embedded/11.3 2022.08/bin/../lib/gcc/arm-none-eabi/11.3.1/thumb/v7e-m/nofp\libg_nano.a(libc_a-lock.o)
 .text.__retarget_lock_acquire
                0x00000000        0x2 c:/chibistudio/tools/gnu tools arm embedded/11.3 2022.08/bin/../lib/gcc/arm-none-eabi/11.3.1/thumb/v7e-m/nofp\libg_nano.a(libc_a-lock.o)
 .text.__retarget_lock_try_acquire
                0x00000000        0x4 c:/chibistudio/tools/gnu tools arm embedded/11.3 2022.08/bin/../lib/gcc/arm-none-eabi/11.3.1/thumb/v7e-m/nofp\libg_nano.a(libc_a-lock.o)
 .text.__retarget_lock_try_acquire_recursive
                0x00000000        0x4 c:/chibistudio/tools/gnu tools arm embedded/11.3 2022.08/bin/../lib/gcc/arm-none-eabi/11.3.1/thumb/v7e-m/nofp\libg_nano.a(libc_a-lock.o)
 .text.__retarget_lock_release
                0x00000000        0x2 c:/chibistudio/tools/gnu tools arm embedded/11.3 2022.08/bin/../lib/gcc/arm-none-eabi/11.3.1/thumb/v7e-m/nofp\libg_nano.a(libc_a-lock.o)
 .bss.__lock___arc4random_mutex
                0x00000000        0x1 c:/chibistudio/tools/gnu tools arm embedded/11.3 2022.08/bin/../lib/gcc/arm-none-eabi/11.3.1/thumb/v7e-m/nofp\libg_nano.a(libc_a-lock.o)
 .bss.__lock___at_quick_exit_mutex
                0x00000000        0x1 c:/chibistudio/tools/gnu tools arm embedded/11.3 2022.08/bin/../lib/gcc/arm-none-eabi/11.3.1/thumb/v7e-m/nofp\libg_nano.a(libc_a-lock.o)
 .bss.__lock___atexit_recursive_mutex
                0x00000000        0x1 c:/chibistudio/tools/gnu tools arm embedded/11.3 2022.08/bin/../lib/gcc/arm-none-eabi/11.3.1/thumb/v7e-m/nofp\libg_nano.a(libc_a-lock.o)
 .bss.__lock___dd_hash_mutex
                0x00000000        0x1 c:/chibistudio/tools/gnu tools arm embedded/11.3 2022.08/bin/../lib/gcc/arm-none-eabi/11.3.1/thumb/v7e-m/nofp\libg_nano.a(libc_a-lock.o)
 .bss.__lock___env_recursive_mutex
                0x00000000        0x1 c:/chibistudio/tools/gnu tools arm embedded/11.3 2022.08/bin/../lib/gcc/arm-none-eabi/11.3.1/thumb/v7e-m/nofp\libg_nano.a(libc_a-lock.o)
 .bss.__lock___tz_mutex
                0x00000000        0x1 c:/chibistudio/tools/gnu tools arm embedded/11.3 2022.08/bin/../lib/gcc/arm-none-eabi/11.3.1/thumb/v7e-m/nofp\libg_nano.a(libc_a-lock.o)
 .text          0x00000000        0x0 c:/chibistudio/tools/gnu tools arm embedded/11.3 2022.08/bin/../lib/gcc/arm-none-eabi/11.3.1/thumb/v7e-m/nofp\libg_nano.a(libc_a-abort.o)
 .data          0x00000000        0x0 c:/chibistudio/tools/gnu tools arm embedded/11.3 2022.08/bin/../lib/gcc/arm-none-eabi/11.3.1/thumb/v7e-m/nofp\libg_nano.a(libc_a-abort.o)
 .bss           0x00000000        0x0 c:/chibistudio/tools/gnu tools arm embedded/11.3 2022.08/bin/../lib/gcc/arm-none-eabi/11.3.1/thumb/v7e-m/nofp\libg_nano.a(libc_a-abort.o)
 .text          0x00000000        0x0 c:/chibistudio/tools/gnu tools arm embedded/11.3 2022.08/bin/../lib/gcc/arm-none-eabi/11.3.1/thumb/v7e-m/nofp\libg_nano.a(libc_a-freer.o)
 .data          0x00000000        0x0 c:/chibistudio/tools/gnu tools arm embedded/11.3 2022.08/bin/../lib/gcc/arm-none-eabi/11.3.1/thumb/v7e-m/nofp\libg_nano.a(libc_a-freer.o)
 .bss           0x00000000        0x0 c:/chibistudio/tools/gnu tools arm embedded/11.3 2022.08/bin/../lib/gcc/arm-none-eabi/11.3.1/thumb/v7e-m/nofp\libg_nano.a(libc_a-freer.o)
 .text          0x00000000        0x0 c:/chibistudio/tools/gnu tools arm embedded/11.3 2022.08/bin/../lib/gcc/arm-none-eabi/11.3.1/thumb/v7e-m/nofp\libg_nano.a(libc_a-nano-vfprintf.o)
 .data          0x00000000        0x0 c:/chibistudio/tools/gnu tools arm embedded/11.3 2022.08/bin/../lib/gcc/arm-none-eabi/11.3.1/thumb/v7e-m/nofp\libg_nano.a(libc_a-nano-vfprintf.o)
 .bss           0x00000000        0x0 c:/chibistudio/tools/gnu tools arm embedded/11.3 2022.08/bin/../lib/gcc/arm-none-eabi/11.3.1/thumb/v7e-m/nofp\libg_nano.a(libc_a-nano-vfprintf.o)
 .text.__sprint_r
                0x00000000       0x1a c:/chibistudio/tools/gnu tools arm embedded/11.3 2022.08/bin/../lib/gcc/arm-none-eabi/11.3.1/thumb/v7e-m/nofp\libg_nano.a(libc_a-nano-vfprintf.o)
 .text.vfprintf
                0x00000000       0x14 c:/chibistudio/tools/gnu tools arm embedded/11.3 2022.08/bin/../lib/gcc/arm-none-eabi/11.3.1/thumb/v7e-m/nofp\libg_nano.a(libc_a-nano-vfprintf.o)
 .text          0x00000000        0x0 c:/chibistudio/tools/gnu tools arm embedded/11.3 2022.08/bin/../lib/gcc/arm-none-eabi/11.3.1/thumb/v7e-m/nofp\libg_nano.a(libc_a-nano-vfprintf_i.o)
 .data          0x00000000        0x0 c:/chibistudio/tools/gnu tools arm embedded/11.3 2022.08/bin/../lib/gcc/arm-none-eabi/11.3.1/thumb/v7e-m/nofp\libg_nano.a(libc_a-nano-vfprintf_i.o)
 .bss           0x00000000        0x0 c:/chibistudio/tools/gnu tools arm embedded/11.3 2022.08/bin/../lib/gcc/arm-none-eabi/11.3.1/thumb/v7e-m/nofp\libg_nano.a(libc_a-nano-vfprintf_i.o)
 .text          0x00000000        0x0 c:/chibistudio/tools/gnu tools arm embedded/11.3 2022.08/bin/../lib/gcc/arm-none-eabi/11.3.1/thumb/v7e-m/nofp\libg_nano.a(libc_a-findfp.o)
 .data          0x00000000        0x0 c:/chibistudio/tools/gnu tools arm embedded/11.3 2022.08/bin/../lib/gcc/arm-none-eabi/11.3.1/thumb/v7e-m/nofp\libg_nano.a(libc_a-findfp.o)
 .bss           0x00000000        0x0 c:/chibistudio/tools/gnu tools arm embedded/11.3 2022.08/bin/../lib/gcc/arm-none-eabi/11.3.1/thumb/v7e-m/nofp\libg_nano.a(libc_a-findfp.o)
 .text.__fp_lock
                0x00000000       0x18 c:/chibistudio/tools/gnu tools arm embedded/11.3 2022.08/bin/../lib/gcc/arm-none-eabi/11.3.1/thumb/v7e-m/nofp\libg_nano.a(libc_a-findfp.o)
 .text.__fp_unlock
                0x00000000       0x18 c:/chibistudio/tools/gnu tools arm embedded/11.3 2022.08/bin/../lib/gcc/arm-none-eabi/11.3.1/thumb/v7e-m/nofp\libg_nano.a(libc_a-findfp.o)
 .text.__sfp    0x00000000       0xa8 c:/chibistudio/tools/gnu tools arm embedded/11.3 2022.08/bin/../lib/gcc/arm-none-eabi/11.3.1/thumb/v7e-m/nofp\libg_nano.a(libc_a-findfp.o)
 .text.__fp_lock_all
                0x00000000       0x1c c:/chibistudio/tools/gnu tools arm embedded/11.3 2022.08/bin/../lib/gcc/arm-none-eabi/11.3.1/thumb/v7e-m/nofp\libg_nano.a(libc_a-findfp.o)
 .text.__fp_unlock_all
                0x00000000       0x1c c:/chibistudio/tools/gnu tools arm embedded/11.3 2022.08/bin/../lib/gcc/arm-none-eabi/11.3.1/thumb/v7e-m/nofp\libg_nano.a(libc_a-findfp.o)
 .text          0x00000000        0x0 c:/chibistudio/tools/gnu tools arm embedded/11.3 2022.08/bin/../lib/gcc/arm-none-eabi/11.3.1/thumb/v7e-m/nofp\libg_nano.a(libc_a-fvwrite.o)
 .data          0x00000000        0x0 c:/chibistudio/tools/gnu tools arm embedded/11.3 2022.08/bin/../lib/gcc/arm-none-eabi/11.3.1/thumb/v7e-m/nofp\libg_nano.a(libc_a-fvwrite.o)
 .bss           0x00000000        0x0 c:/chibistudio/tools/gnu tools arm embedded/11.3 2022.08/bin/../lib/gcc/arm-none-eabi/11.3.1/thumb/v7e-m/nofp\libg_nano.a(libc_a-fvwrite.o)
 .text.__sfvwrite_r
                0x00000000      0x294 c:/chibistudio/tools/gnu tools arm embedded/11.3 2022.08/bin/../lib/gcc/arm-none-eabi/11.3.1/thumb/v7e-m/nofp\libg_nano.a(libc_a-fvwrite.o)
 .debug_info    0x00000000      0xb39 c:/chibistudio/tools/gnu tools arm embedded/11.3 2022.08/bin/../lib/gcc/arm-none-eabi/11.3.1/thumb/v7e-m/nofp\libg_nano.a(libc_a-fvwrite.o)
 .debug_abbrev  0x00000000      0x21b c:/chibistudio/tools/gnu tools arm embedded/11.3 2022.08/bin/../lib/gcc/arm-none-eabi/11.3.1/thumb/v7e-m/nofp\libg_nano.a(libc_a-fvwrite.o)
 .debug_loclists
                0x00000000      0x420 c:/chibistudio/tools/gnu tools arm embedded/11.3 2022.08/bin/../lib/gcc/arm-none-eabi/11.3.1/thumb/v7e-m/nofp\libg_nano.a(libc_a-fvwrite.o)
 .debug_aranges
                0x00000000       0x20 c:/chibistudio/tools/gnu tools arm embedded/11.3 2022.08/bin/../lib/gcc/arm-none-eabi/11.3.1/thumb/v7e-m/nofp\libg_nano.a(libc_a-fvwrite.o)
 .debug_rnglists
                0x00000000       0x2e c:/chibistudio/tools/gnu tools arm embedded/11.3 2022.08/bin/../lib/gcc/arm-none-eabi/11.3.1/thumb/v7e-m/nofp\libg_nano.a(libc_a-fvwrite.o)
 .debug_line    0x00000000      0x601 c:/chibistudio/tools/gnu tools arm embedded/11.3 2022.08/bin/../lib/gcc/arm-none-eabi/11.3.1/thumb/v7e-m/nofp\libg_nano.a(libc_a-fvwrite.o)
 .debug_str     0x00000000      0x5ca c:/chibistudio/tools/gnu tools arm embedded/11.3 2022.08/bin/../lib/gcc/arm-none-eabi/11.3.1/thumb/v7e-m/nofp\libg_nano.a(libc_a-fvwrite.o)
 .comment       0x00000000       0x34 c:/chibistudio/tools/gnu tools arm embedded/11.3 2022.08/bin/../lib/gcc/arm-none-eabi/11.3.1/thumb/v7e-m/nofp\libg_nano.a(libc_a-fvwrite.o)
 .debug_frame   0x00000000       0x3c c:/chibistudio/tools/gnu tools arm embedded/11.3 2022.08/bin/../lib/gcc/arm-none-eabi/11.3.1/thumb/v7e-m/nofp\libg_nano.a(libc_a-fvwrite.o)
 .ARM.attributes
                0x00000000       0x2e c:/chibistudio/tools/gnu tools arm embedded/11.3 2022.08/bin/../lib/gcc/arm-none-eabi/11.3.1/thumb/v7e-m/nofp\libg_nano.a(libc_a-fvwrite.o)
 .text          0x00000000        0x0 c:/chibistudio/tools/gnu tools arm embedded/11.3 2022.08/bin/../lib/gcc/arm-none-eabi/11.3.1/thumb/v7e-m/nofp\libg_nano.a(libc_a-fwalk.o)
 .data          0x00000000        0x0 c:/chibistudio/tools/gnu tools arm embedded/11.3 2022.08/bin/../lib/gcc/arm-none-eabi/11.3.1/thumb/v7e-m/nofp\libg_nano.a(libc_a-fwalk.o)
 .bss           0x00000000        0x0 c:/chibistudio/tools/gnu tools arm embedded/11.3 2022.08/bin/../lib/gcc/arm-none-eabi/11.3.1/thumb/v7e-m/nofp\libg_nano.a(libc_a-fwalk.o)
 .text          0x00000000        0x0 c:/chibistudio/tools/gnu tools arm embedded/11.3 2022.08/bin/../lib/gcc/arm-none-eabi/11.3.1/thumb/v7e-m/nofp\libg_nano.a(libc_a-stdio.o)
 .data          0x00000000        0x0 c:/chibistudio/tools/gnu tools arm embedded/11.3 2022.08/bin/../lib/gcc/arm-none-eabi/11.3.1/thumb/v7e-m/nofp\libg_nano.a(libc_a-stdio.o)
 .bss           0x00000000        0x0 c:/chibistudio/tools/gnu tools arm embedded/11.3 2022.08/bin/../lib/gcc/arm-none-eabi/11.3.1/thumb/v7e-m/nofp\libg_nano.a(libc_a-stdio.o)
 .text.__seofread
                0x00000000        0x4 c:/chibistudio/tools/gnu tools arm embedded/11.3 2022.08/bin/../lib/gcc/arm-none-eabi/11.3.1/thumb/v7e-m/nofp\libg_nano.a(libc_a-stdio.o)
 .text          0x00000000        0x0 c:/chibistudio/tools/gnu tools arm embedded/11.3 2022.08/bin/../lib/gcc/arm-none-eabi/11.3.1/thumb/v7e-m/nofp\libg_nano.a(libc_a-wbuf.o)
 .data          0x00000000        0x0 c:/chibistudio/tools/gnu tools arm embedded/11.3 2022.08/bin/../lib/gcc/arm-none-eabi/11.3.1/thumb/v7e-m/nofp\libg_nano.a(libc_a-wbuf.o)
 .bss           0x00000000        0x0 c:/chibistudio/tools/gnu tools arm embedded/11.3 2022.08/bin/../lib/gcc/arm-none-eabi/11.3.1/thumb/v7e-m/nofp\libg_nano.a(libc_a-wbuf.o)
 .text.__swbuf  0x00000000       0x10 c:/chibistudio/tools/gnu tools arm embedded/11.3 2022.08/bin/../lib/gcc/arm-none-eabi/11.3.1/thumb/v7e-m/nofp\libg_nano.a(libc_a-wbuf.o)
 .text          0x00000000        0x0 c:/chibistudio/tools/gnu tools arm embedded/11.3 2022.08/bin/../lib/gcc/arm-none-eabi/11.3.1/thumb/v7e-m/nofp\libg_nano.a(libc_a-wsetup.o)
 .data          0x00000000        0x0 c:/chibistudio/tools/gnu tools arm embedded/11.3 2022.08/bin/../lib/gcc/arm-none-eabi/11.3.1/thumb/v7e-m/nofp\libg_nano.a(libc_a-wsetup.o)
 .bss           0x00000000        0x0 c:/chibistudio/tools/gnu tools arm embedded/11.3 2022.08/bin/../lib/gcc/arm-none-eabi/11.3.1/thumb/v7e-m/nofp\libg_nano.a(libc_a-wsetup.o)
 .text          0x00000000        0x0 c:/chibistudio/tools/gnu tools arm embedded/11.3 2022.08/bin/../lib/gcc/arm-none-eabi/11.3.1/thumb/v7e-m/nofp\libg_nano.a(libc_a-memmove.o)
 .data          0x00000000        0x0 c:/chibistudio/tools/gnu tools arm embedded/11.3 2022.08/bin/../lib/gcc/arm-none-eabi/11.3.1/thumb/v7e-m/nofp\libg_nano.a(libc_a-memmove.o)
 .bss           0x00000000        0x0 c:/chibistudio/tools/gnu tools arm embedded/11.3 2022.08/bin/../lib/gcc/arm-none-eabi/11.3.1/thumb/v7e-m/nofp\libg_nano.a(libc_a-memmove.o)
 .text.memmove  0x00000000       0x34 c:/chibistudio/tools/gnu tools arm embedded/11.3 2022.08/bin/../lib/gcc/arm-none-eabi/11.3.1/thumb/v7e-m/nofp\libg_nano.a(libc_a-memmove.o)
 .debug_info    0x00000000      0x10f c:/chibistudio/tools/gnu tools arm embedded/11.3 2022.08/bin/../lib/gcc/arm-none-eabi/11.3.1/thumb/v7e-m/nofp\libg_nano.a(libc_a-memmove.o)
 .debug_abbrev  0x00000000       0xac c:/chibistudio/tools/gnu tools arm embedded/11.3 2022.08/bin/../lib/gcc/arm-none-eabi/11.3.1/thumb/v7e-m/nofp\libg_nano.a(libc_a-memmove.o)
 .debug_loclists
                0x00000000      0x130 c:/chibistudio/tools/gnu tools arm embedded/11.3 2022.08/bin/../lib/gcc/arm-none-eabi/11.3.1/thumb/v7e-m/nofp\libg_nano.a(libc_a-memmove.o)
 .debug_aranges
                0x00000000       0x20 c:/chibistudio/tools/gnu tools arm embedded/11.3 2022.08/bin/../lib/gcc/arm-none-eabi/11.3.1/thumb/v7e-m/nofp\libg_nano.a(libc_a-memmove.o)
 .debug_rnglists
                0x00000000       0x13 c:/chibistudio/tools/gnu tools arm embedded/11.3 2022.08/bin/../lib/gcc/arm-none-eabi/11.3.1/thumb/v7e-m/nofp\libg_nano.a(libc_a-memmove.o)
 .debug_line    0x00000000      0x1b4 c:/chibistudio/tools/gnu tools arm embedded/11.3 2022.08/bin/../lib/gcc/arm-none-eabi/11.3.1/thumb/v7e-m/nofp\libg_nano.a(libc_a-memmove.o)
 .debug_str     0x00000000      0x221 c:/chibistudio/tools/gnu tools arm embedded/11.3 2022.08/bin/../lib/gcc/arm-none-eabi/11.3.1/thumb/v7e-m/nofp\libg_nano.a(libc_a-memmove.o)
 .comment       0x00000000       0x34 c:/chibistudio/tools/gnu tools arm embedded/11.3 2022.08/bin/../lib/gcc/arm-none-eabi/11.3.1/thumb/v7e-m/nofp\libg_nano.a(libc_a-memmove.o)
 .debug_frame   0x00000000       0x28 c:/chibistudio/tools/gnu tools arm embedded/11.3 2022.08/bin/../lib/gcc/arm-none-eabi/11.3.1/thumb/v7e-m/nofp\libg_nano.a(libc_a-memmove.o)
 .ARM.attributes
                0x00000000       0x2e c:/chibistudio/tools/gnu tools arm embedded/11.3 2022.08/bin/../lib/gcc/arm-none-eabi/11.3.1/thumb/v7e-m/nofp\libg_nano.a(libc_a-memmove.o)
 .text          0x00000000        0x0 c:/chibistudio/tools/gnu tools arm embedded/11.3 2022.08/bin/../lib/gcc/arm-none-eabi/11.3.1/thumb/v7e-m/nofp\libg_nano.a(libc_a-memset.o)
 .data          0x00000000        0x0 c:/chibistudio/tools/gnu tools arm embedded/11.3 2022.08/bin/../lib/gcc/arm-none-eabi/11.3.1/thumb/v7e-m/nofp\libg_nano.a(libc_a-memset.o)
 .bss           0x00000000        0x0 c:/chibistudio/tools/gnu tools arm embedded/11.3 2022.08/bin/../lib/gcc/arm-none-eabi/11.3.1/thumb/v7e-m/nofp\libg_nano.a(libc_a-memset.o)
 .text          0x00000000        0x0 c:/chibistudio/tools/gnu tools arm embedded/11.3 2022.08/bin/../lib/gcc/arm-none-eabi/11.3.1/thumb/v7e-m/nofp\libg_nano.a(libc_a-signal.o)
 .data          0x00000000        0x0 c:/chibistudio/tools/gnu tools arm embedded/11.3 2022.08/bin/../lib/gcc/arm-none-eabi/11.3.1/thumb/v7e-m/nofp\libg_nano.a(libc_a-signal.o)
 .bss           0x00000000        0x0 c:/chibistudio/tools/gnu tools arm embedded/11.3 2022.08/bin/../lib/gcc/arm-none-eabi/11.3.1/thumb/v7e-m/nofp\libg_nano.a(libc_a-signal.o)
 .text._init_signal_r
                0x00000000       0x28 c:/chibistudio/tools/gnu tools arm embedded/11.3 2022.08/bin/../lib/gcc/arm-none-eabi/11.3.1/thumb/v7e-m/nofp\libg_nano.a(libc_a-signal.o)
 .text._signal_r
                0x00000000       0x30 c:/chibistudio/tools/gnu tools arm embedded/11.3 2022.08/bin/../lib/gcc/arm-none-eabi/11.3.1/thumb/v7e-m/nofp\libg_nano.a(libc_a-signal.o)
 .text.__sigtramp_r
                0x00000000       0x48 c:/chibistudio/tools/gnu tools arm embedded/11.3 2022.08/bin/../lib/gcc/arm-none-eabi/11.3.1/thumb/v7e-m/nofp\libg_nano.a(libc_a-signal.o)
 .text.signal   0x00000000       0x10 c:/chibistudio/tools/gnu tools arm embedded/11.3 2022.08/bin/../lib/gcc/arm-none-eabi/11.3.1/thumb/v7e-m/nofp\libg_nano.a(libc_a-signal.o)
 .text._init_signal
                0x00000000        0xc c:/chibistudio/tools/gnu tools arm embedded/11.3 2022.08/bin/../lib/gcc/arm-none-eabi/11.3.1/thumb/v7e-m/nofp\libg_nano.a(libc_a-signal.o)
 .text.__sigtramp
                0x00000000       0x10 c:/chibistudio/tools/gnu tools arm embedded/11.3 2022.08/bin/../lib/gcc/arm-none-eabi/11.3.1/thumb/v7e-m/nofp\libg_nano.a(libc_a-signal.o)
 .text          0x00000000        0x0 c:/chibistudio/tools/gnu tools arm embedded/11.3 2022.08/bin/../lib/gcc/arm-none-eabi/11.3.1/thumb/v7e-m/nofp\libg_nano.a(libc_a-signalr.o)
 .data          0x00000000        0x0 c:/chibistudio/tools/gnu tools arm embedded/11.3 2022.08/bin/../lib/gcc/arm-none-eabi/11.3.1/thumb/v7e-m/nofp\libg_nano.a(libc_a-signalr.o)
 .bss           0x00000000        0x0 c:/chibistudio/tools/gnu tools arm embedded/11.3 2022.08/bin/../lib/gcc/arm-none-eabi/11.3.1/thumb/v7e-m/nofp\libg_nano.a(libc_a-signalr.o)
 .data          0x00000000        0x0 c:/chibistudio/tools/gnu tools arm embedded/11.3 2022.08/bin/../lib/gcc/arm-none-eabi/11.3.1/thumb/v7e-m/nofp\libg_nano.a(libc_a-memchr.o)
 .bss           0x00000000        0x0 c:/chibistudio/tools/gnu tools arm embedded/11.3 2022.08/bin/../lib/gcc/arm-none-eabi/11.3.1/thumb/v7e-m/nofp\libg_nano.a(libc_a-memchr.o)
 .text          0x00000000        0x0 c:/chibistudio/tools/gnu tools arm embedded/11.3 2022.08/bin/../lib/gcc/arm-none-eabi/11.3.1/thumb/v7e-m/nofp\libg_nano.a(libc_a-memcpy-stub.o)
 .data          0x00000000        0x0 c:/chibistudio/tools/gnu tools arm embedded/11.3 2022.08/bin/../lib/gcc/arm-none-eabi/11.3.1/thumb/v7e-m/nofp\libg_nano.a(libc_a-memcpy-stub.o)
 .bss           0x00000000        0x0 c:/chibistudio/tools/gnu tools arm embedded/11.3 2022.08/bin/../lib/gcc/arm-none-eabi/11.3.1/thumb/v7e-m/nofp\libg_nano.a(libc_a-memcpy-stub.o)
 .text          0x00000000        0x0 c:/chibistudio/tools/gnu tools arm embedded/11.3 2022.08/bin/../lib/gcc/arm-none-eabi/11.3.1/thumb/v7e-m/nofp\libg_nano.a(libc_a-reallocr.o)
 .data          0x00000000        0x0 c:/chibistudio/tools/gnu tools arm embedded/11.3 2022.08/bin/../lib/gcc/arm-none-eabi/11.3.1/thumb/v7e-m/nofp\libg_nano.a(libc_a-reallocr.o)
 .bss           0x00000000        0x0 c:/chibistudio/tools/gnu tools arm embedded/11.3 2022.08/bin/../lib/gcc/arm-none-eabi/11.3.1/thumb/v7e-m/nofp\libg_nano.a(libc_a-reallocr.o)
 .text._realloc_r
                0x00000000       0x5e c:/chibistudio/tools/gnu tools arm embedded/11.3 2022.08/bin/../lib/gcc/arm-none-eabi/11.3.1/thumb/v7e-m/nofp\libg_nano.a(libc_a-reallocr.o)
 .debug_info    0x00000000      0x8c6 c:/chibistudio/tools/gnu tools arm embedded/11.3 2022.08/bin/../lib/gcc/arm-none-eabi/11.3.1/thumb/v7e-m/nofp\libg_nano.a(libc_a-reallocr.o)
 .debug_abbrev  0x00000000      0x217 c:/chibistudio/tools/gnu tools arm embedded/11.3 2022.08/bin/../lib/gcc/arm-none-eabi/11.3.1/thumb/v7e-m/nofp\libg_nano.a(libc_a-reallocr.o)
 .debug_loclists
                0x00000000       0xf0 c:/chibistudio/tools/gnu tools arm embedded/11.3 2022.08/bin/../lib/gcc/arm-none-eabi/11.3.1/thumb/v7e-m/nofp\libg_nano.a(libc_a-reallocr.o)
 .debug_aranges
                0x00000000       0x20 c:/chibistudio/tools/gnu tools arm embedded/11.3 2022.08/bin/../lib/gcc/arm-none-eabi/11.3.1/thumb/v7e-m/nofp\libg_nano.a(libc_a-reallocr.o)
 .debug_rnglists
                0x00000000       0x13 c:/chibistudio/tools/gnu tools arm embedded/11.3 2022.08/bin/../lib/gcc/arm-none-eabi/11.3.1/thumb/v7e-m/nofp\libg_nano.a(libc_a-reallocr.o)
 .debug_line    0x00000000      0x260 c:/chibistudio/tools/gnu tools arm embedded/11.3 2022.08/bin/../lib/gcc/arm-none-eabi/11.3.1/thumb/v7e-m/nofp\libg_nano.a(libc_a-reallocr.o)
 .debug_str     0x00000000      0x59c c:/chibistudio/tools/gnu tools arm embedded/11.3 2022.08/bin/../lib/gcc/arm-none-eabi/11.3.1/thumb/v7e-m/nofp\libg_nano.a(libc_a-reallocr.o)
 .comment       0x00000000       0x34 c:/chibistudio/tools/gnu tools arm embedded/11.3 2022.08/bin/../lib/gcc/arm-none-eabi/11.3.1/thumb/v7e-m/nofp\libg_nano.a(libc_a-reallocr.o)
 .debug_frame   0x00000000       0x3c c:/chibistudio/tools/gnu tools arm embedded/11.3 2022.08/bin/../lib/gcc/arm-none-eabi/11.3.1/thumb/v7e-m/nofp\libg_nano.a(libc_a-reallocr.o)
 .ARM.attributes
                0x00000000       0x2e c:/chibistudio/tools/gnu tools arm embedded/11.3 2022.08/bin/../lib/gcc/arm-none-eabi/11.3.1/thumb/v7e-m/nofp\libg_nano.a(libc_a-reallocr.o)
 .text          0x00000000        0x0 c:/chibistudio/tools/gnu tools arm embedded/11.3 2022.08/bin/../lib/gcc/arm-none-eabi/11.3.1/thumb/v7e-m/nofp\libg_nano.a(libc_a-fflush.o)
 .data          0x00000000        0x0 c:/chibistudio/tools/gnu tools arm embedded/11.3 2022.08/bin/../lib/gcc/arm-none-eabi/11.3.1/thumb/v7e-m/nofp\libg_nano.a(libc_a-fflush.o)
 .bss           0x00000000        0x0 c:/chibistudio/tools/gnu tools arm embedded/11.3 2022.08/bin/../lib/gcc/arm-none-eabi/11.3.1/thumb/v7e-m/nofp\libg_nano.a(libc_a-fflush.o)
 .text.fflush   0x00000000       0x28 c:/chibistudio/tools/gnu tools arm embedded/11.3 2022.08/bin/../lib/gcc/arm-none-eabi/11.3.1/thumb/v7e-m/nofp\libg_nano.a(libc_a-fflush.o)
 .text          0x00000000        0x0 c:/chibistudio/tools/gnu tools arm embedded/11.3 2022.08/bin/../lib/gcc/arm-none-eabi/11.3.1/thumb/v7e-m/nofp\libg_nano.a(libc_a-makebuf.o)
 .data          0x00000000        0x0 c:/chibistudio/tools/gnu tools arm embedded/11.3 2022.08/bin/../lib/gcc/arm-none-eabi/11.3.1/thumb/v7e-m/nofp\libg_nano.a(libc_a-makebuf.o)
 .bss           0x00000000        0x0 c:/chibistudio/tools/gnu tools arm embedded/11.3 2022.08/bin/../lib/gcc/arm-none-eabi/11.3.1/thumb/v7e-m/nofp\libg_nano.a(libc_a-makebuf.o)
 .text          0x00000000        0x0 c:/chibistudio/tools/gnu tools arm embedded/11.3 2022.08/bin/../lib/gcc/arm-none-eabi/11.3.1/thumb/v7e-m/nofp\libg_nano.a(libc_a-reent.o)
 .data          0x00000000        0x0 c:/chibistudio/tools/gnu tools arm embedded/11.3 2022.08/bin/../lib/gcc/arm-none-eabi/11.3.1/thumb/v7e-m/nofp\libg_nano.a(libc_a-reent.o)
 .bss           0x00000000        0x0 c:/chibistudio/tools/gnu tools arm embedded/11.3 2022.08/bin/../lib/gcc/arm-none-eabi/11.3.1/thumb/v7e-m/nofp\libg_nano.a(libc_a-reent.o)
 .text._reclaim_reent
                0x00000000       0xac c:/chibistudio/tools/gnu tools arm embedded/11.3 2022.08/bin/../lib/gcc/arm-none-eabi/11.3.1/thumb/v7e-m/nofp\libg_nano.a(libc_a-reent.o)
 .text          0x00000000        0x0 c:/chibistudio/tools/gnu tools arm embedded/11.3 2022.08/bin/../lib/gcc/arm-none-eabi/11.3.1/thumb/v7e-m/nofp\libg_nano.a(libc_a-msizer.o)
 .data          0x00000000        0x0 c:/chibistudio/tools/gnu tools arm embedded/11.3 2022.08/bin/../lib/gcc/arm-none-eabi/11.3.1/thumb/v7e-m/nofp\libg_nano.a(libc_a-msizer.o)
 .bss           0x00000000        0x0 c:/chibistudio/tools/gnu tools arm embedded/11.3 2022.08/bin/../lib/gcc/arm-none-eabi/11.3.1/thumb/v7e-m/nofp\libg_nano.a(libc_a-msizer.o)
 .text._malloc_usable_size_r
                0x00000000       0x10 c:/chibistudio/tools/gnu tools arm embedded/11.3 2022.08/bin/../lib/gcc/arm-none-eabi/11.3.1/thumb/v7e-m/nofp\libg_nano.a(libc_a-msizer.o)
 .debug_info    0x00000000      0x793 c:/chibistudio/tools/gnu tools arm embedded/11.3 2022.08/bin/../lib/gcc/arm-none-eabi/11.3.1/thumb/v7e-m/nofp\libg_nano.a(libc_a-msizer.o)
 .debug_abbrev  0x00000000      0x196 c:/chibistudio/tools/gnu tools arm embedded/11.3 2022.08/bin/../lib/gcc/arm-none-eabi/11.3.1/thumb/v7e-m/nofp\libg_nano.a(libc_a-msizer.o)
 .debug_loclists
                0x00000000       0x62 c:/chibistudio/tools/gnu tools arm embedded/11.3 2022.08/bin/../lib/gcc/arm-none-eabi/11.3.1/thumb/v7e-m/nofp\libg_nano.a(libc_a-msizer.o)
 .debug_aranges
                0x00000000       0x20 c:/chibistudio/tools/gnu tools arm embedded/11.3 2022.08/bin/../lib/gcc/arm-none-eabi/11.3.1/thumb/v7e-m/nofp\libg_nano.a(libc_a-msizer.o)
 .debug_rnglists
                0x00000000       0x13 c:/chibistudio/tools/gnu tools arm embedded/11.3 2022.08/bin/../lib/gcc/arm-none-eabi/11.3.1/thumb/v7e-m/nofp\libg_nano.a(libc_a-msizer.o)
 .debug_line    0x00000000      0x1f0 c:/chibistudio/tools/gnu tools arm embedded/11.3 2022.08/bin/../lib/gcc/arm-none-eabi/11.3.1/thumb/v7e-m/nofp\libg_nano.a(libc_a-msizer.o)
 .debug_str     0x00000000      0x56f c:/chibistudio/tools/gnu tools arm embedded/11.3 2022.08/bin/../lib/gcc/arm-none-eabi/11.3.1/thumb/v7e-m/nofp\libg_nano.a(libc_a-msizer.o)
 .comment       0x00000000       0x34 c:/chibistudio/tools/gnu tools arm embedded/11.3 2022.08/bin/../lib/gcc/arm-none-eabi/11.3.1/thumb/v7e-m/nofp\libg_nano.a(libc_a-msizer.o)
 .debug_frame   0x00000000       0x20 c:/chibistudio/tools/gnu tools arm embedded/11.3 2022.08/bin/../lib/gcc/arm-none-eabi/11.3.1/thumb/v7e-m/nofp\libg_nano.a(libc_a-msizer.o)
 .ARM.attributes
                0x00000000       0x2e c:/chibistudio/tools/gnu tools arm embedded/11.3 2022.08/bin/../lib/gcc/arm-none-eabi/11.3.1/thumb/v7e-m/nofp\libg_nano.a(libc_a-msizer.o)
 .text          0x00000000        0x0 c:/chibistudio/tools/gnu tools arm embedded/11.3 2022.08/bin/../lib/gcc/arm-none-eabi/11.3.1/thumb/v7e-m/nofp\libg_nano.a(libc_a-memcmp.o)
 .data          0x00000000        0x0 c:/chibistudio/tools/gnu tools arm embedded/11.3 2022.08/bin/../lib/gcc/arm-none-eabi/11.3.1/thumb/v7e-m/nofp\libg_nano.a(libc_a-memcmp.o)
 .bss           0x00000000        0x0 c:/chibistudio/tools/gnu tools arm embedded/11.3 2022.08/bin/../lib/gcc/arm-none-eabi/11.3.1/thumb/v7e-m/nofp\libg_nano.a(libc_a-memcmp.o)
 .text          0x00000000        0x0 c:/chibistudio/tools/gnu tools arm embedded/11.3 2022.08/bin/../lib/gcc/arm-none-eabi/11.3.1/thumb/v7e-m/nofp\libg_nano.a(libc_a-strncmp.o)
 .data          0x00000000        0x0 c:/chibistudio/tools/gnu tools arm embedded/11.3 2022.08/bin/../lib/gcc/arm-none-eabi/11.3.1/thumb/v7e-m/nofp\libg_nano.a(libc_a-strncmp.o)
 .bss           0x00000000        0x0 c:/chibistudio/tools/gnu tools arm embedded/11.3 2022.08/bin/../lib/gcc/arm-none-eabi/11.3.1/thumb/v7e-m/nofp\libg_nano.a(libc_a-strncmp.o)
 .data          0x00000000        0x0 c:/chibistudio/tools/gnu tools arm embedded/11.3 2022.08/bin/../lib/gcc/arm-none-eabi/11.3.1/thumb/v7e-m/nofp\libg_nano.a(libc_a-strcmp.o)
 .bss           0x00000000        0x0 c:/chibistudio/tools/gnu tools arm embedded/11.3 2022.08/bin/../lib/gcc/arm-none-eabi/11.3.1/thumb/v7e-m/nofp\libg_nano.a(libc_a-strcmp.o)

Memory Configuration

Name             Origin             Length             Attributes
flash0           0x08000000         0x00100000         xr
flash1           0x00000000         0x00000000         xr
flash2           0x00000000         0x00000000         xr
flash3           0x00000000         0x00000000         xr
flash4           0x00000000         0x00000000         xr
flash5           0x00000000         0x00000000         xr
flash6           0x00000000         0x00000000         xr
flash7           0x00000000         0x00000000         xr
ram0             0x20000000         0x00020000         xw
ram1             0x20000000         0x0001c000         xw
ram2             0x2001c000         0x00004000         xw
ram3             0x00000000         0x00000000         xw
ram4             0x10000000         0x00010000         xw
ram5             0x40024000         0x00001000         xw
ram6             0x00000000         0x00000000         xw
ram7             0x00000000         0x00000000         xw
*default*        0x00000000         0xffffffff

Linker script and memory map

LOAD ./build/obj/crt0_v7m.o
LOAD ./build/obj/vectors.o
LOAD ./build/obj/chcoreasm.o
LOAD ./build/obj/crt1.o
LOAD C:\Users\Ridwane\AppData\Local\Temp\ccG6qa3f.ltrans0.ltrans.o
LOAD C:\Users\Ridwane\AppData\Local\Temp\ccG6qa3f.ltrans1.ltrans.o
LOAD C:\Users\Ridwane\AppData\Local\Temp\ccMjm6eA.debug.temp.o
LOAD C:\Users\Ridwane\AppData\Local\Temp\ccmIIEHO.debug.temp.o
LOAD C:\Users\Ridwane\AppData\Local\Temp\ccGc6L52.debug.temp.o
LOAD C:\Users\Ridwane\AppData\Local\Temp\ccM3mEvh.debug.temp.o
LOAD C:\Users\Ridwane\AppData\Local\Temp\ccQHTV6v.debug.temp.o
LOAD C:\Users\Ridwane\AppData\Local\Temp\ccErrMDK.debug.temp.o
LOAD C:\Users\Ridwane\AppData\Local\Temp\cc6pSUcZ.debug.temp.o
LOAD C:\Users\Ridwane\AppData\Local\Temp\cc6PAfvh.debug.temp.o
LOAD C:\Users\Ridwane\AppData\Local\Temp\ccWIePGz.debug.temp.o
LOAD C:\Users\Ridwane\AppData\Local\Temp\ccE1d85R.debug.temp.o
LOAD C:\Users\Ridwane\AppData\Local\Temp\ccgXiLxa.debug.temp.o
LOAD C:\Users\Ridwane\AppData\Local\Temp\ccuIcoUs.debug.temp.o
LOAD C:\Users\Ridwane\AppData\Local\Temp\ccATrKuL.debug.temp.o
LOAD C:\Users\Ridwane\AppData\Local\Temp\ccwxClY3.debug.temp.o
LOAD C:\Users\Ridwane\AppData\Local\Temp\ccclW6Em.debug.temp.o
LOAD C:\Users\Ridwane\AppData\Local\Temp\ccoPLnpF.debug.temp.o
LOAD C:\Users\Ridwane\AppData\Local\Temp\ccOI6H1X.debug.temp.o
LOAD C:\Users\Ridwane\AppData\Local\Temp\ccsthxGf.debug.temp.o
LOAD C:\Users\Ridwane\AppData\Local\Temp\ccYNgGnx.debug.temp.o
LOAD C:\Users\Ridwane\AppData\Local\Temp\ccghyo0O.debug.temp.o
LOAD C:\Users\Ridwane\AppData\Local\Temp\ccqabQQ6.debug.temp.o
LOAD C:\Users\Ridwane\AppData\Local\Temp\cccTChCo.debug.temp.o
LOAD C:\Users\Ridwane\AppData\Local\Temp\ccWok8yG.debug.temp.o
LOAD C:\Users\Ridwane\AppData\Local\Temp\ccq02xrY.debug.temp.o
LOAD C:\Users\Ridwane\AppData\Local\Temp\ccABK2ng.debug.temp.o
LOAD C:\Users\Ridwane\AppData\Local\Temp\ccGWqWvy.debug.temp.o
LOAD C:\Users\Ridwane\AppData\Local\Temp\ccyqppzQ.debug.temp.o
LOAD C:\Users\Ridwane\AppData\Local\Temp\ccGGihE7.debug.temp.o
LOAD C:\Users\Ridwane\AppData\Local\Temp\ccGEczMo.debug.temp.o
LOAD C:\Users\Ridwane\AppData\Local\Temp\ccqI7pQF.debug.temp.o
LOAD C:\Users\Ridwane\AppData\Local\Temp\ccQBiv5W.debug.temp.o
LOAD C:\Users\Ridwane\AppData\Local\Temp\cc0Emute.debug.temp.o
LOAD C:\Users\Ridwane\AppData\Local\Temp\ccOAwtMv.debug.temp.o
LOAD C:\Users\Ridwane\AppData\Local\Temp\ccuW1bjN.debug.temp.o
LOAD C:\Users\Ridwane\AppData\Local\Temp\ccUnytL4.debug.temp.o
LOAD C:\Users\Ridwane\AppData\Local\Temp\ccyGUfgl.debug.temp.o
LOAD C:\Users\Ridwane\AppData\Local\Temp\cc46ELNB.debug.temp.o
LOAD C:\Users\Ridwane\AppData\Local\Temp\cckVnQrS.debug.temp.o
LOAD C:\Users\Ridwane\AppData\Local\Temp\ccczVU08.debug.temp.o
LOAD C:\Users\Ridwane\AppData\Local\Temp\ccWCOINp.debug.temp.o
LOAD C:\Users\Ridwane\AppData\Local\Temp\cciwwwvG.debug.temp.o
LOAD C:\Users\Ridwane\AppData\Local\Temp\ccgVACmX.debug.temp.o
LOAD C:\Users\Ridwane\AppData\Local\Temp\cc4M6tfe.debug.temp.o
LOAD C:\Users\Ridwane\AppData\Local\Temp\ccKmzVTy.debug.temp.o
LOAD C:\Users\Ridwane\AppData\Local\Temp\ccExP4rT.debug.temp.o
LOAD C:\Users\Ridwane\AppData\Local\Temp\ccmYMode.debug.temp.o
LOAD C:\Users\Ridwane\AppData\Local\Temp\ccUVh20y.debug.temp.o
LOAD C:\Users\Ridwane\AppData\Local\Temp\cccZNeKT.debug.temp.o
LOAD C:\Users\Ridwane\AppData\Local\Temp\ccectBGe.debug.temp.o
LOAD C:\Users\Ridwane\AppData\Local\Temp\ccARztyz.debug.temp.o
LOAD C:\Users\Ridwane\AppData\Local\Temp\cckXvOBU.debug.temp.o
LOAD C:\Users\Ridwane\AppData\Local\Temp\ccGSg9zf.debug.temp.o
LOAD C:\Users\Ridwane\AppData\Local\Temp\ccoV3xBz.debug.temp.o
LOAD C:\Users\Ridwane\AppData\Local\Temp\ccQ3RvyT.debug.temp.o
LOAD C:\Users\Ridwane\AppData\Local\Temp\cc2lPDId.debug.temp.o
LOAD C:\Users\Ridwane\AppData\Local\Temp\ccWGwkOx.debug.temp.o
LOAD C:\Users\Ridwane\AppData\Local\Temp\ccKuQK7R.debug.temp.o
LOAD C:\Users\Ridwane\AppData\Local\Temp\cccbgbmc.debug.temp.o
LOAD C:\Users\Ridwane\AppData\Local\Temp\ccueKkOw.debug.temp.o
LOAD C:\Users\Ridwane\AppData\Local\Temp\cco72tbR.debug.temp.o
LOAD C:\Users\Ridwane\AppData\Local\Temp\ccE7nHBa.debug.temp.o
LOAD C:\Users\Ridwane\AppData\Local\Temp\ccEdKtXt.debug.temp.o
LOAD C:\Users\Ridwane\AppData\Local\Temp\ccyWbAlN.debug.temp.o
LOAD C:\Users\Ridwane\AppData\Local\Temp\cccPMQW6.debug.temp.o
LOAD C:\Users\Ridwane\AppData\Local\Temp\ccANoGtq.debug.temp.o
LOAD C:\Users\Ridwane\AppData\Local\Temp\ccWygVbK.debug.temp.o
LOAD C:\Users\Ridwane\AppData\Local\Temp\ccU9W9O3.debug.temp.o
LOAD C:\Users\Ridwane\AppData\Local\Temp\ccMnJIun.debug.temp.o
LOAD C:\Users\Ridwane\AppData\Local\Temp\ccw1Q0nH.debug.temp.o
LOAD C:\Users\Ridwane\AppData\Local\Temp\ccSuNic1.debug.temp.o
LOAD C:\Users\Ridwane\AppData\Local\Temp\cc8APU2k.debug.temp.o
LOAD C:\Users\Ridwane\AppData\Local\Temp\ccKOTAWD.debug.temp.o
LOAD C:\Users\Ridwane\AppData\Local\Temp\ccYRMgLW.debug.temp.o
LOAD C:\Users\Ridwane\AppData\Local\Temp\cc4k1FNf.debug.temp.o
LOAD C:\Users\Ridwane\AppData\Local\Temp\ccUTgELy.debug.temp.o
LOAD C:\Users\Ridwane\AppData\Local\Temp\ccAZzsUR.debug.temp.o
LOAD C:\Users\Ridwane\AppData\Local\Temp\cc0aUPYa.debug.temp.o
LOAD C:\Users\Ridwane\AppData\Local\Temp\cciMzWgu.debug.temp.o
LOAD C:\Users\Ridwane\AppData\Local\Temp\cckHRNAN.debug.temp.o
LOAD C:\Users\Ridwane\AppData\Local\Temp\cc8KreQ6.debug.temp.o
LOAD ./build/obj/hal.o
LOAD ./build/obj/hal_st.o
LOAD ./build/obj/hal_buffered_serial.o
LOAD ./build/obj/hal_buffers.o
LOAD ./build/obj/hal_queues.o
LOAD ./build/obj/hal_flash.o
LOAD ./build/obj/hal_mmcsd.o
LOAD ./build/obj/hal_pal.o
LOAD ./build/obj/hal_serial.o
LOAD ./build/obj/nvic.o
LOAD ./build/obj/stm32_isr.o
LOAD ./build/obj/hal_lld.o
LOAD ./build/obj/hal_efl_lld.o
LOAD ./build/obj/stm32_dma.o
LOAD ./build/obj/stm32_exti.o
LOAD ./build/obj/hal_pal_lld.o
LOAD ./build/obj/hal_st_lld.o
LOAD ./build/obj/hal_serial_lld.o
LOAD ./build/obj/board.o
LOAD ./build/obj/osal.o
LOAD ./build/obj/chsys.o
LOAD ./build/obj/chrfcu.o
LOAD ./build/obj/chdebug.o
LOAD ./build/obj/chtrace.o
LOAD ./build/obj/chvt.o
LOAD ./build/obj/chschd.o
LOAD ./build/obj/chinstances.o
LOAD ./build/obj/chthreads.o
LOAD ./build/obj/chtm.o
LOAD ./build/obj/chregistry.o
LOAD ./build/obj/chsem.o
LOAD ./build/obj/chmtx.o
LOAD ./build/obj/chcond.o
LOAD ./build/obj/chevents.o
LOAD ./build/obj/chmsg.o
LOAD ./build/obj/chdynamic.o
LOAD ./build/obj/chmboxes.o
LOAD ./build/obj/chmemcore.o
LOAD ./build/obj/chmemheaps.o
LOAD ./build/obj/chmempools.o
LOAD ./build/obj/chpipes.o
LOAD ./build/obj/chobjcaches.o
LOAD ./build/obj/chdelegates.o
LOAD ./build/obj/chfactory.o
LOAD ./build/obj/chcore.o
LOAD ./build/obj/ch_test.o
LOAD ./build/obj/ch_test_printf.o
LOAD ./build/obj/rt_test_root.o
LOAD ./build/obj/rt_test_sequence_001.o
LOAD ./build/obj/rt_test_sequence_002.o
LOAD ./build/obj/rt_test_sequence_003.o
LOAD ./build/obj/rt_test_sequence_004.o
LOAD ./build/obj/rt_test_sequence_005.o
LOAD ./build/obj/rt_test_sequence_006.o
LOAD ./build/obj/rt_test_sequence_007.o
LOAD ./build/obj/rt_test_sequence_008.o
LOAD ./build/obj/rt_test_sequence_009.o
LOAD ./build/obj/rt_test_sequence_010.o
LOAD ./build/obj/rt_test_sequence_011.o
LOAD ./build/obj/rt_test_sequence_012.o
LOAD ./build/obj/oslib_test_root.o
LOAD ./build/obj/oslib_test_sequence_001.o
LOAD ./build/obj/oslib_test_sequence_002.o
LOAD ./build/obj/oslib_test_sequence_003.o
LOAD ./build/obj/oslib_test_sequence_004.o
LOAD ./build/obj/oslib_test_sequence_005.o
LOAD ./build/obj/oslib_test_sequence_006.o
LOAD ./build/obj/oslib_test_sequence_007.o
LOAD ./build/obj/oslib_test_sequence_008.o
LOAD ./build/obj/oslib_test_sequence_009.o
LOAD ./build/obj/syscalls.o
LOAD ./build/obj/chprintf.o
LOAD ./build/obj/main.o
LOAD ./build/obj/sign.o
LOAD ./build/obj/consts.o
LOAD ./build/obj/fips202.o
LOAD ./build/obj/packing.o
LOAD ./build/obj/polyvec.o
LOAD ./build/obj/randombytes.o

.mstack         0x20000000      0x400
                0x20000000                . = ALIGN (0x8)
                0x20000000                __main_stack_base__ = .
                0x20000400                . = (. + __main_stack_size__)
 *fill*         0x20000000      0x400 
                0x20000400                . = ALIGN (0x8)
                0x20000400                __main_stack_end__ = .

.pstack         0x20000400      0x400
                0x20000400                . = ALIGN (0x8)
                0x20000400                __process_stack_base__ = .
                0x20000400                __main_thread_stack_base__ = .
                0x20000800                . = (. + __process_stack_size__)
 *fill*         0x20000400      0x400 
                0x20000800                . = ALIGN (0x8)
                0x20000800                __process_stack_end__ = .
                0x20000800                __main_thread_stack_end__ = .

.vectors        0x08000000      0x1e0
                0x08000000                __textvectors_base__ = LOADADDR (.vectors)
                0x08000000                __vectors_base__ = .
 *(.vectors)
 .vectors       0x08000000      0x1e0 ./build/obj/vectors.o
                0x08000000                _vectors
                0x080001e0                __vectors_end__ = .

.xtors          0x080001e0        0x0
                0x080001e0                __init_array_base__ = .
 *(SORT_BY_NAME(.init_array.*))
 *(.init_array)
                0x080001e0                __init_array_end__ = .
                0x080001e0                __fini_array_base__ = .
 *(.fini_array)
 *(SORT_BY_NAME(.fini_array.*))
                0x080001e0                __fini_array_end__ = .

.text           0x080001e0     0xe11c
                0x080001e0                __text_base__ = .
 *(.text)
 .text          0x080001e0       0xd8 ./build/obj/crt0_v7m.o
                0x080001e0                _crt0_entry
 .text          0x080002b8        0x8 ./build/obj/vectors.o
                0x080002b8                Reset_Handler
                0x080002ba                VectorE8
                0x080002ba                Vector9C
                0x080002ba                VectorAC
                0x080002ba                DebugMon_Handler
                0x080002ba                Vector1A0
                0x080002ba                Vector5C
                0x080002ba                Vector11C
                0x080002ba                HardFault_Handler
                0x080002ba                Vector1B8
                0x080002ba                Vector19C
                0x080002ba                Vector8C
                0x080002ba                SysTick_Handler
                0x080002ba                VectorDC
                0x080002ba                PendSV_Handler
                0x080002ba                Vector168
                0x080002ba                NMI_Handler
                0x080002ba                Vector110
                0x080002ba                Vector120
                0x080002ba                Vector1D8
                0x080002ba                VectorC8
                0x080002ba                Vector94
                0x080002ba                VectorA8
                0x080002ba                VectorB4
                0x080002ba                Vector74
                0x080002ba                Vector160
                0x080002ba                Vector1B0
                0x080002ba                UsageFault_Handler
                0x080002ba                VectorEC
                0x080002ba                Vector40
                0x080002ba                VectorF8
                0x080002ba                Vector108
                0x080002ba                VectorBC
                0x080002ba                Vector190
                0x080002ba                Vector150
                0x080002ba                Vector124
                0x080002ba                Vector1C4
                0x080002ba                Vector1CC
                0x080002ba                Vector148
                0x080002ba                Vector188
                0x080002ba                Vector198
                0x080002ba                Vector118
                0x080002ba                Vector64
                0x080002ba                Vector58
                0x080002ba                VectorCC
                0x080002ba                Vector54
                0x080002ba                Vector98
                0x080002ba                Vector138
                0x080002ba                Vector24
                0x080002ba                Vector1AC
                0x080002ba                Vector178
                0x080002ba                Vector84
                0x080002ba                SecureFault_Handler
                0x080002ba                Vector1A4
                0x080002ba                VectorD0
                0x080002ba                Vector1B4
                0x080002ba                Vector140
                0x080002ba                VectorE4
                0x080002ba                VectorC0
                0x080002ba                Vector158
                0x080002ba                Vector130
                0x080002ba                Vector1C0
                0x080002ba                Vector134
                0x080002ba                Vector1D0
                0x080002ba                VectorF0
                0x080002ba                Vector12C
                0x080002ba                Vector13C
                0x080002ba                Vector100
                0x080002ba                VectorE0
                0x080002ba                VectorF4
                0x080002ba                MemManage_Handler
                0x080002ba                Vector6C
                0x080002ba                VectorA0
                0x080002ba                VectorC4
                0x080002ba                Vector7C
                0x080002ba                Vector180
                0x080002ba                Vector90
                0x080002ba                Vector114
                0x080002ba                Vector164
                0x080002ba                Vector60
                0x080002ba                Vector1BC
                0x080002ba                Vector1D4
                0x080002ba                Vector17C
                0x080002ba                Vector48
                0x080002ba                Vector1A8
                0x080002ba                Vector16C
                0x080002ba                Vector70
                0x080002ba                Vector4C
                0x080002ba                Vector144
                0x080002ba                Vector80
                0x080002ba                Vector15C
                0x080002ba                Vector68
                0x080002ba                Vector78
                0x080002ba                Vector18C
                0x080002ba                Vector170
                0x080002ba                Vector88
                0x080002ba                Vector104
                0x080002ba                Vector184
                0x080002ba                Vector10C
                0x080002ba                Vector14C
                0x080002ba                BusFault_Handler
                0x080002ba                Vector50
                0x080002ba                Vector1C8
                0x080002ba                Vector194
                0x080002ba                Vector1DC
                0x080002ba                Vector154
                0x080002ba                Vector44
                0x080002ba                Vector28
                0x080002ba                VectorB8
                0x080002ba                VectorFC
                0x080002ba                Vector34
                0x080002ba                Vector128
                0x080002ba                VectorA4
                0x080002ba                Vector20
                0x080002ba                Vector174
                0x080002be                _unhandled_exception
 .text          0x080002c0       0x2a ./build/obj/chcoreasm.o
                0x080002c0                __port_switch
                0x080002d0                __port_thread_start
                0x080002e2                __port_switch_from_isr
                0x080002e6                __port_exit_from_isr
 *fill*         0x080002ea        0x6 
 .text          0x080002f0       0xa0 c:/chibistudio/tools/gnu tools arm embedded/11.3 2022.08/bin/../lib/gcc/arm-none-eabi/11.3.1/thumb/v7e-m/nofp\libg_nano.a(libc_a-memchr.o)
                0x080002f0                memchr
 .text          0x08000390       0x14 c:/chibistudio/tools/gnu tools arm embedded/11.3 2022.08/bin/../lib/gcc/arm-none-eabi/11.3.1/thumb/v7e-m/nofp\libg_nano.a(libc_a-strcmp.o)
                0x08000390                strcmp
 *(.text.*)
 *fill*         0x080003a4        0xc 
 .text._ctl.lto_priv.0
                0x080003b0        0xc C:\Users\Ridwane\AppData\Local\Temp\ccG6qa3f.ltrans0.ltrans.o
                0x080003b0                _ctl.lto_priv.0
 *fill*         0x080003bc        0x4 
 .text.notify1.lto_priv.0
                0x080003c0       0x10 C:\Users\Ridwane\AppData\Local\Temp\ccG6qa3f.ltrans0.ltrans.o
                0x080003c0                notify1.lto_priv.0
 .text.notify2.lto_priv.0
                0x080003d0       0x10 C:\Users\Ridwane\AppData\Local\Temp\ccG6qa3f.ltrans0.ltrans.o
                0x080003d0                notify2.lto_priv.0
 .text.__idle_thread.lto_priv.0
                0x080003e0        0x4 C:\Users\Ridwane\AppData\Local\Temp\ccG6qa3f.ltrans0.ltrans.o
                0x080003e0                __idle_thread.lto_priv.0
 *fill*         0x080003e4        0xc 
 .text.chCoreAllocFromTop
                0x080003f0       0x3c C:\Users\Ridwane\AppData\Local\Temp\ccG6qa3f.ltrans0.ltrans.o
                0x080003f0                chCoreAllocFromTop
 *fill*         0x0800042c        0x4 
 .text.__ch_delegate_fn0
                0x08000430        0xc C:\Users\Ridwane\AppData\Local\Temp\ccG6qa3f.ltrans0.ltrans.o
 *fill*         0x0800043c        0x4 
 .text.__ch_delegate_fn1
                0x08000440       0x1c C:\Users\Ridwane\AppData\Local\Temp\ccG6qa3f.ltrans0.ltrans.o
 *fill*         0x0800045c        0x4 
 .text.__ch_delegate_fn2
                0x08000460       0x1c C:\Users\Ridwane\AppData\Local\Temp\ccG6qa3f.ltrans0.ltrans.o
 *fill*         0x0800047c        0x4 
 .text.__ch_delegate_fn3
                0x08000480       0x20 C:\Users\Ridwane\AppData\Local\Temp\ccG6qa3f.ltrans0.ltrans.o
 .text.__ch_delegate_fn4
                0x080004a0       0x24 C:\Users\Ridwane\AppData\Local\Temp\ccG6qa3f.ltrans0.ltrans.o
 *fill*         0x080004c4        0xc 
 .text.chCoreAllocAlignedI.lto_priv.0
                0x080004d0       0x20 C:\Users\Ridwane\AppData\Local\Temp\ccG6qa3f.ltrans0.ltrans.o
                0x080004d0                chCoreAllocAlignedI.lto_priv.0
 .text.test_stream_putchar.lto_priv.0
                0x080004f0       0x18 C:\Users\Ridwane\AppData\Local\Temp\ccG6qa3f.ltrans0.ltrans.o
                0x080004f0                test_stream_putchar.lto_priv.0
 *fill*         0x08000508        0x8 
 .text.__test_assert_sequence
                0x08000510       0x3c C:\Users\Ridwane\AppData\Local\Temp\ccG6qa3f.ltrans0.ltrans.o
 *fill*         0x0800054c        0x4 
 .text.rt_test_002_001_execute.lto_priv.0
                0x08000550      0x128 C:\Users\Ridwane\AppData\Local\Temp\ccG6qa3f.ltrans0.ltrans.o
                0x08000550                rt_test_002_001_execute.lto_priv.0
 *fill*         0x08000678        0x8 
 .text.rt_test_002_003_execute.lto_priv.0
                0x08000680       0x24 C:\Users\Ridwane\AppData\Local\Temp\ccG6qa3f.ltrans0.ltrans.o
                0x08000680                rt_test_002_003_execute.lto_priv.0
 *fill*         0x080006a4        0xc 
 .text.rt_test_003_001_execute.lto_priv.0
                0x080006b0       0x18 C:\Users\Ridwane\AppData\Local\Temp\ccG6qa3f.ltrans0.ltrans.o
                0x080006b0                rt_test_003_001_execute.lto_priv.0
 *fill*         0x080006c8        0x8 
 .text.rt_test_003_002_execute.lto_priv.0
                0x080006d0        0xc C:\Users\Ridwane\AppData\Local\Temp\ccG6qa3f.ltrans0.ltrans.o
                0x080006d0                rt_test_003_002_execute.lto_priv.0
 *fill*         0x080006dc        0x4 
 .text.thread   0x080006e0       0x1c C:\Users\Ridwane\AppData\Local\Temp\ccG6qa3f.ltrans0.ltrans.o
 *fill*         0x080006fc        0x4 
 .text.rt_test_006_001_setup.lto_priv.0
                0x08000700        0xc C:\Users\Ridwane\AppData\Local\Temp\ccG6qa3f.ltrans0.ltrans.o
                0x08000700                rt_test_006_001_setup.lto_priv.0
 *fill*         0x0800070c        0x4 
 .text.rt_test_007_001_setup.lto_priv.0
                0x08000710       0x10 C:\Users\Ridwane\AppData\Local\Temp\ccG6qa3f.ltrans0.ltrans.o
                0x08000710                rt_test_007_001_setup.lto_priv.0
 .text.rt_test_007_005_setup.lto_priv.0
                0x08000720       0x10 C:\Users\Ridwane\AppData\Local\Temp\ccG6qa3f.ltrans0.ltrans.o
                0x08000720                rt_test_007_005_setup.lto_priv.0
 .text.rt_test_007_002_setup
                0x08000730       0x10 C:\Users\Ridwane\AppData\Local\Temp\ccG6qa3f.ltrans0.ltrans.o
                0x08000730                rt_test_007_002_setup.lto_priv.0
 .text.rt_test_007_003_setup
                0x08000740       0x10 C:\Users\Ridwane\AppData\Local\Temp\ccG6qa3f.ltrans0.ltrans.o
                0x08000740                rt_test_007_003_setup.lto_priv.0
 .text.rt_test_007_004_setup
                0x08000750       0x10 C:\Users\Ridwane\AppData\Local\Temp\ccG6qa3f.ltrans0.ltrans.o
                0x08000750                rt_test_007_004_setup.lto_priv.0
 .text.rt_test_008_005_setup.lto_priv.0
                0x08000760       0x10 C:\Users\Ridwane\AppData\Local\Temp\ccG6qa3f.ltrans0.ltrans.o
                0x08000760                rt_test_008_005_setup.lto_priv.0
 .text.rt_test_008_001_setup
                0x08000770       0x10 C:\Users\Ridwane\AppData\Local\Temp\ccG6qa3f.ltrans0.ltrans.o
                0x08000770                rt_test_008_001_setup.lto_priv.0
 .text.rt_test_008_004_setup.lto_priv.0
                0x08000780       0x1c C:\Users\Ridwane\AppData\Local\Temp\ccG6qa3f.ltrans0.ltrans.o
                0x08000780                rt_test_008_004_setup.lto_priv.0
 *fill*         0x0800079c        0x4 
 .text.rt_test_008_008_setup.lto_priv.0
                0x080007a0       0x1c C:\Users\Ridwane\AppData\Local\Temp\ccG6qa3f.ltrans0.ltrans.o
                0x080007a0                rt_test_008_008_setup.lto_priv.0
 *fill*         0x080007bc        0x4 
 .text.rt_test_008_007_setup
                0x080007c0       0x1c C:\Users\Ridwane\AppData\Local\Temp\ccG6qa3f.ltrans0.ltrans.o
                0x080007c0                rt_test_008_007_setup.lto_priv.0
 *fill*         0x080007dc        0x4 
 .text.rt_test_008_009_setup.lto_priv.0
                0x080007e0       0x28 C:\Users\Ridwane\AppData\Local\Temp\ccG6qa3f.ltrans0.ltrans.o
                0x080007e0                rt_test_008_009_setup.lto_priv.0
 *fill*         0x08000808        0x8 
 .text.h1       0x08000810       0x1c C:\Users\Ridwane\AppData\Local\Temp\ccG6qa3f.ltrans0.ltrans.o
 *fill*         0x0800082c        0x4 
 .text.h2       0x08000830       0x1c C:\Users\Ridwane\AppData\Local\Temp\ccG6qa3f.ltrans0.ltrans.o
 *fill*         0x0800084c        0x4 
 .text.h3       0x08000850       0x1c C:\Users\Ridwane\AppData\Local\Temp\ccG6qa3f.ltrans0.ltrans.o
 *fill*         0x0800086c        0x4 
 .text.rt_test_010_001_execute.lto_priv.0
                0x08000870       0xfc C:\Users\Ridwane\AppData\Local\Temp\ccG6qa3f.ltrans0.ltrans.o
                0x08000870                rt_test_010_001_execute.lto_priv.0
 *fill*         0x0800096c        0x4 
 .text.rt_test_010_002_setup
                0x08000970       0x18 C:\Users\Ridwane\AppData\Local\Temp\ccG6qa3f.ltrans0.ltrans.o
                0x08000970                rt_test_010_002_setup.lto_priv.0
 *fill*         0x08000988        0x8 
 .text.rt_test_010_002_execute.lto_priv.0
                0x08000990       0x50 C:\Users\Ridwane\AppData\Local\Temp\ccG6qa3f.ltrans0.ltrans.o
                0x08000990                rt_test_010_002_execute.lto_priv.0
 .text.rt_test_010_003_setup
                0x080009e0       0x18 C:\Users\Ridwane\AppData\Local\Temp\ccG6qa3f.ltrans0.ltrans.o
                0x080009e0                rt_test_010_003_setup.lto_priv.0
 *fill*         0x080009f8        0x8 
 .text.rt_test_010_004_setup
                0x08000a00       0x18 C:\Users\Ridwane\AppData\Local\Temp\ccG6qa3f.ltrans0.ltrans.o
                0x08000a00                rt_test_010_004_setup.lto_priv.0
 *fill*         0x08000a18        0x8 
 .text.rt_test_010_005_setup
                0x08000a20       0x18 C:\Users\Ridwane\AppData\Local\Temp\ccG6qa3f.ltrans0.ltrans.o
                0x08000a20                rt_test_010_005_setup.lto_priv.0
 *fill*         0x08000a38        0x8 
 .text.rt_test_010_006_setup.lto_priv.0
                0x08000a40       0x18 C:\Users\Ridwane\AppData\Local\Temp\ccG6qa3f.ltrans0.ltrans.o
                0x08000a40                rt_test_010_006_setup.lto_priv.0
 *fill*         0x08000a58        0x8 
 .text.rt_test_010_007_setup.lto_priv.0
                0x08000a60       0x28 C:\Users\Ridwane\AppData\Local\Temp\ccG6qa3f.ltrans0.ltrans.o
                0x08000a60                rt_test_010_007_setup.lto_priv.0
 *fill*         0x08000a88        0x8 
 .text.dyn_thread1
                0x08000a90       0x1c C:\Users\Ridwane\AppData\Local\Temp\ccG6qa3f.ltrans0.ltrans.o
                0x08000a90                dyn_thread1.lto_priv.0
 *fill*         0x08000aac        0x4 
 .text.rt_test_011_001_setup.lto_priv.0
                0x08000ab0       0x34 C:\Users\Ridwane\AppData\Local\Temp\ccG6qa3f.ltrans0.ltrans.o
                0x08000ab0                rt_test_011_001_setup.lto_priv.0
 *fill*         0x08000ae4        0xc 
 .text.rt_test_011_002_setup.lto_priv.0
                0x08000af0       0x18 C:\Users\Ridwane\AppData\Local\Temp\ccG6qa3f.ltrans0.ltrans.o
                0x08000af0                rt_test_011_002_setup.lto_priv.0
 *fill*         0x08000b08        0x8 
 .text.tmo      0x08000b10        0x4 C:\Users\Ridwane\AppData\Local\Temp\ccG6qa3f.ltrans0.ltrans.o
 *fill*         0x08000b14        0xc 
 .text.rt_test_012_007_setup.lto_priv.0
                0x08000b20       0x10 C:\Users\Ridwane\AppData\Local\Temp\ccG6qa3f.ltrans0.ltrans.o
                0x08000b20                rt_test_012_007_setup.lto_priv.0
 .text.rt_test_012_010_setup.lto_priv.0
                0x08000b30       0x10 C:\Users\Ridwane\AppData\Local\Temp\ccG6qa3f.ltrans0.ltrans.o
                0x08000b30                rt_test_012_010_setup.lto_priv.0
 .text.rt_test_012_011_setup.lto_priv.0
                0x08000b40       0x10 C:\Users\Ridwane\AppData\Local\Temp\ccG6qa3f.ltrans0.ltrans.o
                0x08000b40                rt_test_012_011_setup.lto_priv.0
 .text.oslib_test_002_003_setup.lto_priv.0
                0x08000b50       0x34 C:\Users\Ridwane\AppData\Local\Temp\ccG6qa3f.ltrans0.ltrans.o
                0x08000b50                oslib_test_002_003_setup.lto_priv.0
 *fill*         0x08000b84        0xc 
 .text.oslib_test_002_001_setup
                0x08000b90       0x34 C:\Users\Ridwane\AppData\Local\Temp\ccG6qa3f.ltrans0.ltrans.o
                0x08000b90                oslib_test_002_001_setup.lto_priv.0
 *fill*         0x08000bc4        0xc 
 .text.oslib_test_002_002_setup
                0x08000bd0       0x34 C:\Users\Ridwane\AppData\Local\Temp\ccG6qa3f.ltrans0.ltrans.o
                0x08000bd0                oslib_test_002_002_setup.lto_priv.0
 *fill*         0x08000c04        0xc 
 .text.oslib_test_003_001_setup.lto_priv.0
                0x08000c10       0x48 C:\Users\Ridwane\AppData\Local\Temp\ccG6qa3f.ltrans0.ltrans.o
                0x08000c10                oslib_test_003_001_setup.lto_priv.0
 *fill*         0x08000c58        0x8 
 .text.oslib_test_003_002_setup.lto_priv.0
                0x08000c60       0x48 C:\Users\Ridwane\AppData\Local\Temp\ccG6qa3f.ltrans0.ltrans.o
                0x08000c60                oslib_test_003_002_setup.lto_priv.0
 *fill*         0x08000ca8        0x8 
 .text.dis_func0
                0x08000cb0       0x20 C:\Users\Ridwane\AppData\Local\Temp\ccG6qa3f.ltrans0.ltrans.o
 .text.dis_func1
                0x08000cd0       0x18 C:\Users\Ridwane\AppData\Local\Temp\ccG6qa3f.ltrans0.ltrans.o
 *fill*         0x08000ce8        0x8 
 .text.dis_func2
                0x08000cf0       0x2c C:\Users\Ridwane\AppData\Local\Temp\ccG6qa3f.ltrans0.ltrans.o
 *fill*         0x08000d1c        0x4 
 .text.dis_func3
                0x08000d20       0x38 C:\Users\Ridwane\AppData\Local\Temp\ccG6qa3f.ltrans0.ltrans.o
 *fill*         0x08000d58        0x8 
 .text.dis_func4
                0x08000d60       0x48 C:\Users\Ridwane\AppData\Local\Temp\ccG6qa3f.ltrans0.ltrans.o
 *fill*         0x08000da8        0x8 
 .text.dis_func_end
                0x08000db0       0x28 C:\Users\Ridwane\AppData\Local\Temp\ccG6qa3f.ltrans0.ltrans.o
 *fill*         0x08000dd8        0x8 
 .text.obj_write
                0x08000de0       0x20 C:\Users\Ridwane\AppData\Local\Temp\ccG6qa3f.ltrans0.ltrans.o
 .text.null_provider
                0x08000e00        0x4 C:\Users\Ridwane\AppData\Local\Temp\ccG6qa3f.ltrans0.ltrans.o
 *fill*         0x08000e04        0xc 
 .text.oslib_test_007_001_setup.lto_priv.0
                0x08000e10       0x14 C:\Users\Ridwane\AppData\Local\Temp\ccG6qa3f.ltrans0.ltrans.o
                0x08000e10                oslib_test_007_001_setup.lto_priv.0
 *fill*         0x08000e24        0xc 
 .text.oslib_test_007_001_execute.lto_priv.0
                0x08000e30      0x198 C:\Users\Ridwane\AppData\Local\Temp\ccG6qa3f.ltrans0.ltrans.o
                0x08000e30                oslib_test_007_001_execute.lto_priv.0
 *fill*         0x08000fc8        0x8 
 .text.oslib_test_007_003_setup.lto_priv.0
                0x08000fd0       0x1c C:\Users\Ridwane\AppData\Local\Temp\ccG6qa3f.ltrans0.ltrans.o
                0x08000fd0                oslib_test_007_003_setup.lto_priv.0
 *fill*         0x08000fec        0x4 
 .text.oslib_test_007_002_setup
                0x08000ff0       0x1c C:\Users\Ridwane\AppData\Local\Temp\ccG6qa3f.ltrans0.ltrans.o
                0x08000ff0                oslib_test_007_002_setup.lto_priv.0
 *fill*         0x0800100c        0x4 
 .text.oslib_test_008_001_setup.lto_priv.0
                0x08001010       0x34 C:\Users\Ridwane\AppData\Local\Temp\ccG6qa3f.ltrans0.ltrans.o
                0x08001010                oslib_test_008_001_setup.lto_priv.0
 *fill*         0x08001044        0xc 
 .text.__sch_wakeup.lto_priv.0
                0x08001050       0x70 C:\Users\Ridwane\AppData\Local\Temp\ccG6qa3f.ltrans0.ltrans.o
                0x08001050                __sch_wakeup.lto_priv.0
 .text.chSemSignalI
                0x080010c0       0x38 C:\Users\Ridwane\AppData\Local\Temp\ccG6qa3f.ltrans0.ltrans.o
                0x080010c0                chSemSignalI
 *fill*         0x080010f8        0x8 
 .text.chMtxUnlockS
                0x08001100       0x68 C:\Users\Ridwane\AppData\Local\Temp\ccG6qa3f.ltrans0.ltrans.o
 *fill*         0x08001168        0x8 
 .text.chEvtBroadcastFlagsI
                0x08001170       0x74 C:\Users\Ridwane\AppData\Local\Temp\ccG6qa3f.ltrans0.ltrans.o
 *fill*         0x080011e4        0xc 
 .text.sd_lld_serve_interrupt
                0x080011f0      0x1d4 C:\Users\Ridwane\AppData\Local\Temp\ccG6qa3f.ltrans0.ltrans.o
 *fill*         0x080013c4        0xc 
 .text.chThdYield
                0x080013d0       0x50 C:\Users\Ridwane\AppData\Local\Temp\ccG6qa3f.ltrans0.ltrans.o
 .text.chMsgSend
                0x08001420       0x6c C:\Users\Ridwane\AppData\Local\Temp\ccG6qa3f.ltrans0.ltrans.o
 *fill*         0x0800148c        0x4 
 .text.msg_thread1
                0x08001490       0x28 C:\Users\Ridwane\AppData\Local\Temp\ccG6qa3f.ltrans0.ltrans.o
 *fill*         0x080014b8        0x8 
 .text.thread1.lto_priv.1
                0x080014c0       0x6c C:\Users\Ridwane\AppData\Local\Temp\ccG6qa3f.ltrans0.ltrans.o
 *fill*         0x0800152c        0x4 
 .text.bmk_thread3
                0x08001530       0x88 C:\Users\Ridwane\AppData\Local\Temp\ccG6qa3f.ltrans0.ltrans.o
 *fill*         0x080015b8        0x8 
 .text.bmk_thread4
                0x080015c0       0x3c C:\Users\Ridwane\AppData\Local\Temp\ccG6qa3f.ltrans0.ltrans.o
 *fill*         0x080015fc        0x4 
 .text.bmk_thread7
                0x08001600       0x6c C:\Users\Ridwane\AppData\Local\Temp\ccG6qa3f.ltrans0.ltrans.o
 *fill*         0x0800166c        0x4 
 .text.bmk_thread8
                0x08001670       0x74 C:\Users\Ridwane\AppData\Local\Temp\ccG6qa3f.ltrans0.ltrans.o
 *fill*         0x080016e4        0xc 
 .text.chDelegateCallVeneer
                0x080016f0       0x24 C:\Users\Ridwane\AppData\Local\Temp\ccG6qa3f.ltrans0.ltrans.o
 *fill*         0x08001714        0xc 
 .text.rt_test_007_001_teardown.lto_priv.0
                0x08001720        0xc C:\Users\Ridwane\AppData\Local\Temp\ccG6qa3f.ltrans0.ltrans.o
                0x08001720                rt_test_007_001_teardown.lto_priv.0
 *fill*         0x0800172c        0x4 
 .text.oslib_test_002_003_teardown.lto_priv.0
                0x08001730        0x4 C:\Users\Ridwane\AppData\Local\Temp\ccG6qa3f.ltrans0.ltrans.o
                0x08001730                oslib_test_002_003_teardown.lto_priv.0
 *fill*         0x08001734        0xc 
 .text.oslib_test_002_001_teardown
                0x08001740        0x4 C:\Users\Ridwane\AppData\Local\Temp\ccG6qa3f.ltrans0.ltrans.o
                0x08001740                oslib_test_002_001_teardown.lto_priv.0
 *fill*         0x08001744        0xc 
 .text.oslib_test_002_002_teardown
                0x08001750        0x4 C:\Users\Ridwane\AppData\Local\Temp\ccG6qa3f.ltrans0.ltrans.o
                0x08001750                oslib_test_002_002_teardown.lto_priv.0
 *fill*         0x08001754        0xc 
 .text.oslib_test_003_002_execute.lto_priv.0
                0x08001760       0x88 C:\Users\Ridwane\AppData\Local\Temp\ccG6qa3f.ltrans0.ltrans.o
                0x08001760                oslib_test_003_002_execute.lto_priv.0
 *fill*         0x080017e8        0x8 
 .text.__cpu_init
                0x080017f0        0x4 C:\Users\Ridwane\AppData\Local\Temp\ccG6qa3f.ltrans0.ltrans.o
                0x080017f0                __cpu_init
 *fill*         0x080017f4        0xc 
 .text.__late_init
                0x08001800        0x4 C:\Users\Ridwane\AppData\Local\Temp\ccG6qa3f.ltrans0.ltrans.o
                0x08001800                __late_init
 *fill*         0x08001804        0xc 
 .text.__default_exit
                0x08001810        0x4 C:\Users\Ridwane\AppData\Local\Temp\ccG6qa3f.ltrans0.ltrans.o
                0x08001810                __default_exit
 *fill*         0x08001814        0xc 
 .text.__init_ram_areas
                0x08001820       0x6c C:\Users\Ridwane\AppData\Local\Temp\ccG6qa3f.ltrans0.ltrans.o
                0x08001820                __init_ram_areas
 *fill*         0x0800188c        0x4 
 .text.VectorD4
                0x08001890       0x58 C:\Users\Ridwane\AppData\Local\Temp\ccG6qa3f.ltrans0.ltrans.o
                0x08001890                VectorD4
 *fill*         0x080018e8        0x8 
 .text.VectorD8
                0x080018f0       0x58 C:\Users\Ridwane\AppData\Local\Temp\ccG6qa3f.ltrans0.ltrans.o
                0x080018f0                VectorD8
 *fill*         0x08001948        0x8 
 .text.VectorB0
                0x08001950      0x168 C:\Users\Ridwane\AppData\Local\Temp\ccG6qa3f.ltrans0.ltrans.o
                0x08001950                VectorB0
 *fill*         0x08001ab8        0x8 
 .text.usart_init.lto_priv.0
                0x08001ac0       0x64 C:\Users\Ridwane\AppData\Local\Temp\ccG6qa3f.ltrans0.ltrans.o
                0x08001ac0                usart_init.lto_priv.0
 *fill*         0x08001b24        0xc 
 .text.__early_init
                0x08001b30      0x290 C:\Users\Ridwane\AppData\Local\Temp\ccG6qa3f.ltrans0.ltrans.o
                0x08001b30                __early_init
 .text.chVTDoResetI
                0x08001dc0       0xa4 C:\Users\Ridwane\AppData\Local\Temp\ccG6qa3f.ltrans0.ltrans.o
                0x08001dc0                chVTDoResetI
 *fill*         0x08001e64        0xc 
 .text.test_wait_tick
                0x08001e70       0x68 C:\Users\Ridwane\AppData\Local\Temp\ccG6qa3f.ltrans0.ltrans.o
 *fill*         0x08001ed8        0x8 
 .text.job_slow
                0x08001ee0       0x70 C:\Users\Ridwane\AppData\Local\Temp\ccG6qa3f.ltrans0.ltrans.o
 .text.__sch_reschedule_ahead.lto_priv.0
                0x08001f50       0x3c C:\Users\Ridwane\AppData\Local\Temp\ccG6qa3f.ltrans0.ltrans.o
                0x08001f50                __sch_reschedule_ahead.lto_priv.0
                0x08001f50                chSchDoPreemption
 *fill*         0x08001f8c        0x4 
 .text.vtcb     0x08001f90       0x50 C:\Users\Ridwane\AppData\Local\Temp\ccG6qa3f.ltrans0.ltrans.o
 .text.rt_test_005_003_execute.lto_priv.0
                0x08001fe0       0xbc C:\Users\Ridwane\AppData\Local\Temp\ccG6qa3f.ltrans0.ltrans.o
                0x08001fe0                rt_test_005_003_execute.lto_priv.0
 *fill*         0x0800209c        0x4 
 .text.rt_test_005_004_execute.lto_priv.0
                0x080020a0      0x108 C:\Users\Ridwane\AppData\Local\Temp\ccG6qa3f.ltrans0.ltrans.o
                0x080020a0                rt_test_005_004_execute.lto_priv.0
 *fill*         0x080021a8        0x8 
 .text.thread1.lto_priv.0
                0x080021b0       0x6c C:\Users\Ridwane\AppData\Local\Temp\ccG6qa3f.ltrans0.ltrans.o
 *fill*         0x0800221c        0x4 
 .text.thread4  0x08002220       0x34 C:\Users\Ridwane\AppData\Local\Temp\ccG6qa3f.ltrans0.ltrans.o
 *fill*         0x08002254        0xc 
 .text.obj_read
                0x08002260       0xc8 C:\Users\Ridwane\AppData\Local\Temp\ccG6qa3f.ltrans0.ltrans.o
 *fill*         0x08002328        0x8 
 .text.oslib_test_006_001_execute.lto_priv.0
                0x08002330      0x5e8 C:\Users\Ridwane\AppData\Local\Temp\ccG6qa3f.ltrans0.ltrans.o
                0x08002330                oslib_test_006_001_execute.lto_priv.0
 *fill*         0x08002918        0x8 
 .text.chSchGoSleepTimeoutS
                0x08002920       0x70 C:\Users\Ridwane\AppData\Local\Temp\ccG6qa3f.ltrans0.ltrans.o
                0x08002920                chSchGoSleepTimeoutS
 .text.oqWriteTimeout
                0x08002990       0xd8 C:\Users\Ridwane\AppData\Local\Temp\ccG6qa3f.ltrans0.ltrans.o
 *fill*         0x08002a68        0x8 
 .text._write.lto_priv.0
                0x08002a70        0xc C:\Users\Ridwane\AppData\Local\Temp\ccG6qa3f.ltrans0.ltrans.o
                0x08002a70                _write.lto_priv.0
 *fill*         0x08002a7c        0x4 
 .text._writet.lto_priv.0
                0x08002a80        0x8 C:\Users\Ridwane\AppData\Local\Temp\ccG6qa3f.ltrans0.ltrans.o
                0x08002a80                _writet.lto_priv.0
 *fill*         0x08002a88        0x8 
 .text.iqGetTimeout
                0x08002a90       0x6c C:\Users\Ridwane\AppData\Local\Temp\ccG6qa3f.ltrans0.ltrans.o
 *fill*         0x08002afc        0x4 
 .text._get.lto_priv.0
                0x08002b00        0xc C:\Users\Ridwane\AppData\Local\Temp\ccG6qa3f.ltrans0.ltrans.o
                0x08002b00                _get.lto_priv.0
 *fill*         0x08002b0c        0x4 
 .text._gett.lto_priv.0
                0x08002b10        0x8 C:\Users\Ridwane\AppData\Local\Temp\ccG6qa3f.ltrans0.ltrans.o
                0x08002b10                _gett.lto_priv.0
 *fill*         0x08002b18        0x8 
 .text.iqReadTimeout
                0x08002b20       0xe0 C:\Users\Ridwane\AppData\Local\Temp\ccG6qa3f.ltrans0.ltrans.o
 .text._read.lto_priv.0
                0x08002c00        0xc C:\Users\Ridwane\AppData\Local\Temp\ccG6qa3f.ltrans0.ltrans.o
                0x08002c00                _read.lto_priv.0
 *fill*         0x08002c0c        0x4 
 .text._readt.lto_priv.0
                0x08002c10        0x8 C:\Users\Ridwane\AppData\Local\Temp\ccG6qa3f.ltrans0.ltrans.o
                0x08002c10                _readt.lto_priv.0
 *fill*         0x08002c18        0x8 
 .text.oqPutTimeout
                0x08002c20       0x78 C:\Users\Ridwane\AppData\Local\Temp\ccG6qa3f.ltrans0.ltrans.o
 *fill*         0x08002c98        0x8 
 .text._put.lto_priv.0
                0x08002ca0        0xc C:\Users\Ridwane\AppData\Local\Temp\ccG6qa3f.ltrans0.ltrans.o
                0x08002ca0                _put.lto_priv.0
 *fill*         0x08002cac        0x4 
 .text._putt.lto_priv.0
                0x08002cb0        0x8 C:\Users\Ridwane\AppData\Local\Temp\ccG6qa3f.ltrans0.ltrans.o
                0x08002cb0                _putt.lto_priv.0
 *fill*         0x08002cb8        0x8 
 .text.chMBPostTimeout
                0x08002cc0       0xd0 C:\Users\Ridwane\AppData\Local\Temp\ccG6qa3f.ltrans0.ltrans.o
 .text.chMBFetchTimeoutS
                0x08002d90       0xa4 C:\Users\Ridwane\AppData\Local\Temp\ccG6qa3f.ltrans0.ltrans.o
 *fill*         0x08002e34        0xc 
 .text.oslib_test_002_003_execute.lto_priv.0
                0x08002e40      0x170 C:\Users\Ridwane\AppData\Local\Temp\ccG6qa3f.ltrans0.ltrans.o
                0x08002e40                oslib_test_002_003_execute.lto_priv.0
 .text.Thread1.lto_priv.0
                0x08002fb0       0x9c C:\Users\Ridwane\AppData\Local\Temp\ccG6qa3f.ltrans0.ltrans.o
 *fill*         0x0800304c        0x4 
 .text.chGuardedPoolAllocTimeout
                0x08003050       0x68 C:\Users\Ridwane\AppData\Local\Temp\ccG6qa3f.ltrans0.ltrans.o
 *fill*         0x080030b8        0x8 
 .text.oslib_test_007_002_execute.lto_priv.0
                0x080030c0      0x160 C:\Users\Ridwane\AppData\Local\Temp\ccG6qa3f.ltrans0.ltrans.o
                0x080030c0                oslib_test_007_002_execute.lto_priv.0
 .text.oslib_test_007_003_execute.lto_priv.0
                0x08003220       0x30 C:\Users\Ridwane\AppData\Local\Temp\ccG6qa3f.ltrans0.ltrans.o
                0x08003220                oslib_test_007_003_execute.lto_priv.0
 .text.rt_test_002_002_execute.lto_priv.0
                0x08003250      0x134 C:\Users\Ridwane\AppData\Local\Temp\ccG6qa3f.ltrans0.ltrans.o
                0x08003250                rt_test_002_002_execute.lto_priv.0
 *fill*         0x08003384        0xc 
 .text.rt_test_004_001_execute.lto_priv.0
                0x08003390       0xa8 C:\Users\Ridwane\AppData\Local\Temp\ccG6qa3f.ltrans0.ltrans.o
                0x08003390                rt_test_004_001_execute.lto_priv.0
 *fill*         0x08003438        0x8 
 .text.rt_test_005_001_execute.lto_priv.0
                0x08003440       0xec C:\Users\Ridwane\AppData\Local\Temp\ccG6qa3f.ltrans0.ltrans.o
                0x08003440                rt_test_005_001_execute.lto_priv.0
 *fill*         0x0800352c        0x4 
 .text.thread2  0x08003530       0x70 C:\Users\Ridwane\AppData\Local\Temp\ccG6qa3f.ltrans0.ltrans.o
 .text.evt_thread3
                0x080035a0       0x80 C:\Users\Ridwane\AppData\Local\Temp\ccG6qa3f.ltrans0.ltrans.o
 .text.evt_thread7
                0x08003620       0x6c C:\Users\Ridwane\AppData\Local\Temp\ccG6qa3f.ltrans0.ltrans.o
 *fill*         0x0800368c        0x4 
 .text.rt_test_010_006_execute.lto_priv.0
                0x08003690      0x128 C:\Users\Ridwane\AppData\Local\Temp\ccG6qa3f.ltrans0.ltrans.o
                0x08003690                rt_test_010_006_execute.lto_priv.0
 *fill*         0x080037b8        0x8 
 .text.msg_loop_test
                0x080037c0       0xb8 C:\Users\Ridwane\AppData\Local\Temp\ccG6qa3f.ltrans0.ltrans.o
 *fill*         0x08003878        0x8 
 .text.chSchWakeupS
                0x08003880       0x60 C:\Users\Ridwane\AppData\Local\Temp\ccG6qa3f.ltrans0.ltrans.o
                0x08003880                chSchWakeupS
 .text.rt_test_007_001_execute.lto_priv.0
                0x080038e0      0x108 C:\Users\Ridwane\AppData\Local\Temp\ccG6qa3f.ltrans0.ltrans.o
                0x080038e0                rt_test_007_001_execute.lto_priv.0
 *fill*         0x080039e8        0x8 
 .text.thread3  0x080039f0       0x7c C:\Users\Ridwane\AppData\Local\Temp\ccG6qa3f.ltrans0.ltrans.o
 *fill*         0x08003a6c        0x4 
 .text.bmk_thread1
                0x08003a70       0x6c C:\Users\Ridwane\AppData\Local\Temp\ccG6qa3f.ltrans0.ltrans.o
 *fill*         0x08003adc        0x4 
 .text.chThdCreateSuspendedI
                0x08003ae0       0x88 C:\Users\Ridwane\AppData\Local\Temp\ccG6qa3f.ltrans0.ltrans.o
                0x08003ae0                chThdCreateSuspendedI
 *fill*         0x08003b68        0x8 
 .text.chThdCreateStatic
                0x08003b70       0x7c C:\Users\Ridwane\AppData\Local\Temp\ccG6qa3f.ltrans0.ltrans.o
                0x08003b70                chThdCreateStatic
 *fill*         0x08003bec        0x4 
 .text.rt_test_007_005_execute.lto_priv.0
                0x08003bf0       0x88 C:\Users\Ridwane\AppData\Local\Temp\ccG6qa3f.ltrans0.ltrans.o
                0x08003bf0                rt_test_007_005_execute.lto_priv.0
 *fill*         0x08003c78        0x8 
 .text.rt_test_007_006_execute.lto_priv.0
                0x08003c80      0x214 C:\Users\Ridwane\AppData\Local\Temp\ccG6qa3f.ltrans0.ltrans.o
                0x08003c80                rt_test_007_006_execute.lto_priv.0
 *fill*         0x08003e94        0xc 
 .text.chThdExit
                0x08003ea0       0x88 C:\Users\Ridwane\AppData\Local\Temp\ccG6qa3f.ltrans0.ltrans.o
                0x08003ea0                chThdExit
 *fill*         0x08003f28        0x8 
 .text.Thread1.lto_priv.1
                0x08003f30       0x94 C:\Users\Ridwane\AppData\Local\Temp\ccG6qa3f.ltrans0.ltrans.o
 *fill*         0x08003fc4        0xc 
 .text.chTMStartMeasurementX
                0x08003fd0        0xc C:\Users\Ridwane\AppData\Local\Temp\ccG6qa3f.ltrans0.ltrans.o
                0x08003fd0                chTMStartMeasurementX
 *fill*         0x08003fdc        0x4 
 .text.chTMStopMeasurementX
                0x08003fe0       0x44 C:\Users\Ridwane\AppData\Local\Temp\ccG6qa3f.ltrans0.ltrans.o
                0x08003fe0                chTMStopMeasurementX
 *fill*         0x08004024        0xc 
 .text.chMtxLockS
                0x08004030       0xe4 C:\Users\Ridwane\AppData\Local\Temp\ccG6qa3f.ltrans0.ltrans.o
                0x08004030                chMtxLockS
 *fill*         0x08004114        0xc 
 .text.thread4B
                0x08004120       0x4c C:\Users\Ridwane\AppData\Local\Temp\ccG6qa3f.ltrans0.ltrans.o
 *fill*         0x0800416c        0x4 
 .text.chMtxUnlock
                0x08004170       0x84 C:\Users\Ridwane\AppData\Local\Temp\ccG6qa3f.ltrans0.ltrans.o
                0x08004170                chMtxUnlock
 *fill*         0x080041f4        0xc 
 .text.chHeapStatus
                0x08004200       0x6c C:\Users\Ridwane\AppData\Local\Temp\ccG6qa3f.ltrans0.ltrans.o
                0x08004200                chHeapStatus
 *fill*         0x0800426c        0x4 
 .text.thread1.lto_priv.2
                0x08004270       0x3c C:\Users\Ridwane\AppData\Local\Temp\ccG6qa3f.ltrans0.ltrans.o
 *fill*         0x080042ac        0x4 
 .text.thread4A
                0x080042b0       0x78 C:\Users\Ridwane\AppData\Local\Temp\ccG6qa3f.ltrans0.ltrans.o
 *fill*         0x08004328        0x8 
 .text.thread6  0x08004330       0xa0 C:\Users\Ridwane\AppData\Local\Temp\ccG6qa3f.ltrans0.ltrans.o
 .text.thread8  0x080043d0       0xc0 C:\Users\Ridwane\AppData\Local\Temp\ccG6qa3f.ltrans0.ltrans.o
 .text.thread9  0x08004490       0x3c C:\Users\Ridwane\AppData\Local\Temp\ccG6qa3f.ltrans0.ltrans.o
 *fill*         0x080044cc        0x4 
 .text.rt_test_008_004_execute.lto_priv.0
                0x080044d0      0x120 C:\Users\Ridwane\AppData\Local\Temp\ccG6qa3f.ltrans0.ltrans.o
                0x080044d0                rt_test_008_004_execute.lto_priv.0
 .text.rt_test_008_005_execute.lto_priv.0
                0x080045f0      0x190 C:\Users\Ridwane\AppData\Local\Temp\ccG6qa3f.ltrans0.ltrans.o
                0x080045f0                rt_test_008_005_execute.lto_priv.0
 .text.chHeapAllocAligned
                0x08004780       0xfc C:\Users\Ridwane\AppData\Local\Temp\ccG6qa3f.ltrans0.ltrans.o
                0x08004780                chHeapAllocAligned
 *fill*         0x0800487c        0x4 
 .text.chHeapFree
                0x08004880       0xa0 C:\Users\Ridwane\AppData\Local\Temp\ccG6qa3f.ltrans0.ltrans.o
                0x08004880                chHeapFree
 .text.chThdRelease.part.0
                0x08004920       0x3c C:\Users\Ridwane\AppData\Local\Temp\ccG6qa3f.ltrans0.ltrans.o
 *fill*         0x0800495c        0x4 
 .text.chThdWait
                0x08004960       0x70 C:\Users\Ridwane\AppData\Local\Temp\ccG6qa3f.ltrans0.ltrans.o
 .text.rt_test_010_003_execute.lto_priv.0
                0x080049d0      0x11c C:\Users\Ridwane\AppData\Local\Temp\ccG6qa3f.ltrans0.ltrans.o
                0x080049d0                rt_test_010_003_execute.lto_priv.0
 *fill*         0x08004aec        0x4 
 .text.rt_test_005_002_execute.lto_priv.0
                0x08004af0      0x250 C:\Users\Ridwane\AppData\Local\Temp\ccG6qa3f.ltrans0.ltrans.o
                0x08004af0                rt_test_005_002_execute.lto_priv.0
 .text.rt_test_006_001_execute.lto_priv.0
                0x08004d40      0x114 C:\Users\Ridwane\AppData\Local\Temp\ccG6qa3f.ltrans0.ltrans.o
                0x08004d40                rt_test_006_001_execute.lto_priv.0
 *fill*         0x08004e54        0xc 
 .text.rt_test_007_002_execute.lto_priv.0
                0x08004e60      0x1ac C:\Users\Ridwane\AppData\Local\Temp\ccG6qa3f.ltrans0.ltrans.o
                0x08004e60                rt_test_007_002_execute.lto_priv.0
 *fill*         0x0800500c        0x4 
 .text.rt_test_007_003_execute.lto_priv.0
                0x08005010      0x1bc C:\Users\Ridwane\AppData\Local\Temp\ccG6qa3f.ltrans0.ltrans.o
                0x08005010                rt_test_007_003_execute.lto_priv.0
 *fill*         0x080051cc        0x4 
 .text.rt_test_007_004_execute.lto_priv.0
                0x080051d0      0x100 C:\Users\Ridwane\AppData\Local\Temp\ccG6qa3f.ltrans0.ltrans.o
                0x080051d0                rt_test_007_004_execute.lto_priv.0
 .text.rt_test_007_005_teardown
                0x080052d0       0x24 C:\Users\Ridwane\AppData\Local\Temp\ccG6qa3f.ltrans0.ltrans.o
                0x080052d0                rt_test_007_005_teardown.lto_priv.0
 *fill*         0x080052f4        0xc 
 .text.rt_test_007_006_teardown.lto_priv.0
                0x08005300       0x24 C:\Users\Ridwane\AppData\Local\Temp\ccG6qa3f.ltrans0.ltrans.o
                0x08005300                rt_test_007_006_teardown.lto_priv.0
 *fill*         0x08005324        0xc 
 .text.rt_test_008_001_execute.lto_priv.0
                0x08005330      0x130 C:\Users\Ridwane\AppData\Local\Temp\ccG6qa3f.ltrans0.ltrans.o
                0x08005330                rt_test_008_001_execute.lto_priv.0
 .text.rt_test_008_004_teardown
                0x08005460       0x24 C:\Users\Ridwane\AppData\Local\Temp\ccG6qa3f.ltrans0.ltrans.o
                0x08005460                rt_test_008_004_teardown.lto_priv.0
 *fill*         0x08005484        0xc 
 .text.rt_test_008_007_execute.lto_priv.0
                0x08005490      0x1cc C:\Users\Ridwane\AppData\Local\Temp\ccG6qa3f.ltrans0.ltrans.o
                0x08005490                rt_test_008_007_execute.lto_priv.0
 *fill*         0x0800565c        0x4 
 .text.rt_test_008_008_execute.lto_priv.0
                0x08005660      0x138 C:\Users\Ridwane\AppData\Local\Temp\ccG6qa3f.ltrans0.ltrans.o
                0x08005660                rt_test_008_008_execute.lto_priv.0
 *fill*         0x08005798        0x8 
 .text.rt_test_008_009_execute.lto_priv.0
                0x080057a0      0x100 C:\Users\Ridwane\AppData\Local\Temp\ccG6qa3f.ltrans0.ltrans.o
                0x080057a0                rt_test_008_009_execute.lto_priv.0
 .text.rt_test_009_001_execute.lto_priv.0
                0x080058a0       0xe8 C:\Users\Ridwane\AppData\Local\Temp\ccG6qa3f.ltrans0.ltrans.o
                0x080058a0                rt_test_009_001_execute.lto_priv.0
 *fill*         0x08005988        0x8 
 .text.rt_test_010_004_execute.lto_priv.0
                0x08005990      0x180 C:\Users\Ridwane\AppData\Local\Temp\ccG6qa3f.ltrans0.ltrans.o
                0x08005990                rt_test_010_004_execute.lto_priv.0
 .text.rt_test_010_005_execute.lto_priv.0
                0x08005b10      0x174 C:\Users\Ridwane\AppData\Local\Temp\ccG6qa3f.ltrans0.ltrans.o
                0x08005b10                rt_test_010_005_execute.lto_priv.0
 *fill*         0x08005c84        0xc 
 .text.rt_test_010_007_execute.lto_priv.0
                0x08005c90      0x1f0 C:\Users\Ridwane\AppData\Local\Temp\ccG6qa3f.ltrans0.ltrans.o
                0x08005c90                rt_test_010_007_execute.lto_priv.0
 .text.rt_test_011_001_execute.lto_priv.0
                0x08005e80      0x1e8 C:\Users\Ridwane\AppData\Local\Temp\ccG6qa3f.ltrans0.ltrans.o
                0x08005e80                rt_test_011_001_execute.lto_priv.0
 *fill*         0x08006068        0x8 
 .text.rt_test_011_002_execute.lto_priv.0
                0x08006070      0x1a4 C:\Users\Ridwane\AppData\Local\Temp\ccG6qa3f.ltrans0.ltrans.o
                0x08006070                rt_test_011_002_execute.lto_priv.0
 *fill*         0x08006214        0xc 
 .text.oslib_test_004_001_execute.lto_priv.0
                0x08006220      0x1e4 C:\Users\Ridwane\AppData\Local\Temp\ccG6qa3f.ltrans0.ltrans.o
                0x08006220                oslib_test_004_001_execute.lto_priv.0
 *fill*         0x08006404        0xc 
 .text.oslib_test_005_001_execute.lto_priv.0
                0x08006410      0x148 C:\Users\Ridwane\AppData\Local\Temp\ccG6qa3f.ltrans0.ltrans.o
                0x08006410                oslib_test_005_001_execute.lto_priv.0
 *fill*         0x08006558        0x8 
 .text.dyn_create_object_heap.lto_priv.0
                0x08006560       0x64 C:\Users\Ridwane\AppData\Local\Temp\ccG6qa3f.ltrans0.ltrans.o
                0x08006560                dyn_create_object_heap.lto_priv.0
 *fill*         0x080065c4        0xc 
 .text.chFactoryReleaseObject
                0x080065d0       0x64 C:\Users\Ridwane\AppData\Local\Temp\ccG6qa3f.ltrans0.ltrans.o
                0x080065d0                chFactoryReleaseObject
 *fill*         0x08006634        0xc 
 .text.chFactoryReleaseBuffer
                0x08006640       0x50 C:\Users\Ridwane\AppData\Local\Temp\ccG6qa3f.ltrans0.ltrans.o
                0x08006640                chFactoryReleaseBuffer
 .text.chFactoryReleaseSemaphore
                0x08006690       0x64 C:\Users\Ridwane\AppData\Local\Temp\ccG6qa3f.ltrans0.ltrans.o
                0x08006690                chFactoryReleaseSemaphore
 *fill*         0x080066f4        0xc 
 .text.chFactoryReleaseMailbox
                0x08006700       0x50 C:\Users\Ridwane\AppData\Local\Temp\ccG6qa3f.ltrans0.ltrans.o
                0x08006700                chFactoryReleaseMailbox
 .text.chFactoryReleaseObjectsFIFO
                0x08006750       0x50 C:\Users\Ridwane\AppData\Local\Temp\ccG6qa3f.ltrans0.ltrans.o
                0x08006750                chFactoryReleaseObjectsFIFO
 .text.chFactoryReleasePipe
                0x080067a0       0x50 C:\Users\Ridwane\AppData\Local\Temp\ccG6qa3f.ltrans0.ltrans.o
                0x080067a0                chFactoryReleasePipe
 .text.SVC_Handler
                0x080067f0       0x14 C:\Users\Ridwane\AppData\Local\Temp\ccG6qa3f.ltrans0.ltrans.o
                0x080067f0                SVC_Handler
 *fill*         0x08006804        0xc 
 .text.__test_assert
                0x08006810       0x18 C:\Users\Ridwane\AppData\Local\Temp\ccG6qa3f.ltrans0.ltrans.o
                0x08006810                __test_assert
 *fill*         0x08006828        0x8 
 .text.oslib_test_002_001_execute.lto_priv.0
                0x08006830      0x320 C:\Users\Ridwane\AppData\Local\Temp\ccG6qa3f.ltrans0.ltrans.o
                0x08006830                oslib_test_002_001_execute.lto_priv.0
 .text.oslib_test_002_002_execute.lto_priv.0
                0x08006b50      0x424 C:\Users\Ridwane\AppData\Local\Temp\ccG6qa3f.ltrans0.ltrans.o
                0x08006b50                oslib_test_002_002_execute.lto_priv.0
 *fill*         0x08006f74        0xc 
 .text.oslib_test_003_001_execute.lto_priv.0
                0x08006f80      0x48c C:\Users\Ridwane\AppData\Local\Temp\ccG6qa3f.ltrans0.ltrans.o
                0x08006f80                oslib_test_003_001_execute.lto_priv.0
 *fill*         0x0800740c        0x4 
 .text.oslib_test_008_001_execute.lto_priv.0
                0x08007410      0x43c C:\Users\Ridwane\AppData\Local\Temp\ccG6qa3f.ltrans0.ltrans.o
                0x08007410                oslib_test_008_001_execute.lto_priv.0
 *fill*         0x0800784c        0x4 
 .text.test_printf
                0x08007850      0x430 C:\Users\Ridwane\AppData\Local\Temp\ccG6qa3f.ltrans0.ltrans.o
                0x08007850                test_printf
 .text.rt_test_001_001_execute.lto_priv.0
                0x08007c80       0xdc C:\Users\Ridwane\AppData\Local\Temp\ccG6qa3f.ltrans0.ltrans.o
                0x08007c80                rt_test_001_001_execute.lto_priv.0
 *fill*         0x08007d5c        0x4 
 .text.oslib_test_001_001_execute
                0x08007d60        0x4 C:\Users\Ridwane\AppData\Local\Temp\ccG6qa3f.ltrans0.ltrans.o
                0x08007d60                oslib_test_001_001_execute.lto_priv.0
 *fill*         0x08007d64        0xc 
 .text.rt_test_001_002_execute.lto_priv.0
                0x08007d70       0xbc C:\Users\Ridwane\AppData\Local\Temp\ccG6qa3f.ltrans0.ltrans.o
                0x08007d70                rt_test_001_002_execute.lto_priv.0
 *fill*         0x08007e2c        0x4 
 .text.rt_test_001_003_execute.lto_priv.0
                0x08007e30      0x3b0 C:\Users\Ridwane\AppData\Local\Temp\ccG6qa3f.ltrans0.ltrans.o
                0x08007e30                rt_test_001_003_execute.lto_priv.0
 .text.rt_test_012_001_execute.lto_priv.0
                0x080081e0       0xb0 C:\Users\Ridwane\AppData\Local\Temp\ccG6qa3f.ltrans0.ltrans.o
                0x080081e0                rt_test_012_001_execute.lto_priv.0
 .text.rt_test_012_002_execute.lto_priv.0
                0x08008290       0xb0 C:\Users\Ridwane\AppData\Local\Temp\ccG6qa3f.ltrans0.ltrans.o
                0x08008290                rt_test_012_002_execute.lto_priv.0
 .text.rt_test_012_003_execute.lto_priv.0
                0x08008340      0x124 C:\Users\Ridwane\AppData\Local\Temp\ccG6qa3f.ltrans0.ltrans.o
                0x08008340                rt_test_012_003_execute.lto_priv.0
 *fill*         0x08008464        0xc 
 .text.rt_test_012_004_execute.lto_priv.0
                0x08008470      0x114 C:\Users\Ridwane\AppData\Local\Temp\ccG6qa3f.ltrans0.ltrans.o
                0x08008470                rt_test_012_004_execute.lto_priv.0
 *fill*         0x08008584        0xc 
 .text.rt_test_012_005_execute.lto_priv.0
                0x08008590       0xb4 C:\Users\Ridwane\AppData\Local\Temp\ccG6qa3f.ltrans0.ltrans.o
                0x08008590                rt_test_012_005_execute.lto_priv.0
 *fill*         0x08008644        0xc 
 .text.rt_test_012_006_execute.lto_priv.0
                0x08008650       0xd8 C:\Users\Ridwane\AppData\Local\Temp\ccG6qa3f.ltrans0.ltrans.o
                0x08008650                rt_test_012_006_execute.lto_priv.0
 *fill*         0x08008728        0x8 
 .text.rt_test_012_007_execute.lto_priv.0
                0x08008730      0x18c C:\Users\Ridwane\AppData\Local\Temp\ccG6qa3f.ltrans0.ltrans.o
                0x08008730                rt_test_012_007_execute.lto_priv.0
 *fill*         0x080088bc        0x4 
 .text.rt_test_012_008_execute.lto_priv.0
                0x080088c0      0x144 C:\Users\Ridwane\AppData\Local\Temp\ccG6qa3f.ltrans0.ltrans.o
                0x080088c0                rt_test_012_008_execute.lto_priv.0
 *fill*         0x08008a04        0xc 
 .text.rt_test_012_009_execute.lto_priv.0
                0x08008a10       0xcc C:\Users\Ridwane\AppData\Local\Temp\ccG6qa3f.ltrans0.ltrans.o
                0x08008a10                rt_test_012_009_execute.lto_priv.0
 *fill*         0x08008adc        0x4 
 .text.rt_test_012_010_execute.lto_priv.0
                0x08008ae0      0x1f8 C:\Users\Ridwane\AppData\Local\Temp\ccG6qa3f.ltrans0.ltrans.o
                0x08008ae0                rt_test_012_010_execute.lto_priv.0
 *fill*         0x08008cd8        0x8 
 .text.rt_test_012_011_execute.lto_priv.0
                0x08008ce0       0xd8 C:\Users\Ridwane\AppData\Local\Temp\ccG6qa3f.ltrans0.ltrans.o
                0x08008ce0                rt_test_012_011_execute.lto_priv.0
 *fill*         0x08008db8        0x8 
 .text.rt_test_012_012_execute.lto_priv.0
                0x08008dc0      0x14c C:\Users\Ridwane\AppData\Local\Temp\ccG6qa3f.ltrans0.ltrans.o
                0x08008dc0                rt_test_012_012_execute.lto_priv.0
 *fill*         0x08008f0c        0x4 
 .text.oslib_test_001_002_execute.lto_priv.0
                0x08008f10       0xc4 C:\Users\Ridwane\AppData\Local\Temp\ccG6qa3f.ltrans0.ltrans.o
                0x08008f10                oslib_test_001_002_execute.lto_priv.0
 *fill*         0x08008fd4        0xc 
 .text.oslib_test_001_003_execute.lto_priv.0
                0x08008fe0      0x1ec C:\Users\Ridwane\AppData\Local\Temp\ccG6qa3f.ltrans0.ltrans.o
                0x08008fe0                oslib_test_001_003_execute.lto_priv.0
 *fill*         0x080091cc        0x4 
 .text.KeccakF1600_StatePermute
                0x080091d0     0x1154 C:\Users\Ridwane\AppData\Local\Temp\ccG6qa3f.ltrans1.ltrans.o
 *fill*         0x0800a324        0xc 
 .text.pqcrystals_fips202_ref_shake256_finalize
                0x0800a330       0x54 C:\Users\Ridwane\AppData\Local\Temp\ccG6qa3f.ltrans1.ltrans.o
 *fill*         0x0800a384        0xc 
 .text.keccak_absorb.constprop.0
                0x0800a390      0x24c C:\Users\Ridwane\AppData\Local\Temp\ccG6qa3f.ltrans1.ltrans.o
 *fill*         0x0800a5dc        0x4 
 .text.keccak_squeeze.constprop.0
                0x0800a5e0      0x258 C:\Users\Ridwane\AppData\Local\Temp\ccG6qa3f.ltrans1.ltrans.o
 *fill*         0x0800a838        0x8 
 .text.pqcrystals_fips202_ref_shake256
                0x0800a840       0x44 C:\Users\Ridwane\AppData\Local\Temp\ccG6qa3f.ltrans1.ltrans.o
 *fill*         0x0800a884        0xc 
 .text._pal_lld_setgroupmode.constprop.0
                0x0800a890       0x90 C:\Users\Ridwane\AppData\Local\Temp\ccG6qa3f.ltrans1.ltrans.o
 .text.sdObjectInit.constprop.0
                0x0800a920       0x58 C:\Users\Ridwane\AppData\Local\Temp\ccG6qa3f.ltrans1.ltrans.o
 *fill*         0x0800a978        0x8 
 .text.oslib_test_008_002_execute
                0x0800a980       0x7c C:\Users\Ridwane\AppData\Local\Temp\ccG6qa3f.ltrans1.ltrans.o
 *fill*         0x0800a9fc        0x4 
 .text.chFactoryCreateSemaphore.constprop.0
                0x0800aa00       0xc0 C:\Users\Ridwane\AppData\Local\Temp\ccG6qa3f.ltrans1.ltrans.o
 .text.oslib_test_009_005_teardown
                0x0800aac0       0xac C:\Users\Ridwane\AppData\Local\Temp\ccG6qa3f.ltrans1.ltrans.o
 *fill*         0x0800ab6c        0x4 
 .text.oslib_test_009_001_teardown
                0x0800ab70       0x68 C:\Users\Ridwane\AppData\Local\Temp\ccG6qa3f.ltrans1.ltrans.o
 *fill*         0x0800abd8        0x8 
 .text.oslib_test_009_002_teardown
                0x0800abe0       0xac C:\Users\Ridwane\AppData\Local\Temp\ccG6qa3f.ltrans1.ltrans.o
 *fill*         0x0800ac8c        0x4 
 .text.oslib_test_009_004_teardown
                0x0800ac90       0xac C:\Users\Ridwane\AppData\Local\Temp\ccG6qa3f.ltrans1.ltrans.o
 *fill*         0x0800ad3c        0x4 
 .text.oslib_test_009_006_teardown
                0x0800ad40       0xac C:\Users\Ridwane\AppData\Local\Temp\ccG6qa3f.ltrans1.ltrans.o
 *fill*         0x0800adec        0x4 
 .text.chFactoryFindPipe.constprop.0
                0x0800adf0       0x60 C:\Users\Ridwane\AppData\Local\Temp\ccG6qa3f.ltrans1.ltrans.o
 .text.chFactoryFindObjectsFIFO.constprop.0
                0x0800ae50       0x60 C:\Users\Ridwane\AppData\Local\Temp\ccG6qa3f.ltrans1.ltrans.o
 .text.chFactoryFindMailbox.constprop.0
                0x0800aeb0       0x60 C:\Users\Ridwane\AppData\Local\Temp\ccG6qa3f.ltrans1.ltrans.o
 .text.chFactoryFindSemaphore.constprop.0
                0x0800af10       0x60 C:\Users\Ridwane\AppData\Local\Temp\ccG6qa3f.ltrans1.ltrans.o
 .text.chFactoryFindBuffer.constprop.0
                0x0800af70       0x60 C:\Users\Ridwane\AppData\Local\Temp\ccG6qa3f.ltrans1.ltrans.o
 .text.chFactoryFindObject.constprop.0
                0x0800afd0       0x60 C:\Users\Ridwane\AppData\Local\Temp\ccG6qa3f.ltrans1.ltrans.o
 .text.chFactoryRegisterObject.constprop.0
                0x0800b030       0xc4 C:\Users\Ridwane\AppData\Local\Temp\ccG6qa3f.ltrans1.ltrans.o
 *fill*         0x0800b0f4        0xc 
 .text.oslib_test_009_001_execute
                0x0800b100      0x160 C:\Users\Ridwane\AppData\Local\Temp\ccG6qa3f.ltrans1.ltrans.o
 .text.chFactoryCreatePipe.constprop.0
                0x0800b260       0x70 C:\Users\Ridwane\AppData\Local\Temp\ccG6qa3f.ltrans1.ltrans.o
 .text.oslib_test_009_006_execute
                0x0800b2d0      0x120 C:\Users\Ridwane\AppData\Local\Temp\ccG6qa3f.ltrans1.ltrans.o
 .text.chFactoryCreateMailbox.constprop.0
                0x0800b3f0       0x60 C:\Users\Ridwane\AppData\Local\Temp\ccG6qa3f.ltrans1.ltrans.o
 .text.oslib_test_009_004_execute
                0x0800b450      0x120 C:\Users\Ridwane\AppData\Local\Temp\ccG6qa3f.ltrans1.ltrans.o
 .text.oslib_test_009_002_execute
                0x0800b570      0x194 C:\Users\Ridwane\AppData\Local\Temp\ccG6qa3f.ltrans1.ltrans.o
 *fill*         0x0800b704        0xc 
 .text.oslib_test_009_003_teardown
                0x0800b710       0x68 C:\Users\Ridwane\AppData\Local\Temp\ccG6qa3f.ltrans1.ltrans.o
 *fill*         0x0800b778        0x8 
 .text.oslib_test_009_003_execute
                0x0800b780      0x120 C:\Users\Ridwane\AppData\Local\Temp\ccG6qa3f.ltrans1.ltrans.o
 .text.chFactoryCreateObjectsFIFO.constprop.0
                0x0800b8a0       0xfc C:\Users\Ridwane\AppData\Local\Temp\ccG6qa3f.ltrans1.ltrans.o
 *fill*         0x0800b99c        0x4 
 .text.oslib_test_009_005_execute
                0x0800b9a0      0x120 C:\Users\Ridwane\AppData\Local\Temp\ccG6qa3f.ltrans1.ltrans.o
 .text._read_r  0x0800bac0        0xc C:\Users\Ridwane\AppData\Local\Temp\ccG6qa3f.ltrans1.ltrans.o
                0x0800bac0                _read_r
 *fill*         0x0800bacc        0x4 
 .text._lseek_r
                0x0800bad0        0x4 C:\Users\Ridwane\AppData\Local\Temp\ccG6qa3f.ltrans1.ltrans.o
                0x0800bad0                _lseek_r
 *fill*         0x0800bad4        0xc 
 .text._write_r
                0x0800bae0        0x4 C:\Users\Ridwane\AppData\Local\Temp\ccG6qa3f.ltrans1.ltrans.o
                0x0800bae0                _write_r
 *fill*         0x0800bae4        0xc 
 .text._open_r  0x0800baf0        0xc C:\Users\Ridwane\AppData\Local\Temp\ccG6qa3f.ltrans1.ltrans.o
                0x0800baf0                _open_r
 *fill*         0x0800bafc        0x4 
 .text._close_r
                0x0800bb00        0x4 C:\Users\Ridwane\AppData\Local\Temp\ccG6qa3f.ltrans1.ltrans.o
                0x0800bb00                _close_r
 *fill*         0x0800bb04        0xc 
 .text._sbrk_r  0x0800bb10       0x3c C:\Users\Ridwane\AppData\Local\Temp\ccG6qa3f.ltrans1.ltrans.o
                0x0800bb10                _sbrk_r
 *fill*         0x0800bb4c        0x4 
 .text._fstat_r
                0x0800bb50       0x18 C:\Users\Ridwane\AppData\Local\Temp\ccG6qa3f.ltrans1.ltrans.o
                0x0800bb50                _fstat_r
 *fill*         0x0800bb68        0x8 
 .text._isatty_r
                0x0800bb70        0x4 C:\Users\Ridwane\AppData\Local\Temp\ccG6qa3f.ltrans1.ltrans.o
                0x0800bb70                _isatty_r
 *fill*         0x0800bb74        0xc 
 .text._exit    0x0800bb80       0x20 C:\Users\Ridwane\AppData\Local\Temp\ccG6qa3f.ltrans1.ltrans.o
                0x0800bb80                _exit
 .text._kill    0x0800bba0       0x20 C:\Users\Ridwane\AppData\Local\Temp\ccG6qa3f.ltrans1.ltrans.o
                0x0800bba0                _kill
 .text._getpid  0x0800bbc0        0x4 C:\Users\Ridwane\AppData\Local\Temp\ccG6qa3f.ltrans1.ltrans.o
                0x0800bbc0                _getpid
 *fill*         0x0800bbc4        0xc 
 .text.chCacheGetObject.constprop.0
                0x0800bbd0      0x168 C:\Users\Ridwane\AppData\Local\Temp\ccG6qa3f.ltrans1.ltrans.o
                0x0800bbd0                chCacheGetObject.constprop.0
 *fill*         0x0800bd38        0x8 
 .text.chMBPostAheadI.constprop.0
                0x0800bd40       0x78 C:\Users\Ridwane\AppData\Local\Temp\ccG6qa3f.ltrans1.ltrans.o
                0x0800bd40                chMBPostAheadI.constprop.0
 *fill*         0x0800bdb8        0x8 
 .text.chMBPostAheadTimeout.constprop.0
                0x0800bdc0       0xc0 C:\Users\Ridwane\AppData\Local\Temp\ccG6qa3f.ltrans1.ltrans.o
                0x0800bdc0                chMBPostAheadTimeout.constprop.0
 .text.chMBReset.constprop.0
                0x0800be80       0xb0 C:\Users\Ridwane\AppData\Local\Temp\ccG6qa3f.ltrans1.ltrans.o
                0x0800be80                chMBReset.constprop.0
 .text.chThdCreateFromMemoryPool.constprop.0
                0x0800bf30       0x88 C:\Users\Ridwane\AppData\Local\Temp\ccG6qa3f.ltrans1.ltrans.o
                0x0800bf30                chThdCreateFromMemoryPool.constprop.0
 *fill*         0x0800bfb8        0x8 
 .text.chThdCreateFromHeap.constprop.0
                0x0800bfc0       0x60 C:\Users\Ridwane\AppData\Local\Temp\ccG6qa3f.ltrans1.ltrans.o
                0x0800bfc0                chThdCreateFromHeap.constprop.0
 .text.chEvtWaitOne.constprop.0
                0x0800c020       0x4c C:\Users\Ridwane\AppData\Local\Temp\ccG6qa3f.ltrans1.ltrans.o
                0x0800c020                chEvtWaitOne.constprop.0
 *fill*         0x0800c06c        0x4 
 .text.chSemResetWithMessage.constprop.0
                0x0800c070       0x60 C:\Users\Ridwane\AppData\Local\Temp\ccG6qa3f.ltrans1.ltrans.o
                0x0800c070                chSemResetWithMessage.constprop.0
 .text.vt_insert_first.constprop.0
                0x0800c0d0       0x60 C:\Users\Ridwane\AppData\Local\Temp\ccG6qa3f.ltrans1.ltrans.o
                0x0800c0d0                vt_insert_first.constprop.0
 .text.vt_enqueue.constprop.0
                0x0800c130       0x9c C:\Users\Ridwane\AppData\Local\Temp\ccG6qa3f.ltrans1.ltrans.o
                0x0800c130                vt_enqueue.constprop.0
 *fill*         0x0800c1cc        0x4 
 .text.Thread1  0x0800c1d0      0x86c C:\Users\Ridwane\AppData\Local\Temp\ccG6qa3f.ltrans1.ltrans.o
 *fill*         0x0800ca3c        0x4 
 .text.chPipeReadTimeout.part.0.constprop.0
                0x0800ca40       0xe0 C:\Users\Ridwane\AppData\Local\Temp\ccG6qa3f.ltrans1.ltrans.o
                0x0800ca40                chPipeReadTimeout.part.0.constprop.0
 .text.chPipeWriteTimeout.part.0.constprop.0
                0x0800cb20       0xe4 C:\Users\Ridwane\AppData\Local\Temp\ccG6qa3f.ltrans1.ltrans.o
                0x0800cb20                chPipeWriteTimeout.part.0.constprop.0
 *fill*         0x0800cc04        0xc 
 .text.test_execute_inner.isra.0
                0x0800cc10      0x2f0 C:\Users\Ridwane\AppData\Local\Temp\ccG6qa3f.ltrans1.ltrans.o
 .text.startup.main
                0x0800cf00      0x478 C:\Users\Ridwane\AppData\Local\Temp\ccG6qa3f.ltrans1.ltrans.o
                0x0800cf00                main
 *fill*         0x0800d378        0x8 
 .text.chSemSignalWait.constprop.0.isra.0
                0x0800d380       0x98 C:\Users\Ridwane\AppData\Local\Temp\ccG6qa3f.ltrans1.ltrans.o
                0x0800d380                chSemSignalWait.constprop.0.isra.0
 .text.rand     0x0800d418       0x7c c:/chibistudio/tools/gnu tools arm embedded/11.3 2022.08/bin/../lib/gcc/arm-none-eabi/11.3.1/thumb/v7e-m/nofp\libg_nano.a(libc_a-rand.o)
                0x0800d418                rand
 .text.__errno  0x0800d494        0xc c:/chibistudio/tools/gnu tools arm embedded/11.3 2022.08/bin/../lib/gcc/arm-none-eabi/11.3.1/thumb/v7e-m/nofp\libg_nano.a(libc_a-errno.o)
                0x0800d494                __errno
 .text.open     0x0800d4a0       0x28 c:/chibistudio/tools/gnu tools arm embedded/11.3 2022.08/bin/../lib/gcc/arm-none-eabi/11.3.1/thumb/v7e-m/nofp\libg_nano.a(libc_a-sysopen.o)
                0x0800d4a0                open
 .text.read     0x0800d4c8       0x14 c:/chibistudio/tools/gnu tools arm embedded/11.3 2022.08/bin/../lib/gcc/arm-none-eabi/11.3.1/thumb/v7e-m/nofp\libg_nano.a(libc_a-sysread.o)
                0x0800d4c8                read
 .text.__assert_func
                0x0800d4dc       0x3c c:/chibistudio/tools/gnu tools arm embedded/11.3 2022.08/bin/../lib/gcc/arm-none-eabi/11.3.1/thumb/v7e-m/nofp\libg_nano.a(libc_a-assert.o)
                0x0800d4dc                __assert_func
 .text.malloc   0x0800d518       0x10 c:/chibistudio/tools/gnu tools arm embedded/11.3 2022.08/bin/../lib/gcc/arm-none-eabi/11.3.1/thumb/v7e-m/nofp\libg_nano.a(libc_a-malloc.o)
                0x0800d518                malloc
 .text.sbrk_aligned
                0x0800d528       0x40 c:/chibistudio/tools/gnu tools arm embedded/11.3 2022.08/bin/../lib/gcc/arm-none-eabi/11.3.1/thumb/v7e-m/nofp\libg_nano.a(libc_a-mallocr.o)
 .text._malloc_r
                0x0800d568       0xec c:/chibistudio/tools/gnu tools arm embedded/11.3 2022.08/bin/../lib/gcc/arm-none-eabi/11.3.1/thumb/v7e-m/nofp\libg_nano.a(libc_a-mallocr.o)
                0x0800d568                _malloc_r
 .text.__malloc_lock
                0x0800d654        0xc c:/chibistudio/tools/gnu tools arm embedded/11.3 2022.08/bin/../lib/gcc/arm-none-eabi/11.3.1/thumb/v7e-m/nofp\libg_nano.a(libc_a-mlock.o)
                0x0800d654                __malloc_lock
 .text.__malloc_unlock
                0x0800d660        0xc c:/chibistudio/tools/gnu tools arm embedded/11.3 2022.08/bin/../lib/gcc/arm-none-eabi/11.3.1/thumb/v7e-m/nofp\libg_nano.a(libc_a-mlock.o)
                0x0800d660                __malloc_unlock
 .text.fprintf  0x0800d66c       0x24 c:/chibistudio/tools/gnu tools arm embedded/11.3 2022.08/bin/../lib/gcc/arm-none-eabi/11.3.1/thumb/v7e-m/nofp\libg_nano.a(libc_a-fprintf.o)
                0x0800d66c                fiprintf
                0x0800d66c                fprintf
 .text.__retarget_lock_acquire_recursive
                0x0800d690        0x2 c:/chibistudio/tools/gnu tools arm embedded/11.3 2022.08/bin/../lib/gcc/arm-none-eabi/11.3.1/thumb/v7e-m/nofp\libg_nano.a(libc_a-lock.o)
                0x0800d690                __retarget_lock_acquire_recursive
 .text.__retarget_lock_release_recursive
                0x0800d692        0x2 c:/chibistudio/tools/gnu tools arm embedded/11.3 2022.08/bin/../lib/gcc/arm-none-eabi/11.3.1/thumb/v7e-m/nofp\libg_nano.a(libc_a-lock.o)
                0x0800d692                __retarget_lock_release_recursive
 .text.abort    0x0800d694        0xe c:/chibistudio/tools/gnu tools arm embedded/11.3 2022.08/bin/../lib/gcc/arm-none-eabi/11.3.1/thumb/v7e-m/nofp\libg_nano.a(libc_a-abort.o)
                0x0800d694                abort
 *fill*         0x0800d6a2        0x2 
 .text._free_r  0x0800d6a4       0x94 c:/chibistudio/tools/gnu tools arm embedded/11.3 2022.08/bin/../lib/gcc/arm-none-eabi/11.3.1/thumb/v7e-m/nofp\libg_nano.a(libc_a-freer.o)
                0x0800d6a4                _free_r
 .text.__sfputc_r
                0x0800d738       0x2a c:/chibistudio/tools/gnu tools arm embedded/11.3 2022.08/bin/../lib/gcc/arm-none-eabi/11.3.1/thumb/v7e-m/nofp\libg_nano.a(libc_a-nano-vfprintf.o)
 .text.__sfputs_r
                0x0800d762       0x24 c:/chibistudio/tools/gnu tools arm embedded/11.3 2022.08/bin/../lib/gcc/arm-none-eabi/11.3.1/thumb/v7e-m/nofp\libg_nano.a(libc_a-nano-vfprintf.o)
                0x0800d762                __sfputs_r
 *fill*         0x0800d786        0x2 
 .text._vfprintf_r
                0x0800d788      0x234 c:/chibistudio/tools/gnu tools arm embedded/11.3 2022.08/bin/../lib/gcc/arm-none-eabi/11.3.1/thumb/v7e-m/nofp\libg_nano.a(libc_a-nano-vfprintf.o)
                0x0800d788                _vfprintf_r
                0x0800d788                _vfiprintf_r
 .text._printf_common
                0x0800d9bc       0xda c:/chibistudio/tools/gnu tools arm embedded/11.3 2022.08/bin/../lib/gcc/arm-none-eabi/11.3.1/thumb/v7e-m/nofp\libg_nano.a(libc_a-nano-vfprintf_i.o)
                0x0800d9bc                _printf_common
 *fill*         0x0800da96        0x2 
 .text._printf_i
                0x0800da98      0x244 c:/chibistudio/tools/gnu tools arm embedded/11.3 2022.08/bin/../lib/gcc/arm-none-eabi/11.3.1/thumb/v7e-m/nofp\libg_nano.a(libc_a-nano-vfprintf_i.o)
                0x0800da98                _printf_i
 .text.std      0x0800dcdc       0x48 c:/chibistudio/tools/gnu tools arm embedded/11.3 2022.08/bin/../lib/gcc/arm-none-eabi/11.3.1/thumb/v7e-m/nofp\libg_nano.a(libc_a-findfp.o)
 .text.stdio_exit_handler
                0x0800dd24       0x18 c:/chibistudio/tools/gnu tools arm embedded/11.3 2022.08/bin/../lib/gcc/arm-none-eabi/11.3.1/thumb/v7e-m/nofp\libg_nano.a(libc_a-findfp.o)
 .text.cleanup_stdio
                0x0800dd3c       0x40 c:/chibistudio/tools/gnu tools arm embedded/11.3 2022.08/bin/../lib/gcc/arm-none-eabi/11.3.1/thumb/v7e-m/nofp\libg_nano.a(libc_a-findfp.o)
 .text.global_stdio_init.part.0
                0x0800dd7c       0x3c c:/chibistudio/tools/gnu tools arm embedded/11.3 2022.08/bin/../lib/gcc/arm-none-eabi/11.3.1/thumb/v7e-m/nofp\libg_nano.a(libc_a-findfp.o)
 .text.__sfp_lock_acquire
                0x0800ddb8        0xc c:/chibistudio/tools/gnu tools arm embedded/11.3 2022.08/bin/../lib/gcc/arm-none-eabi/11.3.1/thumb/v7e-m/nofp\libg_nano.a(libc_a-findfp.o)
                0x0800ddb8                __sfp_lock_acquire
 .text.__sfp_lock_release
                0x0800ddc4        0xc c:/chibistudio/tools/gnu tools arm embedded/11.3 2022.08/bin/../lib/gcc/arm-none-eabi/11.3.1/thumb/v7e-m/nofp\libg_nano.a(libc_a-findfp.o)
                0x0800ddc4                __sfp_lock_release
 .text.__sinit  0x0800ddd0       0x30 c:/chibistudio/tools/gnu tools arm embedded/11.3 2022.08/bin/../lib/gcc/arm-none-eabi/11.3.1/thumb/v7e-m/nofp\libg_nano.a(libc_a-findfp.o)
                0x0800ddd0                __sinit
 .text._fwalk_sglue
                0x0800de00       0x3c c:/chibistudio/tools/gnu tools arm embedded/11.3 2022.08/bin/../lib/gcc/arm-none-eabi/11.3.1/thumb/v7e-m/nofp\libg_nano.a(libc_a-fwalk.o)
                0x0800de00                _fwalk_sglue
 .text.__sread  0x0800de3c       0x22 c:/chibistudio/tools/gnu tools arm embedded/11.3 2022.08/bin/../lib/gcc/arm-none-eabi/11.3.1/thumb/v7e-m/nofp\libg_nano.a(libc_a-stdio.o)
                0x0800de3c                __sread
 .text.__swrite
                0x0800de5e       0x38 c:/chibistudio/tools/gnu tools arm embedded/11.3 2022.08/bin/../lib/gcc/arm-none-eabi/11.3.1/thumb/v7e-m/nofp\libg_nano.a(libc_a-stdio.o)
                0x0800de5e                __swrite
 .text.__sseek  0x0800de96       0x24 c:/chibistudio/tools/gnu tools arm embedded/11.3 2022.08/bin/../lib/gcc/arm-none-eabi/11.3.1/thumb/v7e-m/nofp\libg_nano.a(libc_a-stdio.o)
                0x0800de96                __sseek
 .text.__sclose
                0x0800deba        0x8 c:/chibistudio/tools/gnu tools arm embedded/11.3 2022.08/bin/../lib/gcc/arm-none-eabi/11.3.1/thumb/v7e-m/nofp\libg_nano.a(libc_a-stdio.o)
                0x0800deba                __sclose
 .text.__swbuf_r
                0x0800dec2       0x7a c:/chibistudio/tools/gnu tools arm embedded/11.3 2022.08/bin/../lib/gcc/arm-none-eabi/11.3.1/thumb/v7e-m/nofp\libg_nano.a(libc_a-wbuf.o)
                0x0800dec2                __swbuf_r
 .text.__swsetup_r
                0x0800df3c       0xb0 c:/chibistudio/tools/gnu tools arm embedded/11.3 2022.08/bin/../lib/gcc/arm-none-eabi/11.3.1/thumb/v7e-m/nofp\libg_nano.a(libc_a-wsetup.o)
                0x0800df3c                __swsetup_r
 .text.memset   0x0800dfec       0x10 c:/chibistudio/tools/gnu tools arm embedded/11.3 2022.08/bin/../lib/gcc/arm-none-eabi/11.3.1/thumb/v7e-m/nofp\libg_nano.a(libc_a-memset.o)
                0x0800dfec                memset
 .text._raise_r
                0x0800dffc       0x50 c:/chibistudio/tools/gnu tools arm embedded/11.3 2022.08/bin/../lib/gcc/arm-none-eabi/11.3.1/thumb/v7e-m/nofp\libg_nano.a(libc_a-signal.o)
                0x0800dffc                _raise_r
 .text.raise    0x0800e04c       0x10 c:/chibistudio/tools/gnu tools arm embedded/11.3 2022.08/bin/../lib/gcc/arm-none-eabi/11.3.1/thumb/v7e-m/nofp\libg_nano.a(libc_a-signal.o)
                0x0800e04c                raise
 .text._kill_r  0x0800e05c       0x24 c:/chibistudio/tools/gnu tools arm embedded/11.3 2022.08/bin/../lib/gcc/arm-none-eabi/11.3.1/thumb/v7e-m/nofp\libg_nano.a(libc_a-signalr.o)
                0x0800e05c                _kill_r
 .text._getpid_r
                0x0800e080        0x4 c:/chibistudio/tools/gnu tools arm embedded/11.3 2022.08/bin/../lib/gcc/arm-none-eabi/11.3.1/thumb/v7e-m/nofp\libg_nano.a(libc_a-signalr.o)
                0x0800e080                _getpid_r
 .text.memcpy   0x0800e084       0x1c c:/chibistudio/tools/gnu tools arm embedded/11.3 2022.08/bin/../lib/gcc/arm-none-eabi/11.3.1/thumb/v7e-m/nofp\libg_nano.a(libc_a-memcpy-stub.o)
                0x0800e084                memcpy
 .text.__sflush_r
                0x0800e0a0      0x104 c:/chibistudio/tools/gnu tools arm embedded/11.3 2022.08/bin/../lib/gcc/arm-none-eabi/11.3.1/thumb/v7e-m/nofp\libg_nano.a(libc_a-fflush.o)
                0x0800e0a0                __sflush_r
 .text._fflush_r
                0x0800e1a4       0x50 c:/chibistudio/tools/gnu tools arm embedded/11.3 2022.08/bin/../lib/gcc/arm-none-eabi/11.3.1/thumb/v7e-m/nofp\libg_nano.a(libc_a-fflush.o)
                0x0800e1a4                _fflush_r
 .text.__swhatbuf_r
                0x0800e1f4       0x4c c:/chibistudio/tools/gnu tools arm embedded/11.3 2022.08/bin/../lib/gcc/arm-none-eabi/11.3.1/thumb/v7e-m/nofp\libg_nano.a(libc_a-makebuf.o)
                0x0800e1f4                __swhatbuf_r
 .text.__smakebuf_r
                0x0800e240       0x78 c:/chibistudio/tools/gnu tools arm embedded/11.3 2022.08/bin/../lib/gcc/arm-none-eabi/11.3.1/thumb/v7e-m/nofp\libg_nano.a(libc_a-makebuf.o)
                0x0800e240                __smakebuf_r
 .text.memcmp   0x0800e2b8       0x20 c:/chibistudio/tools/gnu tools arm embedded/11.3 2022.08/bin/../lib/gcc/arm-none-eabi/11.3.1/thumb/v7e-m/nofp\libg_nano.a(libc_a-memcmp.o)
                0x0800e2b8                memcmp
 .text.strncmp  0x0800e2d8       0x24 c:/chibistudio/tools/gnu tools arm embedded/11.3 2022.08/bin/../lib/gcc/arm-none-eabi/11.3.1/thumb/v7e-m/nofp\libg_nano.a(libc_a-strncmp.o)
                0x0800e2d8                strncmp
 *(.glue_7t)
 .glue_7t       0x0800e2fc        0x0 linker stubs
 *(.glue_7)
 .glue_7        0x0800e2fc        0x0 linker stubs
 *(.gcc*)
                0x0800e2fc                __text_end__ = .

.vfp11_veneer   0x0800e2fc        0x0
 .vfp11_veneer  0x0800e2fc        0x0 linker stubs

.v4_bx          0x0800e2fc        0x0
 .v4_bx         0x0800e2fc        0x0 linker stubs

.iplt           0x0800e2fc        0x0
 .iplt          0x0800e2fc        0x0 ./build/obj/crt0_v7m.o

.rodata         0x0800e300     0x31d4
                0x0800e300                __rodata_base__ = .
 *(.rodata)
 *(.rodata.*)
 .rodata.rt_test_002_001_execute.lto_priv.0.str1.4
                0x0800e300       0x57 C:\Users\Ridwane\AppData\Local\Temp\ccG6qa3f.ltrans0.ltrans.o
 *fill*         0x0800e357        0x1 
 .rodata.rt_test_010_001_execute.lto_priv.0.str1.4
                0x0800e358       0x1b C:\Users\Ridwane\AppData\Local\Temp\ccG6qa3f.ltrans0.ltrans.o
 *fill*         0x0800e373        0x1 
 .rodata.rt_test_010_002_execute.lto_priv.0.str1.4
                0x0800e374       0x18 C:\Users\Ridwane\AppData\Local\Temp\ccG6qa3f.ltrans0.ltrans.o
 .rodata.oslib_test_007_001_execute.lto_priv.0.str1.4
                0x0800e38c       0x35 C:\Users\Ridwane\AppData\Local\Temp\ccG6qa3f.ltrans0.ltrans.o
 *fill*         0x0800e3c1        0x3 
 .rodata.oslib_test_003_002_execute.lto_priv.0.str1.4
                0x0800e3c4       0x1f C:\Users\Ridwane\AppData\Local\Temp\ccG6qa3f.ltrans0.ltrans.o
 *fill*         0x0800e3e3        0x1 
 .rodata.rt_test_005_003_execute.lto_priv.0.str1.4
                0x0800e3e4       0x3e C:\Users\Ridwane\AppData\Local\Temp\ccG6qa3f.ltrans0.ltrans.o
 *fill*         0x0800e422        0x2 
 .rodata.rt_test_005_004_execute.lto_priv.0.str1.4
                0x0800e424       0x47 C:\Users\Ridwane\AppData\Local\Temp\ccG6qa3f.ltrans0.ltrans.o
 *fill*         0x0800e46b        0x1 
 .rodata.oslib_test_006_001_execute.lto_priv.0.str1.4
                0x0800e46c       0x5d C:\Users\Ridwane\AppData\Local\Temp\ccG6qa3f.ltrans0.ltrans.o
                                 0x69 (size before relaxing)
 *fill*         0x0800e4c9        0x3 
 .rodata.oslib_test_002_003_execute.lto_priv.0.str1.4
                0x0800e4cc       0x16 C:\Users\Ridwane\AppData\Local\Temp\ccG6qa3f.ltrans0.ltrans.o
 *fill*         0x0800e4e2        0x2 
 .rodata.rt_test_002_002_execute.lto_priv.0.str1.4
                0x0800e4e4       0x12 C:\Users\Ridwane\AppData\Local\Temp\ccG6qa3f.ltrans0.ltrans.o
 *fill*         0x0800e4f6        0x2 
 .rodata.rt_test_004_001_execute.lto_priv.0.str1.4
                0x0800e4f8        0xe C:\Users\Ridwane\AppData\Local\Temp\ccG6qa3f.ltrans0.ltrans.o
 *fill*         0x0800e506        0x2 
 .rodata.rt_test_005_001_execute.lto_priv.0.str1.4
                0x0800e508       0x13 C:\Users\Ridwane\AppData\Local\Temp\ccG6qa3f.ltrans0.ltrans.o
 *fill*         0x0800e51b        0x1 
 .rodata.rt_test_010_006_execute.lto_priv.0.str1.4
                0x0800e51c        0xf C:\Users\Ridwane\AppData\Local\Temp\ccG6qa3f.ltrans0.ltrans.o
 *fill*         0x0800e52b        0x1 
 .rodata.rt_test_007_001_execute.lto_priv.0.str1.4
                0x0800e52c       0x2b C:\Users\Ridwane\AppData\Local\Temp\ccG6qa3f.ltrans0.ltrans.o
 *fill*         0x0800e557        0x1 
 .rodata.chThdCreateStatic.str1.4
                0x0800e558        0x7 C:\Users\Ridwane\AppData\Local\Temp\ccG6qa3f.ltrans0.ltrans.o
 *fill*         0x0800e55f        0x1 
 .rodata.rt_test_007_005_execute.lto_priv.0.str1.4
                0x0800e560       0x21 C:\Users\Ridwane\AppData\Local\Temp\ccG6qa3f.ltrans0.ltrans.o
 *fill*         0x0800e581        0x3 
 .rodata.rt_test_007_006_execute.lto_priv.0.str1.4
                0x0800e584       0x3f C:\Users\Ridwane\AppData\Local\Temp\ccG6qa3f.ltrans0.ltrans.o
                                 0x46 (size before relaxing)
 *fill*         0x0800e5c3        0x1 
 .rodata.rt_test_008_004_execute.lto_priv.0.str1.4
                0x0800e5c4       0x1d C:\Users\Ridwane\AppData\Local\Temp\ccG6qa3f.ltrans0.ltrans.o
 *fill*         0x0800e5e1        0x3 
 .rodata.rt_test_008_005_execute.lto_priv.0.str1.4
                0x0800e5e4       0x28 C:\Users\Ridwane\AppData\Local\Temp\ccG6qa3f.ltrans0.ltrans.o
 .rodata.rt_test_010_003_execute.lto_priv.0.str1.4
                0x0800e60c       0x31 C:\Users\Ridwane\AppData\Local\Temp\ccG6qa3f.ltrans0.ltrans.o
 *fill*         0x0800e63d        0x3 
 .rodata.rt_test_005_002_execute.lto_priv.0.str1.4
                0x0800e640        0xe C:\Users\Ridwane\AppData\Local\Temp\ccG6qa3f.ltrans0.ltrans.o
                                 0x12 (size before relaxing)
 *fill*         0x0800e64e        0x2 
 .rodata.rt_test_006_001_execute.lto_priv.0.str1.4
                0x0800e650        0x9 C:\Users\Ridwane\AppData\Local\Temp\ccG6qa3f.ltrans0.ltrans.o
 *fill*         0x0800e659        0x3 
 .rodata.rt_test_007_004_execute.lto_priv.0.str1.4
                0x0800e65c       0x10 C:\Users\Ridwane\AppData\Local\Temp\ccG6qa3f.ltrans0.ltrans.o
 .rodata.rt_test_009_001_execute.lto_priv.0.str1.4
                0x0800e66c        0x5 C:\Users\Ridwane\AppData\Local\Temp\ccG6qa3f.ltrans0.ltrans.o
 *fill*         0x0800e671        0x3 
 .rodata.rt_test_010_004_execute.lto_priv.0.str1.4
                0x0800e674       0x17 C:\Users\Ridwane\AppData\Local\Temp\ccG6qa3f.ltrans0.ltrans.o
 *fill*         0x0800e68b        0x1 
 .rodata.rt_test_011_001_execute.lto_priv.0.str1.4
                0x0800e68c       0xb2 C:\Users\Ridwane\AppData\Local\Temp\ccG6qa3f.ltrans0.ltrans.o
 *fill*         0x0800e73e        0x2 
 .rodata.rt_test_011_002_execute.lto_priv.0.str1.4
                0x0800e740       0x34 C:\Users\Ridwane\AppData\Local\Temp\ccG6qa3f.ltrans0.ltrans.o
 .rodata.oslib_test_004_001_execute.lto_priv.0.str1.4
                0x0800e774       0x18 C:\Users\Ridwane\AppData\Local\Temp\ccG6qa3f.ltrans0.ltrans.o
 .rodata.oslib_test_005_001_execute.lto_priv.0.str1.4
                0x0800e78c       0x46 C:\Users\Ridwane\AppData\Local\Temp\ccG6qa3f.ltrans0.ltrans.o
 *fill*         0x0800e7d2        0x2 
 .rodata.oslib_test_002_001_execute.lto_priv.0.str1.4
                0x0800e7d4       0xb7 C:\Users\Ridwane\AppData\Local\Temp\ccG6qa3f.ltrans0.ltrans.o
 *fill*         0x0800e88b        0x1 
 .rodata.oslib_test_003_001_execute.lto_priv.0.str1.4
                0x0800e88c       0x1d C:\Users\Ridwane\AppData\Local\Temp\ccG6qa3f.ltrans0.ltrans.o
 *fill*         0x0800e8a9        0x3 
 .rodata.oslib_test_008_001_execute.lto_priv.0.str1.4
                0x0800e8ac       0x75 C:\Users\Ridwane\AppData\Local\Temp\ccG6qa3f.ltrans0.ltrans.o
 *fill*         0x0800e921        0x3 
 .rodata.test_printf.str1.4
                0x0800e924        0x7 C:\Users\Ridwane\AppData\Local\Temp\ccG6qa3f.ltrans0.ltrans.o
 *fill*         0x0800e92b        0x1 
 .rodata.rt_test_001_001_execute.lto_priv.0.str1.4
                0x0800e92c      0x17d C:\Users\Ridwane\AppData\Local\Temp\ccG6qa3f.ltrans0.ltrans.o
                                0x185 (size before relaxing)
 *fill*         0x0800eaa9        0x3 
 .rodata.rt_test_001_002_execute.lto_priv.0.str1.4
                0x0800eaac      0x115 C:\Users\Ridwane\AppData\Local\Temp\ccG6qa3f.ltrans0.ltrans.o
 *fill*         0x0800ebc1        0x3 
 .rodata.rt_test_001_003_execute.lto_priv.0.str1.4
                0x0800ebc4      0x57d C:\Users\Ridwane\AppData\Local\Temp\ccG6qa3f.ltrans0.ltrans.o
 *fill*         0x0800f141        0x3 
 .rodata.rt_test_012_001_execute.lto_priv.0.str1.4
                0x0800f144       0x26 C:\Users\Ridwane\AppData\Local\Temp\ccG6qa3f.ltrans0.ltrans.o
 *fill*         0x0800f16a        0x2 
 .rodata.rt_test_012_005_execute.lto_priv.0.str1.4
                0x0800f16c        0xb C:\Users\Ridwane\AppData\Local\Temp\ccG6qa3f.ltrans0.ltrans.o
 *fill*         0x0800f177        0x1 
 .rodata.rt_test_012_007_execute.lto_priv.0.str1.4
                0x0800f178       0x11 C:\Users\Ridwane\AppData\Local\Temp\ccG6qa3f.ltrans0.ltrans.o
 *fill*         0x0800f189        0x3 
 .rodata.rt_test_012_009_execute.lto_priv.0.str1.4
                0x0800f18c        0xa C:\Users\Ridwane\AppData\Local\Temp\ccG6qa3f.ltrans0.ltrans.o
 *fill*         0x0800f196        0x2 
 .rodata.rt_test_012_010_execute.lto_priv.0.str1.4
                0x0800f198        0xf C:\Users\Ridwane\AppData\Local\Temp\ccG6qa3f.ltrans0.ltrans.o
 *fill*         0x0800f1a7        0x1 
 .rodata.rt_test_012_011_execute.lto_priv.0.str1.4
                0x0800f1a8        0xf C:\Users\Ridwane\AppData\Local\Temp\ccG6qa3f.ltrans0.ltrans.o
 *fill*         0x0800f1b7        0x1 
 .rodata.rt_test_012_012_execute.lto_priv.0.str1.4
                0x0800f1b8       0x95 C:\Users\Ridwane\AppData\Local\Temp\ccG6qa3f.ltrans0.ltrans.o
 *fill*         0x0800f24d        0x3 
 .rodata.oslib_test_001_002_execute.lto_priv.0.str1.4
                0x0800f250       0x3a C:\Users\Ridwane\AppData\Local\Temp\ccG6qa3f.ltrans0.ltrans.o
 *fill*         0x0800f28a        0x2 
 .rodata.oslib_test_001_003_execute.lto_priv.0.str1.4
                0x0800f28c      0x2bd C:\Users\Ridwane\AppData\Local\Temp\ccG6qa3f.ltrans0.ltrans.o
 *fill*         0x0800f549        0x3 
 .rodata.evhndl
                0x0800f54c        0xc C:\Users\Ridwane\AppData\Local\Temp\ccG6qa3f.ltrans0.ltrans.o
 .rodata.pipe_pattern.lto_priv.0
                0x0800f558       0x11 C:\Users\Ridwane\AppData\Local\Temp\ccG6qa3f.ltrans0.ltrans.o
                0x0800f558                pipe_pattern.lto_priv.0
 *fill*         0x0800f569        0x3 
 .rodata.ram_areas
                0x0800f56c       0x80 C:\Users\Ridwane\AppData\Local\Temp\ccG6qa3f.ltrans0.ltrans.o
 .rodata.wa     0x0800f5ec       0x14 C:\Users\Ridwane\AppData\Local\Temp\ccG6qa3f.ltrans0.ltrans.o
 .rodata.oslib_test_008_002_execute.str1.4
                0x0800f600       0x2a C:\Users\Ridwane\AppData\Local\Temp\ccG6qa3f.ltrans1.ltrans.o
 .rodata.chFactoryCreateSemaphore.constprop.0.str1.4
                0x0800f600        0x6 C:\Users\Ridwane\AppData\Local\Temp\ccG6qa3f.ltrans1.ltrans.o
 *fill*         0x0800f606        0x2 
 .rodata.oslib_test_009_005_teardown.str1.4
                0x0800f608        0x7 C:\Users\Ridwane\AppData\Local\Temp\ccG6qa3f.ltrans1.ltrans.o
 *fill*         0x0800f60f        0x1 
 .rodata.oslib_test_009_001_teardown.str1.4
                0x0800f610        0x6 C:\Users\Ridwane\AppData\Local\Temp\ccG6qa3f.ltrans1.ltrans.o
 *fill*         0x0800f616        0x2 
 .rodata.oslib_test_009_002_teardown.str1.4
                0x0800f618        0x6 C:\Users\Ridwane\AppData\Local\Temp\ccG6qa3f.ltrans1.ltrans.o
 *fill*         0x0800f61e        0x2 
 .rodata.oslib_test_009_004_teardown.str1.4
                0x0800f620        0x6 C:\Users\Ridwane\AppData\Local\Temp\ccG6qa3f.ltrans1.ltrans.o
 *fill*         0x0800f626        0x2 
 .rodata.oslib_test_009_006_teardown.str1.4
                0x0800f628        0x7 C:\Users\Ridwane\AppData\Local\Temp\ccG6qa3f.ltrans1.ltrans.o
 *fill*         0x0800f62f        0x1 
 .rodata.oslib_test_009_001_execute.str1.4
                0x0800f630       0x6c C:\Users\Ridwane\AppData\Local\Temp\ccG6qa3f.ltrans1.ltrans.o
                                 0x74 (size before relaxing)
 .rodata.oslib_test_009_006_execute.str1.4
                0x0800f69c       0x1b C:\Users\Ridwane\AppData\Local\Temp\ccG6qa3f.ltrans1.ltrans.o
 *fill*         0x0800f6b7        0x1 
 .rodata._exit.str1.4
                0x0800f6b8        0x5 C:\Users\Ridwane\AppData\Local\Temp\ccG6qa3f.ltrans1.ltrans.o
 *fill*         0x0800f6bd        0x3 
 .rodata._kill.str1.4
                0x0800f6c0        0x5 C:\Users\Ridwane\AppData\Local\Temp\ccG6qa3f.ltrans1.ltrans.o
 *fill*         0x0800f6c5        0x3 
 .rodata.Thread1.str1.4
                0x0800f6c8       0x1d C:\Users\Ridwane\AppData\Local\Temp\ccG6qa3f.ltrans1.ltrans.o
 *fill*         0x0800f6e5        0x3 
 .rodata.test_execute_inner.isra.0.str1.4
                0x0800f6e8      0x1f7 C:\Users\Ridwane\AppData\Local\Temp\ccG6qa3f.ltrans1.ltrans.o
                                0x1ff (size before relaxing)
 *fill*         0x0800f8df        0x1 
 .rodata.main.str1.4
                0x0800f8e0        0x5 C:\Users\Ridwane\AppData\Local\Temp\ccG6qa3f.ltrans1.ltrans.o
 *fill*         0x0800f8e5        0x3 
 .rodata.str1.4
                0x0800f8e8      0xa0a C:\Users\Ridwane\AppData\Local\Temp\ccG6qa3f.ltrans1.ltrans.o
 *fill*         0x080102f2        0x6 
 .rodata.KeccakF_RoundConstants
                0x080102f8       0xc0 C:\Users\Ridwane\AppData\Local\Temp\ccG6qa3f.ltrans1.ltrans.o
 .rodata.ch_core0_cfg
                0x080103b8       0x14 C:\Users\Ridwane\AppData\Local\Temp\ccG6qa3f.ltrans1.ltrans.o
 .rodata.ch_debug
                0x080103cc       0x2c C:\Users\Ridwane\AppData\Local\Temp\ccG6qa3f.ltrans1.ltrans.o
 .rodata.default_config
                0x080103f8        0xc C:\Users\Ridwane\AppData\Local\Temp\ccG6qa3f.ltrans1.ltrans.o
 .rodata.oslib_test_001_001
                0x08010404       0x10 C:\Users\Ridwane\AppData\Local\Temp\ccG6qa3f.ltrans1.ltrans.o
 .rodata.oslib_test_001_002
                0x08010414       0x10 C:\Users\Ridwane\AppData\Local\Temp\ccG6qa3f.ltrans1.ltrans.o
 .rodata.oslib_test_001_003
                0x08010424       0x10 C:\Users\Ridwane\AppData\Local\Temp\ccG6qa3f.ltrans1.ltrans.o
 .rodata.oslib_test_002_001
                0x08010434       0x10 C:\Users\Ridwane\AppData\Local\Temp\ccG6qa3f.ltrans1.ltrans.o
 .rodata.oslib_test_002_002
                0x08010444       0x10 C:\Users\Ridwane\AppData\Local\Temp\ccG6qa3f.ltrans1.ltrans.o
 .rodata.oslib_test_002_003
                0x08010454       0x10 C:\Users\Ridwane\AppData\Local\Temp\ccG6qa3f.ltrans1.ltrans.o
 .rodata.oslib_test_003_001
                0x08010464       0x10 C:\Users\Ridwane\AppData\Local\Temp\ccG6qa3f.ltrans1.ltrans.o
 .rodata.oslib_test_003_002
                0x08010474       0x10 C:\Users\Ridwane\AppData\Local\Temp\ccG6qa3f.ltrans1.ltrans.o
 .rodata.oslib_test_004_001
                0x08010484       0x10 C:\Users\Ridwane\AppData\Local\Temp\ccG6qa3f.ltrans1.ltrans.o
 .rodata.oslib_test_005_001
                0x08010494       0x10 C:\Users\Ridwane\AppData\Local\Temp\ccG6qa3f.ltrans1.ltrans.o
 .rodata.oslib_test_006_001
                0x080104a4       0x10 C:\Users\Ridwane\AppData\Local\Temp\ccG6qa3f.ltrans1.ltrans.o
 .rodata.oslib_test_007_001
                0x080104b4       0x10 C:\Users\Ridwane\AppData\Local\Temp\ccG6qa3f.ltrans1.ltrans.o
 .rodata.oslib_test_007_002
                0x080104c4       0x10 C:\Users\Ridwane\AppData\Local\Temp\ccG6qa3f.ltrans1.ltrans.o
 .rodata.oslib_test_007_003
                0x080104d4       0x10 C:\Users\Ridwane\AppData\Local\Temp\ccG6qa3f.ltrans1.ltrans.o
 .rodata.oslib_test_008_001
                0x080104e4       0x10 C:\Users\Ridwane\AppData\Local\Temp\ccG6qa3f.ltrans1.ltrans.o
 .rodata.oslib_test_008_002
                0x080104f4       0x10 C:\Users\Ridwane\AppData\Local\Temp\ccG6qa3f.ltrans1.ltrans.o
 .rodata.oslib_test_009_001
                0x08010504       0x10 C:\Users\Ridwane\AppData\Local\Temp\ccG6qa3f.ltrans1.ltrans.o
 .rodata.oslib_test_009_002
                0x08010514       0x10 C:\Users\Ridwane\AppData\Local\Temp\ccG6qa3f.ltrans1.ltrans.o
 .rodata.oslib_test_009_003
                0x08010524       0x10 C:\Users\Ridwane\AppData\Local\Temp\ccG6qa3f.ltrans1.ltrans.o
 .rodata.oslib_test_009_004
                0x08010534       0x10 C:\Users\Ridwane\AppData\Local\Temp\ccG6qa3f.ltrans1.ltrans.o
 .rodata.oslib_test_009_005
                0x08010544       0x10 C:\Users\Ridwane\AppData\Local\Temp\ccG6qa3f.ltrans1.ltrans.o
 .rodata.oslib_test_009_006
                0x08010554       0x10 C:\Users\Ridwane\AppData\Local\Temp\ccG6qa3f.ltrans1.ltrans.o
 .rodata.oslib_test_sequence_001
                0x08010564        0x8 C:\Users\Ridwane\AppData\Local\Temp\ccG6qa3f.ltrans1.ltrans.o
 .rodata.oslib_test_sequence_001_array
                0x0801056c       0x10 C:\Users\Ridwane\AppData\Local\Temp\ccG6qa3f.ltrans1.ltrans.o
 .rodata.oslib_test_sequence_002
                0x0801057c        0x8 C:\Users\Ridwane\AppData\Local\Temp\ccG6qa3f.ltrans1.ltrans.o
 .rodata.oslib_test_sequence_002_array
                0x08010584       0x10 C:\Users\Ridwane\AppData\Local\Temp\ccG6qa3f.ltrans1.ltrans.o
 .rodata.oslib_test_sequence_003
                0x08010594        0x8 C:\Users\Ridwane\AppData\Local\Temp\ccG6qa3f.ltrans1.ltrans.o
 .rodata.oslib_test_sequence_003_array
                0x0801059c        0xc C:\Users\Ridwane\AppData\Local\Temp\ccG6qa3f.ltrans1.ltrans.o
 .rodata.oslib_test_sequence_004
                0x080105a8        0x8 C:\Users\Ridwane\AppData\Local\Temp\ccG6qa3f.ltrans1.ltrans.o
 .rodata.oslib_test_sequence_004_array
                0x080105b0        0x8 C:\Users\Ridwane\AppData\Local\Temp\ccG6qa3f.ltrans1.ltrans.o
 .rodata.oslib_test_sequence_005
                0x080105b8        0x8 C:\Users\Ridwane\AppData\Local\Temp\ccG6qa3f.ltrans1.ltrans.o
 .rodata.oslib_test_sequence_005_array
                0x080105c0        0x8 C:\Users\Ridwane\AppData\Local\Temp\ccG6qa3f.ltrans1.ltrans.o
 .rodata.oslib_test_sequence_006
                0x080105c8        0x8 C:\Users\Ridwane\AppData\Local\Temp\ccG6qa3f.ltrans1.ltrans.o
 .rodata.oslib_test_sequence_006_array
                0x080105d0        0x8 C:\Users\Ridwane\AppData\Local\Temp\ccG6qa3f.ltrans1.ltrans.o
 .rodata.oslib_test_sequence_007
                0x080105d8        0x8 C:\Users\Ridwane\AppData\Local\Temp\ccG6qa3f.ltrans1.ltrans.o
 .rodata.oslib_test_sequence_007_array
                0x080105e0       0x10 C:\Users\Ridwane\AppData\Local\Temp\ccG6qa3f.ltrans1.ltrans.o
 .rodata.oslib_test_sequence_008
                0x080105f0        0x8 C:\Users\Ridwane\AppData\Local\Temp\ccG6qa3f.ltrans1.ltrans.o
 .rodata.oslib_test_sequence_008_array
                0x080105f8        0xc C:\Users\Ridwane\AppData\Local\Temp\ccG6qa3f.ltrans1.ltrans.o
 .rodata.oslib_test_sequence_009
                0x08010604        0x8 C:\Users\Ridwane\AppData\Local\Temp\ccG6qa3f.ltrans1.ltrans.o
 .rodata.oslib_test_sequence_009_array
                0x0801060c       0x1c C:\Users\Ridwane\AppData\Local\Temp\ccG6qa3f.ltrans1.ltrans.o
 .rodata.oslib_test_suite
                0x08010628        0x8 C:\Users\Ridwane\AppData\Local\Temp\ccG6qa3f.ltrans1.ltrans.o
 .rodata.oslib_test_suite_array
                0x08010630       0x28 C:\Users\Ridwane\AppData\Local\Temp\ccG6qa3f.ltrans1.ltrans.o
 *fill*         0x08010658        0x8 
 .rodata.pqcrystals_dilithium2_avx2_qdata
                0x08010660      0x8e0 C:\Users\Ridwane\AppData\Local\Temp\ccG6qa3f.ltrans1.ltrans.o
 .rodata.rt_test_001_001
                0x08010f40       0x10 C:\Users\Ridwane\AppData\Local\Temp\ccG6qa3f.ltrans1.ltrans.o
 .rodata.rt_test_001_002
                0x08010f50       0x10 C:\Users\Ridwane\AppData\Local\Temp\ccG6qa3f.ltrans1.ltrans.o
 .rodata.rt_test_001_003
                0x08010f60       0x10 C:\Users\Ridwane\AppData\Local\Temp\ccG6qa3f.ltrans1.ltrans.o
 .rodata.rt_test_002_001
                0x08010f70       0x10 C:\Users\Ridwane\AppData\Local\Temp\ccG6qa3f.ltrans1.ltrans.o
 .rodata.rt_test_002_002
                0x08010f80       0x10 C:\Users\Ridwane\AppData\Local\Temp\ccG6qa3f.ltrans1.ltrans.o
 .rodata.rt_test_002_003
                0x08010f90       0x10 C:\Users\Ridwane\AppData\Local\Temp\ccG6qa3f.ltrans1.ltrans.o
 .rodata.rt_test_003_001
                0x08010fa0       0x10 C:\Users\Ridwane\AppData\Local\Temp\ccG6qa3f.ltrans1.ltrans.o
 .rodata.rt_test_003_002
                0x08010fb0       0x10 C:\Users\Ridwane\AppData\Local\Temp\ccG6qa3f.ltrans1.ltrans.o
 .rodata.rt_test_004_001
                0x08010fc0       0x10 C:\Users\Ridwane\AppData\Local\Temp\ccG6qa3f.ltrans1.ltrans.o
 .rodata.rt_test_005_001
                0x08010fd0       0x10 C:\Users\Ridwane\AppData\Local\Temp\ccG6qa3f.ltrans1.ltrans.o
 .rodata.rt_test_005_002
                0x08010fe0       0x10 C:\Users\Ridwane\AppData\Local\Temp\ccG6qa3f.ltrans1.ltrans.o
 .rodata.rt_test_005_003
                0x08010ff0       0x10 C:\Users\Ridwane\AppData\Local\Temp\ccG6qa3f.ltrans1.ltrans.o
 .rodata.rt_test_005_004
                0x08011000       0x10 C:\Users\Ridwane\AppData\Local\Temp\ccG6qa3f.ltrans1.ltrans.o
 .rodata.rt_test_006_001
                0x08011010       0x10 C:\Users\Ridwane\AppData\Local\Temp\ccG6qa3f.ltrans1.ltrans.o
 .rodata.rt_test_007_001
                0x08011020       0x10 C:\Users\Ridwane\AppData\Local\Temp\ccG6qa3f.ltrans1.ltrans.o
 .rodata.rt_test_007_002
                0x08011030       0x10 C:\Users\Ridwane\AppData\Local\Temp\ccG6qa3f.ltrans1.ltrans.o
 .rodata.rt_test_007_003
                0x08011040       0x10 C:\Users\Ridwane\AppData\Local\Temp\ccG6qa3f.ltrans1.ltrans.o
 .rodata.rt_test_007_004
                0x08011050       0x10 C:\Users\Ridwane\AppData\Local\Temp\ccG6qa3f.ltrans1.ltrans.o
 .rodata.rt_test_007_005
                0x08011060       0x10 C:\Users\Ridwane\AppData\Local\Temp\ccG6qa3f.ltrans1.ltrans.o
 .rodata.rt_test_007_006
                0x08011070       0x10 C:\Users\Ridwane\AppData\Local\Temp\ccG6qa3f.ltrans1.ltrans.o
 .rodata.rt_test_008_001
                0x08011080       0x10 C:\Users\Ridwane\AppData\Local\Temp\ccG6qa3f.ltrans1.ltrans.o
 .rodata.rt_test_008_004
                0x08011090       0x10 C:\Users\Ridwane\AppData\Local\Temp\ccG6qa3f.ltrans1.ltrans.o
 .rodata.rt_test_008_005
                0x080110a0       0x10 C:\Users\Ridwane\AppData\Local\Temp\ccG6qa3f.ltrans1.ltrans.o
 .rodata.rt_test_008_007
                0x080110b0       0x10 C:\Users\Ridwane\AppData\Local\Temp\ccG6qa3f.ltrans1.ltrans.o
 .rodata.rt_test_008_008
                0x080110c0       0x10 C:\Users\Ridwane\AppData\Local\Temp\ccG6qa3f.ltrans1.ltrans.o
 .rodata.rt_test_008_009
                0x080110d0       0x10 C:\Users\Ridwane\AppData\Local\Temp\ccG6qa3f.ltrans1.ltrans.o
 .rodata.rt_test_009_001
                0x080110e0       0x10 C:\Users\Ridwane\AppData\Local\Temp\ccG6qa3f.ltrans1.ltrans.o
 .rodata.rt_test_010_001
                0x080110f0       0x10 C:\Users\Ridwane\AppData\Local\Temp\ccG6qa3f.ltrans1.ltrans.o
 .rodata.rt_test_010_002
                0x08011100       0x10 C:\Users\Ridwane\AppData\Local\Temp\ccG6qa3f.ltrans1.ltrans.o
 .rodata.rt_test_010_003
                0x08011110       0x10 C:\Users\Ridwane\AppData\Local\Temp\ccG6qa3f.ltrans1.ltrans.o
 .rodata.rt_test_010_004
                0x08011120       0x10 C:\Users\Ridwane\AppData\Local\Temp\ccG6qa3f.ltrans1.ltrans.o
 .rodata.rt_test_010_005
                0x08011130       0x10 C:\Users\Ridwane\AppData\Local\Temp\ccG6qa3f.ltrans1.ltrans.o
 .rodata.rt_test_010_006
                0x08011140       0x10 C:\Users\Ridwane\AppData\Local\Temp\ccG6qa3f.ltrans1.ltrans.o
 .rodata.rt_test_010_007
                0x08011150       0x10 C:\Users\Ridwane\AppData\Local\Temp\ccG6qa3f.ltrans1.ltrans.o
 .rodata.rt_test_011_001
                0x08011160       0x10 C:\Users\Ridwane\AppData\Local\Temp\ccG6qa3f.ltrans1.ltrans.o
 .rodata.rt_test_011_002
                0x08011170       0x10 C:\Users\Ridwane\AppData\Local\Temp\ccG6qa3f.ltrans1.ltrans.o
 .rodata.rt_test_012_001
                0x08011180       0x10 C:\Users\Ridwane\AppData\Local\Temp\ccG6qa3f.ltrans1.ltrans.o
 .rodata.rt_test_012_002
                0x08011190       0x10 C:\Users\Ridwane\AppData\Local\Temp\ccG6qa3f.ltrans1.ltrans.o
 .rodata.rt_test_012_003
                0x080111a0       0x10 C:\Users\Ridwane\AppData\Local\Temp\ccG6qa3f.ltrans1.ltrans.o
 .rodata.rt_test_012_004
                0x080111b0       0x10 C:\Users\Ridwane\AppData\Local\Temp\ccG6qa3f.ltrans1.ltrans.o
 .rodata.rt_test_012_005
                0x080111c0       0x10 C:\Users\Ridwane\AppData\Local\Temp\ccG6qa3f.ltrans1.ltrans.o
 .rodata.rt_test_012_006
                0x080111d0       0x10 C:\Users\Ridwane\AppData\Local\Temp\ccG6qa3f.ltrans1.ltrans.o
 .rodata.rt_test_012_007
                0x080111e0       0x10 C:\Users\Ridwane\AppData\Local\Temp\ccG6qa3f.ltrans1.ltrans.o
 .rodata.rt_test_012_008
                0x080111f0       0x10 C:\Users\Ridwane\AppData\Local\Temp\ccG6qa3f.ltrans1.ltrans.o
 .rodata.rt_test_012_009
                0x08011200       0x10 C:\Users\Ridwane\AppData\Local\Temp\ccG6qa3f.ltrans1.ltrans.o
 .rodata.rt_test_012_010
                0x08011210       0x10 C:\Users\Ridwane\AppData\Local\Temp\ccG6qa3f.ltrans1.ltrans.o
 .rodata.rt_test_012_011
                0x08011220       0x10 C:\Users\Ridwane\AppData\Local\Temp\ccG6qa3f.ltrans1.ltrans.o
 .rodata.rt_test_012_012
                0x08011230       0x10 C:\Users\Ridwane\AppData\Local\Temp\ccG6qa3f.ltrans1.ltrans.o
 .rodata.rt_test_sequence_001
                0x08011240        0x8 C:\Users\Ridwane\AppData\Local\Temp\ccG6qa3f.ltrans1.ltrans.o
 .rodata.rt_test_sequence_001_array
                0x08011248       0x10 C:\Users\Ridwane\AppData\Local\Temp\ccG6qa3f.ltrans1.ltrans.o
 .rodata.rt_test_sequence_002
                0x08011258        0x8 C:\Users\Ridwane\AppData\Local\Temp\ccG6qa3f.ltrans1.ltrans.o
 .rodata.rt_test_sequence_002_array
                0x08011260       0x10 C:\Users\Ridwane\AppData\Local\Temp\ccG6qa3f.ltrans1.ltrans.o
 .rodata.rt_test_sequence_003
                0x08011270        0x8 C:\Users\Ridwane\AppData\Local\Temp\ccG6qa3f.ltrans1.ltrans.o
 .rodata.rt_test_sequence_003_array
                0x08011278        0xc C:\Users\Ridwane\AppData\Local\Temp\ccG6qa3f.ltrans1.ltrans.o
 .rodata.rt_test_sequence_004
                0x08011284        0x8 C:\Users\Ridwane\AppData\Local\Temp\ccG6qa3f.ltrans1.ltrans.o
 .rodata.rt_test_sequence_004_array
                0x0801128c        0x8 C:\Users\Ridwane\AppData\Local\Temp\ccG6qa3f.ltrans1.ltrans.o
 .rodata.rt_test_sequence_005
                0x08011294        0x8 C:\Users\Ridwane\AppData\Local\Temp\ccG6qa3f.ltrans1.ltrans.o
 .rodata.rt_test_sequence_005_array
                0x0801129c       0x14 C:\Users\Ridwane\AppData\Local\Temp\ccG6qa3f.ltrans1.ltrans.o
 .rodata.rt_test_sequence_006
                0x080112b0        0x8 C:\Users\Ridwane\AppData\Local\Temp\ccG6qa3f.ltrans1.ltrans.o
 .rodata.rt_test_sequence_006_array
                0x080112b8        0x8 C:\Users\Ridwane\AppData\Local\Temp\ccG6qa3f.ltrans1.ltrans.o
 .rodata.rt_test_sequence_007
                0x080112c0        0x8 C:\Users\Ridwane\AppData\Local\Temp\ccG6qa3f.ltrans1.ltrans.o
 .rodata.rt_test_sequence_007_array
                0x080112c8       0x1c C:\Users\Ridwane\AppData\Local\Temp\ccG6qa3f.ltrans1.ltrans.o
 .rodata.rt_test_sequence_008
                0x080112e4        0x8 C:\Users\Ridwane\AppData\Local\Temp\ccG6qa3f.ltrans1.ltrans.o
 .rodata.rt_test_sequence_008_array
                0x080112ec       0x1c C:\Users\Ridwane\AppData\Local\Temp\ccG6qa3f.ltrans1.ltrans.o
 .rodata.rt_test_sequence_009
                0x08011308        0x8 C:\Users\Ridwane\AppData\Local\Temp\ccG6qa3f.ltrans1.ltrans.o
 .rodata.rt_test_sequence_009_array
                0x08011310        0x8 C:\Users\Ridwane\AppData\Local\Temp\ccG6qa3f.ltrans1.ltrans.o
 .rodata.rt_test_sequence_010
                0x08011318        0x8 C:\Users\Ridwane\AppData\Local\Temp\ccG6qa3f.ltrans1.ltrans.o
 .rodata.rt_test_sequence_010_array
                0x08011320       0x20 C:\Users\Ridwane\AppData\Local\Temp\ccG6qa3f.ltrans1.ltrans.o
 .rodata.rt_test_sequence_011
                0x08011340        0x8 C:\Users\Ridwane\AppData\Local\Temp\ccG6qa3f.ltrans1.ltrans.o
 .rodata.rt_test_sequence_011_array
                0x08011348        0xc C:\Users\Ridwane\AppData\Local\Temp\ccG6qa3f.ltrans1.ltrans.o
 .rodata.rt_test_sequence_012
                0x08011354        0x8 C:\Users\Ridwane\AppData\Local\Temp\ccG6qa3f.ltrans1.ltrans.o
 .rodata.rt_test_sequence_012_array
                0x0801135c       0x34 C:\Users\Ridwane\AppData\Local\Temp\ccG6qa3f.ltrans1.ltrans.o
 .rodata.rt_test_suite
                0x08011390        0x8 C:\Users\Ridwane\AppData\Local\Temp\ccG6qa3f.ltrans1.ltrans.o
 .rodata.rt_test_suite_array
                0x08011398       0x34 C:\Users\Ridwane\AppData\Local\Temp\ccG6qa3f.ltrans1.ltrans.o
 .rodata.vmt    0x080113cc       0x28 C:\Users\Ridwane\AppData\Local\Temp\ccG6qa3f.ltrans1.ltrans.o
 .rodata.srand.str1.1
                0x080113f4       0x70 c:/chibistudio/tools/gnu tools arm embedded/11.3 2022.08/bin/../lib/gcc/arm-none-eabi/11.3.1/thumb/v7e-m/nofp\libg_nano.a(libc_a-rand.o)
 .rodata.__assert_func.str1.1
                0x08011464       0x3c c:/chibistudio/tools/gnu tools arm embedded/11.3 2022.08/bin/../lib/gcc/arm-none-eabi/11.3.1/thumb/v7e-m/nofp\libg_nano.a(libc_a-assert.o)
                                 0x3d (size before relaxing)
 .rodata._vfprintf_r.str1.1
                0x080114a0       0x11 c:/chibistudio/tools/gnu tools arm embedded/11.3 2022.08/bin/../lib/gcc/arm-none-eabi/11.3.1/thumb/v7e-m/nofp\libg_nano.a(libc_a-nano-vfprintf.o)
 .rodata._printf_i.str1.1
                0x080114b1       0x22 c:/chibistudio/tools/gnu tools arm embedded/11.3 2022.08/bin/../lib/gcc/arm-none-eabi/11.3.1/thumb/v7e-m/nofp\libg_nano.a(libc_a-nano-vfprintf_i.o)
                0x080114d4                . = ALIGN (0x4)
 *fill*         0x080114d3        0x1 
                0x080114d4                __rodata_end__ = .

.rel.dyn        0x080114d4        0x0
 .rel.iplt      0x080114d4        0x0 ./build/obj/crt0_v7m.o

.ARM.extab
 *(.ARM.extab* .gnu.linkonce.armextab.*)

.ARM.exidx      0x080114d4        0x0
                0x080114d4                __exidx_base__ = .
                0x080114d4                __exidx_start = .
 *(.ARM.exidx* .gnu.linkonce.armexidx.*)
                0x080114d4                __exidx_end__ = .
                0x080114d4                __exidx_end = .

.eh_frame_hdr
 *(.eh_frame_hdr)

.eh_frame
 *(.eh_frame)

.data           0x20000800      0x13c load address 0x080114d4
                [!provide]                PROVIDE (_textdata = LOADADDR (.data))
                [!provide]                PROVIDE (_data = .)
                0x080114d4                __textdata_base__ = LOADADDR (.data)
                0x20000800                __data_base__ = .
 *(.data)
 *(.data.*)
 .data.c1       0x20000800        0x8 C:\Users\Ridwane\AppData\Local\Temp\ccG6qa3f.ltrans0.ltrans.o
 .data.es1      0x20000808        0x4 C:\Users\Ridwane\AppData\Local\Temp\ccG6qa3f.ltrans0.ltrans.o
 .data.es2      0x2000080c        0x4 C:\Users\Ridwane\AppData\Local\Temp\ccG6qa3f.ltrans0.ltrans.o
 .data.gmp1     0x20000810       0x1c C:\Users\Ridwane\AppData\Local\Temp\ccG6qa3f.ltrans0.ltrans.o
 .data.m1       0x2000082c       0x10 C:\Users\Ridwane\AppData\Local\Temp\ccG6qa3f.ltrans0.ltrans.o
 .data.m2       0x2000083c       0x10 C:\Users\Ridwane\AppData\Local\Temp\ccG6qa3f.ltrans0.ltrans.o
 .data.mb1.lto_priv.0
                0x2000084c       0x28 C:\Users\Ridwane\AppData\Local\Temp\ccG6qa3f.ltrans0.ltrans.o
                0x2000084c                mb1.lto_priv.0
 .data.mp1.lto_priv.1
                0x20000874       0x10 C:\Users\Ridwane\AppData\Local\Temp\ccG6qa3f.ltrans0.ltrans.o
 .data.pipe1.lto_priv.0
                0x20000884       0x50 C:\Users\Ridwane\AppData\Local\Temp\ccG6qa3f.ltrans0.ltrans.o
                0x20000884                pipe1.lto_priv.0
 .data.fd.0     0x200008d4        0x4 C:\Users\Ridwane\AppData\Local\Temp\ccG6qa3f.ltrans1.ltrans.o
 .data.myobj.0  0x200008d8        0x4 C:\Users\Ridwane\AppData\Local\Temp\ccG6qa3f.ltrans1.ltrans.o
 .data.myobj.1  0x200008dc        0x4 C:\Users\Ridwane\AppData\Local\Temp\ccG6qa3f.ltrans1.ltrans.o
 .data._impure_data
                0x200008e0       0x4c c:/chibistudio/tools/gnu tools arm embedded/11.3 2022.08/bin/../lib/gcc/arm-none-eabi/11.3.1/thumb/v7e-m/nofp\libg_nano.a(libc_a-impure.o)
                0x200008e0                _impure_data
 .data._impure_ptr
                0x2000092c        0x4 c:/chibistudio/tools/gnu tools arm embedded/11.3 2022.08/bin/../lib/gcc/arm-none-eabi/11.3.1/thumb/v7e-m/nofp\libg_nano.a(libc_a-impure.o)
                0x2000092c                _impure_ptr
 .data.__sglue  0x20000930        0xc c:/chibistudio/tools/gnu tools arm embedded/11.3 2022.08/bin/../lib/gcc/arm-none-eabi/11.3.1/thumb/v7e-m/nofp\libg_nano.a(libc_a-findfp.o)
                0x20000930                __sglue
 *(.ramtext)
                0x2000093c                . = ALIGN (0x4)
                [!provide]                PROVIDE (_edata = .)
                0x2000093c                __data_end__ = .

.igot.plt       0x2000093c        0x0 load address 0x08011610
 .igot.plt      0x2000093c        0x0 ./build/obj/crt0_v7m.o

.bss            0x20000940     0x9734 load address 0x08011610
                0x20000940                __bss_base__ = .
 *(.bss)
 *(.bss.*)
 .bss.SD1       0x20000940       0x80 C:\Users\Ridwane\AppData\Local\Temp\ccG6qa3f.ltrans0.ltrans.o
                0x20000940                SD1
 .bss.SD2       0x200009c0       0x80 C:\Users\Ridwane\AppData\Local\Temp\ccG6qa3f.ltrans0.ltrans.o
                0x200009c0                SD2
 .bss.buffer    0x20000a40       0x10 C:\Users\Ridwane\AppData\Local\Temp\ccG6qa3f.ltrans0.ltrans.o
 .bss.cache1.lto_priv.0
                0x20000a50       0x44 C:\Users\Ridwane\AppData\Local\Temp\ccG6qa3f.ltrans0.ltrans.o
                0x20000a50                cache1.lto_priv.0
 *fill*         0x20000a94        0x4 
 .bss.ch0       0x20000a98       0x88 C:\Users\Ridwane\AppData\Local\Temp\ccG6qa3f.ltrans0.ltrans.o
                0x20000a98                ch0
 .bss.ch_factory
                0x20000b20       0x48 C:\Users\Ridwane\AppData\Local\Temp\ccG6qa3f.ltrans0.ltrans.o
                0x20000b20                ch_factory
 .bss.ch_memcore
                0x20000b68        0x8 C:\Users\Ridwane\AppData\Local\Temp\ccG6qa3f.ltrans0.ltrans.o
                0x20000b68                ch_memcore
 .bss.ch_system
                0x20000b70        0xc C:\Users\Ridwane\AppData\Local\Temp\ccG6qa3f.ltrans0.ltrans.o
                0x20000b70                ch_system
 .bss.chtest    0x20000b7c       0x28 C:\Users\Ridwane\AppData\Local\Temp\ccG6qa3f.ltrans0.ltrans.o
                0x20000b7c                chtest
 .bss.default_heap.lto_priv.0
                0x20000ba4       0x1c C:\Users\Ridwane\AppData\Local\Temp\ccG6qa3f.ltrans0.ltrans.o
                0x20000ba4                default_heap.lto_priv.0
 .bss.exit_flag
                0x20000bc0        0x1 C:\Users\Ridwane\AppData\Local\Temp\ccG6qa3f.ltrans0.ltrans.o
 *fill*         0x20000bc1        0x3 
 .bss.hash_headers
                0x20000bc4       0x40 C:\Users\Ridwane\AppData\Local\Temp\ccG6qa3f.ltrans0.ltrans.o
 .bss.heap1.lto_priv.0
                0x20000c04       0x1c C:\Users\Ridwane\AppData\Local\Temp\ccG6qa3f.ltrans0.ltrans.o
                0x20000c04                heap1.lto_priv.0
 .bss.jobs      0x20000c20       0x20 C:\Users\Ridwane\AppData\Local\Temp\ccG6qa3f.ltrans0.ltrans.o
 .bss.jq        0x20000c40       0x44 C:\Users\Ridwane\AppData\Local\Temp\ccG6qa3f.ltrans0.ltrans.o
 .bss.mb_buffer
                0x20000c84       0x10 C:\Users\Ridwane\AppData\Local\Temp\ccG6qa3f.ltrans0.ltrans.o
 .bss.mp1.lto_priv.0
                0x20000c94       0x10 C:\Users\Ridwane\AppData\Local\Temp\ccG6qa3f.ltrans0.ltrans.o
                0x20000c94                mp1.lto_priv.0
 .bss.msg_queue
                0x20000ca4       0x10 C:\Users\Ridwane\AppData\Local\Temp\ccG6qa3f.ltrans0.ltrans.o
 .bss.mtx1      0x20000cb4       0x10 C:\Users\Ridwane\AppData\Local\Temp\ccG6qa3f.ltrans0.ltrans.o
 .bss.objects.lto_priv.0
                0x20000cc4       0xf0 C:\Users\Ridwane\AppData\Local\Temp\ccG6qa3f.ltrans0.ltrans.o
 .bss.objects.lto_priv.1
                0x20000db4       0x10 C:\Users\Ridwane\AppData\Local\Temp\ccG6qa3f.ltrans0.ltrans.o
 .bss.sem1.lto_priv.0
                0x20000dc4        0xc C:\Users\Ridwane\AppData\Local\Temp\ccG6qa3f.ltrans0.ltrans.o
                0x20000dc4                sem1.lto_priv.0
 .bss.sem1.lto_priv.1
                0x20000dd0        0xc C:\Users\Ridwane\AppData\Local\Temp\ccG6qa3f.ltrans0.ltrans.o
 *fill*         0x20000ddc        0x4 
 .bss.test_buffer
                0x20000de0      0x870 C:\Users\Ridwane\AppData\Local\Temp\ccG6qa3f.ltrans0.ltrans.o
 .bss.test_heap.lto_priv.0
                0x20001650       0x1c C:\Users\Ridwane\AppData\Local\Temp\ccG6qa3f.ltrans0.ltrans.o
                0x20001650                test_heap.lto_priv.0
 .bss.test_heap_buffer
                0x2000166c       0x80 C:\Users\Ridwane\AppData\Local\Temp\ccG6qa3f.ltrans0.ltrans.o
 .bss.threads   0x200016ec       0x14 C:\Users\Ridwane\AppData\Local\Temp\ccG6qa3f.ltrans0.ltrans.o
 .bss.tr1       0x20001700        0x4 C:\Users\Ridwane\AppData\Local\Temp\ccG6qa3f.ltrans0.ltrans.o
 .bss.vt1.1     0x20001704       0x18 C:\Users\Ridwane\AppData\Local\Temp\ccG6qa3f.ltrans0.ltrans.o
 .bss.vt2.0     0x2000171c       0x18 C:\Users\Ridwane\AppData\Local\Temp\ccG6qa3f.ltrans0.ltrans.o
 *fill*         0x20001734        0x4 
 .bss.wa1Thread1
                0x20001738      0x1f0 C:\Users\Ridwane\AppData\Local\Temp\ccG6qa3f.ltrans0.ltrans.o
 .bss.wa2Thread1
                0x20001928      0x1f0 C:\Users\Ridwane\AppData\Local\Temp\ccG6qa3f.ltrans0.ltrans.o
 .bss.waThread1
                0x20001b18      0x1f0 C:\Users\Ridwane\AppData\Local\Temp\ccG6qa3f.ltrans0.ltrans.o
 .bss.ch_c0_idle_thread_wa
                0x20001d08      0x130 C:\Users\Ridwane\AppData\Local\Temp\ccG6qa3f.ltrans1.ltrans.o
 .bss.waThread1
                0x20001e38     0x80f0 C:\Users\Ridwane\AppData\Local\Temp\ccG6qa3f.ltrans1.ltrans.o
 .bss.__malloc_free_list
                0x20009f28        0x4 c:/chibistudio/tools/gnu tools arm embedded/11.3 2022.08/bin/../lib/gcc/arm-none-eabi/11.3.1/thumb/v7e-m/nofp\libg_nano.a(libc_a-mallocr.o)
                0x20009f28                __malloc_free_list
 .bss.__malloc_sbrk_start
                0x20009f2c        0x4 c:/chibistudio/tools/gnu tools arm embedded/11.3 2022.08/bin/../lib/gcc/arm-none-eabi/11.3.1/thumb/v7e-m/nofp\libg_nano.a(libc_a-mallocr.o)
                0x20009f2c                __malloc_sbrk_start
 .bss.__lock___malloc_recursive_mutex
                0x20009f30        0x1 c:/chibistudio/tools/gnu tools arm embedded/11.3 2022.08/bin/../lib/gcc/arm-none-eabi/11.3.1/thumb/v7e-m/nofp\libg_nano.a(libc_a-lock.o)
                0x20009f30                __lock___malloc_recursive_mutex
 .bss.__lock___sfp_recursive_mutex
                0x20009f31        0x1 c:/chibistudio/tools/gnu tools arm embedded/11.3 2022.08/bin/../lib/gcc/arm-none-eabi/11.3.1/thumb/v7e-m/nofp\libg_nano.a(libc_a-lock.o)
                0x20009f31                __lock___sfp_recursive_mutex
 *fill*         0x20009f32        0x2 
 .bss.__sf      0x20009f34      0x138 c:/chibistudio/tools/gnu tools arm embedded/11.3 2022.08/bin/../lib/gcc/arm-none-eabi/11.3.1/thumb/v7e-m/nofp\libg_nano.a(libc_a-findfp.o)
                0x20009f34                __sf
 .bss.__stdio_exit_handler
                0x2000a06c        0x4 c:/chibistudio/tools/gnu tools arm embedded/11.3 2022.08/bin/../lib/gcc/arm-none-eabi/11.3.1/thumb/v7e-m/nofp\libg_nano.a(libc_a-findfp.o)
                0x2000a06c                __stdio_exit_handler
 .bss.errno     0x2000a070        0x4 c:/chibistudio/tools/gnu tools arm embedded/11.3 2022.08/bin/../lib/gcc/arm-none-eabi/11.3.1/thumb/v7e-m/nofp\libg_nano.a(libc_a-reent.o)
                0x2000a070                errno
 *(COMMON)
                0x2000a074                . = ALIGN (0x4)
                0x2000a074                __bss_end__ = .
                [!provide]                PROVIDE (end = .)
                0x20000000                __ram0_base__ = ORIGIN (ram0)
                0x00020000                __ram0_size__ = LENGTH (ram0)
                0x20020000                __ram0_end__ = (__ram0_base__ + __ram0_size__)
                0x20000000                __ram1_base__ = ORIGIN (ram1)
                0x0001c000                __ram1_size__ = LENGTH (ram1)
                0x2001c000                __ram1_end__ = (__ram1_base__ + __ram1_size__)
                0x2001c000                __ram2_base__ = ORIGIN (ram2)
                0x00004000                __ram2_size__ = LENGTH (ram2)
                0x20020000                __ram2_end__ = (__ram2_base__ + __ram2_size__)
                0x00000000                __ram3_base__ = ORIGIN (ram3)
                0x00000000                __ram3_size__ = LENGTH (ram3)
                0x00000000                __ram3_end__ = (__ram3_base__ + __ram3_size__)
                0x10000000                __ram4_base__ = ORIGIN (ram4)
                0x00010000                __ram4_size__ = LENGTH (ram4)
                0x10010000                __ram4_end__ = (__ram4_base__ + __ram4_size__)
                0x40024000                __ram5_base__ = ORIGIN (ram5)
                0x00001000                __ram5_size__ = LENGTH (ram5)
                0x40025000                __ram5_end__ = (__ram5_base__ + __ram5_size__)
                0x00000000                __ram6_base__ = ORIGIN (ram6)
                0x00000000                __ram6_size__ = LENGTH (ram6)
                0x00000000                __ram6_end__ = (__ram6_base__ + __ram6_size__)
                0x00000000                __ram7_base__ = ORIGIN (ram7)
                0x00000000                __ram7_size__ = LENGTH (ram7)
                0x00000000                __ram7_end__ = (__ram7_base__ + __ram7_size__)
                0x08000000                __flash0_base__ = ORIGIN (flash0)
                0x00100000                __flash0_size__ = LENGTH (flash0)
                0x08100000                __flash0_end__ = (__flash0_base__ + __flash0_size__)
                0x00000000                __flash1_base__ = ORIGIN (flash1)
                0x00000000                __flash1_size__ = LENGTH (flash1)
                0x00000000                __flash1_end__ = (__flash1_base__ + __flash1_size__)
                0x00000000                __flash2_base__ = ORIGIN (flash2)
                0x00000000                __flash2_size__ = LENGTH (flash2)
                0x00000000                __flash2_end__ = (__flash2_base__ + __flash2_size__)
                0x00000000                __flash3_base__ = ORIGIN (flash3)
                0x00000000                __flash3_size__ = LENGTH (flash3)
                0x00000000                __flash3_end__ = (__flash3_base__ + __flash3_size__)
                0x00000000                __flash4_base__ = ORIGIN (flash4)
                0x00000000                __flash4_size__ = LENGTH (flash4)
                0x00000000                __flash4_end__ = (__flash4_base__ + __flash4_size__)
                0x00000000                __flash5_base__ = ORIGIN (flash5)
                0x00000000                __flash5_size__ = LENGTH (flash5)
                0x00000000                __flash5_end__ = (__flash5_base__ + __flash5_size__)
                0x00000000                __flash6_base__ = ORIGIN (flash6)
                0x00000000                __flash6_size__ = LENGTH (flash6)
                0x00000000                __flash6_end__ = (__flash6_base__ + __flash6_size__)
                0x00000000                __flash7_base__ = ORIGIN (flash7)
                0x00000000                __flash7_size__ = LENGTH (flash7)
                0x00000000                __flash7_end__ = (__flash7_base__ + __flash7_size__)

.ram0_init      0x2000a074        0x0 load address 0x08011610
                0x08011610                __ram0_init_text__ = LOADADDR (.ram0_init)
                0x2000a074                __ram0_init__ = .
 *(.ram0_init)
 *(.ram0_init.*)
                0x2000a074                . = ALIGN (0x4)

.ram0           0x2000a074        0x0 load address 0x08011610
                0x2000a074                __ram0_clear__ = .
 *(.ram0_clear)
 *(.ram0_clear.*)
                0x2000a074                . = ALIGN (0x4)
                0x2000a074                __ram0_noinit__ = .
 *(.ram0)
 *(.ram0.*)
                0x2000a074                . = ALIGN (0x4)
                0x2000a074                __ram0_free__ = .

.ram1_init      0x20000000        0x0 load address 0x08011610
                0x08011610                __ram1_init_text__ = LOADADDR (.ram1_init)
                0x20000000                __ram1_init__ = .
 *(.ram1_init)
 *(.ram1_init.*)
                0x20000000                . = ALIGN (0x4)

.ram1           0x20000000        0x0 load address 0x08011610
                0x20000000                __ram1_clear__ = .
 *(.ram1_clear)
 *(.ram1_clear.*)
                0x20000000                . = ALIGN (0x4)
                0x20000000                __ram1_noinit__ = .
 *(.ram1)
 *(.ram1.*)
                0x20000000                . = ALIGN (0x4)
                0x20000000                __ram1_free__ = .

.ram2_init      0x2001c000        0x0 load address 0x08011610
                0x08011610                __ram2_init_text__ = LOADADDR (.ram2_init)
                0x2001c000                __ram2_init__ = .
 *(.ram2_init)
 *(.ram2_init.*)
                0x2001c000                . = ALIGN (0x4)

.ram2           0x2001c000        0x0 load address 0x08011610
                0x2001c000                __ram2_clear__ = .
 *(.ram2_clear)
 *(.ram2_clear.*)
                0x2001c000                . = ALIGN (0x4)
                0x2001c000                __ram2_noinit__ = .
 *(.ram2)
 *(.ram2.*)
                0x2001c000                . = ALIGN (0x4)
                0x2001c000                __ram2_free__ = .

.ram3_init      0x00000000        0x0 load address 0x08011610
                0x08011610                __ram3_init_text__ = LOADADDR (.ram3_init)
                0x00000000                __ram3_init__ = .
 *(.ram3_init)
 *(.ram3_init.*)
                0x00000000                . = ALIGN (0x4)

.ram3           0x00000000        0x0 load address 0x08011610
                0x00000000                __ram3_clear__ = .
 *(.ram3_clear)
 *(.ram3_clear.*)
                0x00000000                . = ALIGN (0x4)
                0x00000000                __ram3_noinit__ = .
 *(.ram3)
 *(.ram3.*)
                0x00000000                . = ALIGN (0x4)
                0x00000000                __ram3_free__ = .

.ram4_init      0x10000000        0x0 load address 0x08011610
                0x08011610                __ram4_init_text__ = LOADADDR (.ram4_init)
                0x10000000                __ram4_init__ = .
 *(.ram4_init)
 *(.ram4_init.*)
                0x10000000                . = ALIGN (0x4)

.ram4           0x10000000        0x0 load address 0x08011610
                0x10000000                __ram4_clear__ = .
 *(.ram4_clear)
 *(.ram4_clear.*)
                0x10000000                . = ALIGN (0x4)
                0x10000000                __ram4_noinit__ = .
 *(.ram4)
 *(.ram4.*)
                0x10000000                . = ALIGN (0x4)
                0x10000000                __ram4_free__ = .

.ram5_init      0x40024000        0x0 load address 0x08011610
                0x08011610                __ram5_init_text__ = LOADADDR (.ram5_init)
                0x40024000                __ram5_init__ = .
 *(.ram5_init)
 *(.ram5_init.*)
                0x40024000                . = ALIGN (0x4)

.ram5           0x40024000        0x0 load address 0x08011610
                0x40024000                __ram5_clear__ = .
 *(.ram5_clear)
 *(.ram5_clear.*)
                0x40024000                . = ALIGN (0x4)
                0x40024000                __ram5_noinit__ = .
 *(.ram5)
 *(.ram5.*)
                0x40024000                . = ALIGN (0x4)
                0x40024000                __ram5_free__ = .

.ram6_init      0x00000000        0x0 load address 0x08011610
                0x08011610                __ram6_init_text__ = LOADADDR (.ram6_init)
                0x00000000                __ram6_init__ = .
 *(.ram6_init)
 *(.ram6_init.*)
                0x00000000                . = ALIGN (0x4)

.ram6           0x00000000        0x0 load address 0x08011610
                0x00000000                __ram6_clear__ = .
 *(.ram6_clear)
 *(.ram6_clear.*)
                0x00000000                . = ALIGN (0x4)
                0x00000000                __ram6_noinit__ = .
 *(.ram6)
 *(.ram6.*)
                0x00000000                . = ALIGN (0x4)
                0x00000000                __ram6_free__ = .

.ram7_init      0x00000000        0x0 load address 0x08011610
                0x08011610                __ram7_init_text__ = LOADADDR (.ram7_init)
                0x00000000                __ram7_init__ = .
 *(.ram7_init)
 *(.ram7_init.*)
                0x00000000                . = ALIGN (0x4)

.ram7           0x00000000        0x0 load address 0x08011610
                0x00000000                __ram7_clear__ = .
 *(.ram7_clear)
 *(.ram7_clear.*)
                0x00000000                . = ALIGN (0x4)
                0x00000000                __ram7_noinit__ = .
 *(.ram7)
 *(.ram7.*)
                0x00000000                . = ALIGN (0x4)
                0x00000000                __ram7_free__ = .

.flash0         0x08011610        0x0
                0x08011610                __flash0_init__ = .
 *(.flash0_init)
 *(.flash0_init.*)
                0x08011610                __flash0_free__ = .

.flash1         0x00000000        0x0
                0x00000000                __flash1_init__ = .
 *(.flash1_init)
 *(.flash1_init.*)
                0x00000000                __flash1_free__ = .

.flash2         0x00000000        0x0
                0x00000000                __flash2_init__ = .
 *(.flash2_init)
 *(.flash2_init.*)
                0x00000000                __flash2_free__ = .

.flash3         0x00000000        0x0
                0x00000000                __flash3_init__ = .
 *(.flash3_init)
 *(.flash3_init.*)
                0x00000000                __flash3_free__ = .

.flash4         0x00000000        0x0
                0x00000000                __flash4_init__ = .
 *(.flash4_init)
 *(.flash4_init.*)
                0x00000000                __flash4_free__ = .

.flash5         0x00000000        0x0
                0x00000000                __flash5_init__ = .
 *(.flash5_init)
 *(.flash5_init.*)
                0x00000000                __flash5_free__ = .

.flash6         0x00000000        0x0
                0x00000000                __flash6_init__ = .
 *(.flash6_init)
 *(.flash6_init.*)
                0x00000000                __flash6_free__ = .

.flash7         0x00000000        0x0
                0x00000000                __flash7_init__ = .
 *(.flash7_init)
 *(.flash7_init.*)
                0x00000000                __flash7_free__ = .

.heap           0x2000a074    0x15f8c
                0x2000a078                . = ALIGN (0x8)
 *fill*         0x2000a074        0x4 
                0x2000a078                __heap_base__ = .
                0x20020000                . = (ORIGIN (HEAP_RAM) + LENGTH (HEAP_RAM))
 *fill*         0x2000a078    0x15f88 
                0x20020000                __heap_end__ = .
                0x00000400                __process_stack_size__ = 0x400
                0x00000400                __main_stack_size__ = 0x400
START GROUP
LOAD c:/chibistudio/tools/gnu tools arm embedded/11.3 2022.08/bin/../lib/gcc/arm-none-eabi/11.3.1/thumb/v7e-m/nofp\libgcc.a
LOAD c:/chibistudio/tools/gnu tools arm embedded/11.3 2022.08/bin/../lib/gcc/arm-none-eabi/11.3.1/thumb/v7e-m/nofp\libg_nano.a
LOAD c:/chibistudio/tools/gnu tools arm embedded/11.3 2022.08/bin/../lib/gcc/arm-none-eabi/11.3.1/thumb/v7e-m/nofp\libc_nano.a
END GROUP
START GROUP
LOAD c:/chibistudio/tools/gnu tools arm embedded/11.3 2022.08/bin/../lib/gcc/arm-none-eabi/11.3.1/thumb/v7e-m/nofp\libgcc.a
LOAD c:/chibistudio/tools/gnu tools arm embedded/11.3 2022.08/bin/../lib/gcc/arm-none-eabi/11.3.1/thumb/v7e-m/nofp\libc_nano.a
LOAD c:/chibistudio/tools/gnu tools arm embedded/11.3 2022.08/bin/../lib/gcc/arm-none-eabi/11.3.1/thumb/v7e-m/nofp\libnosys.a
END GROUP
START GROUP
LOAD c:/chibistudio/tools/gnu tools arm embedded/11.3 2022.08/bin/../lib/gcc/arm-none-eabi/11.3.1/thumb/v7e-m/nofp\libgcc.a
LOAD c:/chibistudio/tools/gnu tools arm embedded/11.3 2022.08/bin/../lib/gcc/arm-none-eabi/11.3.1/thumb/v7e-m/nofp\libc_nano.a
LOAD c:/chibistudio/tools/gnu tools arm embedded/11.3 2022.08/bin/../lib/gcc/arm-none-eabi/11.3.1/thumb/v7e-m/nofp\libnosys.a
END GROUP
OUTPUT(build/ch.elf elf32-littlearm)
LOAD linker stubs

.ARM.attributes
                0x00000000       0x2f
 .ARM.attributes
                0x00000000       0x21 ./build/obj/crt0_v7m.o
 .ARM.attributes
                0x00000021       0x21 ./build/obj/vectors.o
 .ARM.attributes
                0x00000042       0x21 ./build/obj/chcoreasm.o
 .ARM.attributes
                0x00000063       0x2c C:\Users\Ridwane\AppData\Local\Temp\ccG6qa3f.ltrans0.ltrans.o
 .ARM.attributes
                0x0000008f       0x2c C:\Users\Ridwane\AppData\Local\Temp\ccG6qa3f.ltrans1.ltrans.o
 .ARM.attributes
                0x000000bb       0x2e c:/chibistudio/tools/gnu tools arm embedded/11.3 2022.08/bin/../lib/gcc/arm-none-eabi/11.3.1/thumb/v7e-m/nofp\libg_nano.a(libc_a-rand.o)
 .ARM.attributes
                0x000000e9       0x2e c:/chibistudio/tools/gnu tools arm embedded/11.3 2022.08/bin/../lib/gcc/arm-none-eabi/11.3.1/thumb/v7e-m/nofp\libg_nano.a(libc_a-impure.o)
 .ARM.attributes
                0x00000117       0x2e c:/chibistudio/tools/gnu tools arm embedded/11.3 2022.08/bin/../lib/gcc/arm-none-eabi/11.3.1/thumb/v7e-m/nofp\libg_nano.a(libc_a-errno.o)
 .ARM.attributes
                0x00000145       0x2e c:/chibistudio/tools/gnu tools arm embedded/11.3 2022.08/bin/../lib/gcc/arm-none-eabi/11.3.1/thumb/v7e-m/nofp\libg_nano.a(libc_a-sysopen.o)
 .ARM.attributes
                0x00000173       0x2e c:/chibistudio/tools/gnu tools arm embedded/11.3 2022.08/bin/../lib/gcc/arm-none-eabi/11.3.1/thumb/v7e-m/nofp\libg_nano.a(libc_a-sysread.o)
 .ARM.attributes
                0x000001a1       0x2e c:/chibistudio/tools/gnu tools arm embedded/11.3 2022.08/bin/../lib/gcc/arm-none-eabi/11.3.1/thumb/v7e-m/nofp\libg_nano.a(libc_a-assert.o)
 .ARM.attributes
                0x000001cf       0x2e c:/chibistudio/tools/gnu tools arm embedded/11.3 2022.08/bin/../lib/gcc/arm-none-eabi/11.3.1/thumb/v7e-m/nofp\libg_nano.a(libc_a-malloc.o)
 .ARM.attributes
                0x000001fd       0x2e c:/chibistudio/tools/gnu tools arm embedded/11.3 2022.08/bin/../lib/gcc/arm-none-eabi/11.3.1/thumb/v7e-m/nofp\libg_nano.a(libc_a-mallocr.o)
 .ARM.attributes
                0x0000022b       0x2e c:/chibistudio/tools/gnu tools arm embedded/11.3 2022.08/bin/../lib/gcc/arm-none-eabi/11.3.1/thumb/v7e-m/nofp\libg_nano.a(libc_a-mlock.o)
 .ARM.attributes
                0x00000259       0x2e c:/chibistudio/tools/gnu tools arm embedded/11.3 2022.08/bin/../lib/gcc/arm-none-eabi/11.3.1/thumb/v7e-m/nofp\libg_nano.a(libc_a-fprintf.o)
 .ARM.attributes
                0x00000287       0x2e c:/chibistudio/tools/gnu tools arm embedded/11.3 2022.08/bin/../lib/gcc/arm-none-eabi/11.3.1/thumb/v7e-m/nofp\libg_nano.a(libc_a-lock.o)
 .ARM.attributes
                0x000002b5       0x2e c:/chibistudio/tools/gnu tools arm embedded/11.3 2022.08/bin/../lib/gcc/arm-none-eabi/11.3.1/thumb/v7e-m/nofp\libg_nano.a(libc_a-abort.o)
 .ARM.attributes
                0x000002e3       0x2e c:/chibistudio/tools/gnu tools arm embedded/11.3 2022.08/bin/../lib/gcc/arm-none-eabi/11.3.1/thumb/v7e-m/nofp\libg_nano.a(libc_a-freer.o)
 .ARM.attributes
                0x00000311       0x2e c:/chibistudio/tools/gnu tools arm embedded/11.3 2022.08/bin/../lib/gcc/arm-none-eabi/11.3.1/thumb/v7e-m/nofp\libg_nano.a(libc_a-nano-vfprintf.o)
 .ARM.attributes
                0x0000033f       0x2e c:/chibistudio/tools/gnu tools arm embedded/11.3 2022.08/bin/../lib/gcc/arm-none-eabi/11.3.1/thumb/v7e-m/nofp\libg_nano.a(libc_a-nano-vfprintf_i.o)
 .ARM.attributes
                0x0000036d       0x2e c:/chibistudio/tools/gnu tools arm embedded/11.3 2022.08/bin/../lib/gcc/arm-none-eabi/11.3.1/thumb/v7e-m/nofp\libg_nano.a(libc_a-findfp.o)
 .ARM.attributes
                0x0000039b       0x2e c:/chibistudio/tools/gnu tools arm embedded/11.3 2022.08/bin/../lib/gcc/arm-none-eabi/11.3.1/thumb/v7e-m/nofp\libg_nano.a(libc_a-fwalk.o)
 .ARM.attributes
                0x000003c9       0x2e c:/chibistudio/tools/gnu tools arm embedded/11.3 2022.08/bin/../lib/gcc/arm-none-eabi/11.3.1/thumb/v7e-m/nofp\libg_nano.a(libc_a-stdio.o)
 .ARM.attributes
                0x000003f7       0x2e c:/chibistudio/tools/gnu tools arm embedded/11.3 2022.08/bin/../lib/gcc/arm-none-eabi/11.3.1/thumb/v7e-m/nofp\libg_nano.a(libc_a-wbuf.o)
 .ARM.attributes
                0x00000425       0x2e c:/chibistudio/tools/gnu tools arm embedded/11.3 2022.08/bin/../lib/gcc/arm-none-eabi/11.3.1/thumb/v7e-m/nofp\libg_nano.a(libc_a-wsetup.o)
 .ARM.attributes
                0x00000453       0x2e c:/chibistudio/tools/gnu tools arm embedded/11.3 2022.08/bin/../lib/gcc/arm-none-eabi/11.3.1/thumb/v7e-m/nofp\libg_nano.a(libc_a-memset.o)
 .ARM.attributes
                0x00000481       0x2e c:/chibistudio/tools/gnu tools arm embedded/11.3 2022.08/bin/../lib/gcc/arm-none-eabi/11.3.1/thumb/v7e-m/nofp\libg_nano.a(libc_a-signal.o)
 .ARM.attributes
                0x000004af       0x2e c:/chibistudio/tools/gnu tools arm embedded/11.3 2022.08/bin/../lib/gcc/arm-none-eabi/11.3.1/thumb/v7e-m/nofp\libg_nano.a(libc_a-signalr.o)
 .ARM.attributes
                0x000004dd       0x1c c:/chibistudio/tools/gnu tools arm embedded/11.3 2022.08/bin/../lib/gcc/arm-none-eabi/11.3.1/thumb/v7e-m/nofp\libg_nano.a(libc_a-memchr.o)
 .ARM.attributes
                0x000004f9       0x2e c:/chibistudio/tools/gnu tools arm embedded/11.3 2022.08/bin/../lib/gcc/arm-none-eabi/11.3.1/thumb/v7e-m/nofp\libg_nano.a(libc_a-memcpy-stub.o)
 .ARM.attributes
                0x00000527       0x2e c:/chibistudio/tools/gnu tools arm embedded/11.3 2022.08/bin/../lib/gcc/arm-none-eabi/11.3.1/thumb/v7e-m/nofp\libg_nano.a(libc_a-fflush.o)
 .ARM.attributes
                0x00000555       0x2e c:/chibistudio/tools/gnu tools arm embedded/11.3 2022.08/bin/../lib/gcc/arm-none-eabi/11.3.1/thumb/v7e-m/nofp\libg_nano.a(libc_a-makebuf.o)
 .ARM.attributes
                0x00000583       0x2e c:/chibistudio/tools/gnu tools arm embedded/11.3 2022.08/bin/../lib/gcc/arm-none-eabi/11.3.1/thumb/v7e-m/nofp\libg_nano.a(libc_a-reent.o)
 .ARM.attributes
                0x000005b1       0x2e c:/chibistudio/tools/gnu tools arm embedded/11.3 2022.08/bin/../lib/gcc/arm-none-eabi/11.3.1/thumb/v7e-m/nofp\libg_nano.a(libc_a-memcmp.o)
 .ARM.attributes
                0x000005df       0x2e c:/chibistudio/tools/gnu tools arm embedded/11.3 2022.08/bin/../lib/gcc/arm-none-eabi/11.3.1/thumb/v7e-m/nofp\libg_nano.a(libc_a-strncmp.o)
 .ARM.attributes
                0x0000060d       0x1c c:/chibistudio/tools/gnu tools arm embedded/11.3 2022.08/bin/../lib/gcc/arm-none-eabi/11.3.1/thumb/v7e-m/nofp\libg_nano.a(libc_a-strcmp.o)

.comment        0x00000000       0x33
 .comment       0x00000000       0x34 C:\Users\Ridwane\AppData\Local\Temp\ccG6qa3f.ltrans0.ltrans.o
 .comment       0x00000000       0x34 C:\Users\Ridwane\AppData\Local\Temp\ccG6qa3f.ltrans1.ltrans.o
 .comment       0x00000000       0x33 c:/chibistudio/tools/gnu tools arm embedded/11.3 2022.08/bin/../lib/gcc/arm-none-eabi/11.3.1/thumb/v7e-m/nofp\libg_nano.a(libc_a-rand.o)
                                 0x34 (size before relaxing)
 .comment       0x00000033       0x34 c:/chibistudio/tools/gnu tools arm embedded/11.3 2022.08/bin/../lib/gcc/arm-none-eabi/11.3.1/thumb/v7e-m/nofp\libg_nano.a(libc_a-impure.o)
 .comment       0x00000033       0x34 c:/chibistudio/tools/gnu tools arm embedded/11.3 2022.08/bin/../lib/gcc/arm-none-eabi/11.3.1/thumb/v7e-m/nofp\libg_nano.a(libc_a-errno.o)
 .comment       0x00000033       0x34 c:/chibistudio/tools/gnu tools arm embedded/11.3 2022.08/bin/../lib/gcc/arm-none-eabi/11.3.1/thumb/v7e-m/nofp\libg_nano.a(libc_a-sysopen.o)
 .comment       0x00000033       0x34 c:/chibistudio/tools/gnu tools arm embedded/11.3 2022.08/bin/../lib/gcc/arm-none-eabi/11.3.1/thumb/v7e-m/nofp\libg_nano.a(libc_a-sysread.o)
 .comment       0x00000033       0x34 c:/chibistudio/tools/gnu tools arm embedded/11.3 2022.08/bin/../lib/gcc/arm-none-eabi/11.3.1/thumb/v7e-m/nofp\libg_nano.a(libc_a-assert.o)
 .comment       0x00000033       0x34 c:/chibistudio/tools/gnu tools arm embedded/11.3 2022.08/bin/../lib/gcc/arm-none-eabi/11.3.1/thumb/v7e-m/nofp\libg_nano.a(libc_a-malloc.o)
 .comment       0x00000033       0x34 c:/chibistudio/tools/gnu tools arm embedded/11.3 2022.08/bin/../lib/gcc/arm-none-eabi/11.3.1/thumb/v7e-m/nofp\libg_nano.a(libc_a-mallocr.o)
 .comment       0x00000033       0x34 c:/chibistudio/tools/gnu tools arm embedded/11.3 2022.08/bin/../lib/gcc/arm-none-eabi/11.3.1/thumb/v7e-m/nofp\libg_nano.a(libc_a-mlock.o)
 .comment       0x00000033       0x34 c:/chibistudio/tools/gnu tools arm embedded/11.3 2022.08/bin/../lib/gcc/arm-none-eabi/11.3.1/thumb/v7e-m/nofp\libg_nano.a(libc_a-fprintf.o)
 .comment       0x00000033       0x34 c:/chibistudio/tools/gnu tools arm embedded/11.3 2022.08/bin/../lib/gcc/arm-none-eabi/11.3.1/thumb/v7e-m/nofp\libg_nano.a(libc_a-lock.o)
 .comment       0x00000033       0x34 c:/chibistudio/tools/gnu tools arm embedded/11.3 2022.08/bin/../lib/gcc/arm-none-eabi/11.3.1/thumb/v7e-m/nofp\libg_nano.a(libc_a-abort.o)
 .comment       0x00000033       0x34 c:/chibistudio/tools/gnu tools arm embedded/11.3 2022.08/bin/../lib/gcc/arm-none-eabi/11.3.1/thumb/v7e-m/nofp\libg_nano.a(libc_a-freer.o)
 .comment       0x00000033       0x34 c:/chibistudio/tools/gnu tools arm embedded/11.3 2022.08/bin/../lib/gcc/arm-none-eabi/11.3.1/thumb/v7e-m/nofp\libg_nano.a(libc_a-nano-vfprintf.o)
 .comment       0x00000033       0x34 c:/chibistudio/tools/gnu tools arm embedded/11.3 2022.08/bin/../lib/gcc/arm-none-eabi/11.3.1/thumb/v7e-m/nofp\libg_nano.a(libc_a-nano-vfprintf_i.o)
 .comment       0x00000033       0x34 c:/chibistudio/tools/gnu tools arm embedded/11.3 2022.08/bin/../lib/gcc/arm-none-eabi/11.3.1/thumb/v7e-m/nofp\libg_nano.a(libc_a-findfp.o)
 .comment       0x00000033       0x34 c:/chibistudio/tools/gnu tools arm embedded/11.3 2022.08/bin/../lib/gcc/arm-none-eabi/11.3.1/thumb/v7e-m/nofp\libg_nano.a(libc_a-fwalk.o)
 .comment       0x00000033       0x34 c:/chibistudio/tools/gnu tools arm embedded/11.3 2022.08/bin/../lib/gcc/arm-none-eabi/11.3.1/thumb/v7e-m/nofp\libg_nano.a(libc_a-stdio.o)
 .comment       0x00000033       0x34 c:/chibistudio/tools/gnu tools arm embedded/11.3 2022.08/bin/../lib/gcc/arm-none-eabi/11.3.1/thumb/v7e-m/nofp\libg_nano.a(libc_a-wbuf.o)
 .comment       0x00000033       0x34 c:/chibistudio/tools/gnu tools arm embedded/11.3 2022.08/bin/../lib/gcc/arm-none-eabi/11.3.1/thumb/v7e-m/nofp\libg_nano.a(libc_a-wsetup.o)
 .comment       0x00000033       0x34 c:/chibistudio/tools/gnu tools arm embedded/11.3 2022.08/bin/../lib/gcc/arm-none-eabi/11.3.1/thumb/v7e-m/nofp\libg_nano.a(libc_a-memset.o)
 .comment       0x00000033       0x34 c:/chibistudio/tools/gnu tools arm embedded/11.3 2022.08/bin/../lib/gcc/arm-none-eabi/11.3.1/thumb/v7e-m/nofp\libg_nano.a(libc_a-signal.o)
 .comment       0x00000033       0x34 c:/chibistudio/tools/gnu tools arm embedded/11.3 2022.08/bin/../lib/gcc/arm-none-eabi/11.3.1/thumb/v7e-m/nofp\libg_nano.a(libc_a-signalr.o)
 .comment       0x00000033       0x34 c:/chibistudio/tools/gnu tools arm embedded/11.3 2022.08/bin/../lib/gcc/arm-none-eabi/11.3.1/thumb/v7e-m/nofp\libg_nano.a(libc_a-memcpy-stub.o)
 .comment       0x00000033       0x34 c:/chibistudio/tools/gnu tools arm embedded/11.3 2022.08/bin/../lib/gcc/arm-none-eabi/11.3.1/thumb/v7e-m/nofp\libg_nano.a(libc_a-fflush.o)
 .comment       0x00000033       0x34 c:/chibistudio/tools/gnu tools arm embedded/11.3 2022.08/bin/../lib/gcc/arm-none-eabi/11.3.1/thumb/v7e-m/nofp\libg_nano.a(libc_a-makebuf.o)
 .comment       0x00000033       0x34 c:/chibistudio/tools/gnu tools arm embedded/11.3 2022.08/bin/../lib/gcc/arm-none-eabi/11.3.1/thumb/v7e-m/nofp\libg_nano.a(libc_a-reent.o)
 .comment       0x00000033       0x34 c:/chibistudio/tools/gnu tools arm embedded/11.3 2022.08/bin/../lib/gcc/arm-none-eabi/11.3.1/thumb/v7e-m/nofp\libg_nano.a(libc_a-memcmp.o)
 .comment       0x00000033       0x34 c:/chibistudio/tools/gnu tools arm embedded/11.3 2022.08/bin/../lib/gcc/arm-none-eabi/11.3.1/thumb/v7e-m/nofp\libg_nano.a(libc_a-strncmp.o)

.debug_line     0x00000000    0x2c8e9
 .debug_line    0x00000000       0xa6 ./build/obj/crt0_v7m.o
 .debug_line    0x000000a6       0x4f ./build/obj/vectors.o
 .debug_line    0x000000f5       0x62 ./build/obj/chcoreasm.o
 .debug_line    0x00000157    0x1d0bd C:\Users\Ridwane\AppData\Local\Temp\ccG6qa3f.ltrans0.ltrans.o
 .debug_line    0x0001d214     0x789e C:\Users\Ridwane\AppData\Local\Temp\ccG6qa3f.ltrans1.ltrans.o
 .debug_line    0x00024ab2       0x4c C:\Users\Ridwane\AppData\Local\Temp\ccMjm6eA.debug.temp.o
 .debug_line    0x00024afe       0x6c C:\Users\Ridwane\AppData\Local\Temp\ccmIIEHO.debug.temp.o
 .debug_line    0x00024b6a       0x67 C:\Users\Ridwane\AppData\Local\Temp\ccGc6L52.debug.temp.o
 .debug_line    0x00024bd1       0xa4 C:\Users\Ridwane\AppData\Local\Temp\ccErrMDK.debug.temp.o
 .debug_line    0x00024c75       0xd4 C:\Users\Ridwane\AppData\Local\Temp\ccE1d85R.debug.temp.o
 .debug_line    0x00024d49       0x55 C:\Users\Ridwane\AppData\Local\Temp\ccgXiLxa.debug.temp.o
 .debug_line    0x00024d9e      0x176 C:\Users\Ridwane\AppData\Local\Temp\ccuIcoUs.debug.temp.o
 .debug_line    0x00024f14       0x68 C:\Users\Ridwane\AppData\Local\Temp\ccATrKuL.debug.temp.o
 .debug_line    0x00024f7c       0x56 C:\Users\Ridwane\AppData\Local\Temp\ccOI6H1X.debug.temp.o
 .debug_line    0x00024fd2       0x82 C:\Users\Ridwane\AppData\Local\Temp\ccsthxGf.debug.temp.o
 .debug_line    0x00025054       0xcb C:\Users\Ridwane\AppData\Local\Temp\ccYNgGnx.debug.temp.o
 .debug_line    0x0002511f       0x67 C:\Users\Ridwane\AppData\Local\Temp\ccghyo0O.debug.temp.o
 .debug_line    0x00025186       0xd2 C:\Users\Ridwane\AppData\Local\Temp\cccTChCo.debug.temp.o
 .debug_line    0x00025258       0x8f C:\Users\Ridwane\AppData\Local\Temp\ccWok8yG.debug.temp.o
 .debug_line    0x000252e7       0xa6 C:\Users\Ridwane\AppData\Local\Temp\ccGWqWvy.debug.temp.o
 .debug_line    0x0002538d       0x9d C:\Users\Ridwane\AppData\Local\Temp\ccyqppzQ.debug.temp.o
 .debug_line    0x0002542a       0xac C:\Users\Ridwane\AppData\Local\Temp\ccGGihE7.debug.temp.o
 .debug_line    0x000254d6       0xcc C:\Users\Ridwane\AppData\Local\Temp\ccGEczMo.debug.temp.o
 .debug_line    0x000255a2       0x9d C:\Users\Ridwane\AppData\Local\Temp\ccqI7pQF.debug.temp.o
 .debug_line    0x0002563f       0xb9 C:\Users\Ridwane\AppData\Local\Temp\ccQBiv5W.debug.temp.o
 .debug_line    0x000256f8       0xa2 C:\Users\Ridwane\AppData\Local\Temp\cc0Emute.debug.temp.o
 .debug_line    0x0002579a       0xa2 C:\Users\Ridwane\AppData\Local\Temp\ccOAwtMv.debug.temp.o
 .debug_line    0x0002583c       0xa7 C:\Users\Ridwane\AppData\Local\Temp\ccuW1bjN.debug.temp.o
 .debug_line    0x000258e3       0xa7 C:\Users\Ridwane\AppData\Local\Temp\ccUnytL4.debug.temp.o
 .debug_line    0x0002598a       0xa7 C:\Users\Ridwane\AppData\Local\Temp\ccyGUfgl.debug.temp.o
 .debug_line    0x00025a31       0xbe C:\Users\Ridwane\AppData\Local\Temp\cc46ELNB.debug.temp.o
 .debug_line    0x00025aef       0x97 C:\Users\Ridwane\AppData\Local\Temp\cckVnQrS.debug.temp.o
 .debug_line    0x00025b86       0x79 C:\Users\Ridwane\AppData\Local\Temp\ccczVU08.debug.temp.o
 .debug_line    0x00025bff       0xa1 C:\Users\Ridwane\AppData\Local\Temp\ccWCOINp.debug.temp.o
 .debug_line    0x00025ca0       0x97 C:\Users\Ridwane\AppData\Local\Temp\cciwwwvG.debug.temp.o
 .debug_line    0x00025d37       0xbd C:\Users\Ridwane\AppData\Local\Temp\ccgVACmX.debug.temp.o
 .debug_line    0x00025df4       0x88 C:\Users\Ridwane\AppData\Local\Temp\cc4M6tfe.debug.temp.o
 .debug_line    0x00025e7c       0xb4 C:\Users\Ridwane\AppData\Local\Temp\ccKmzVTy.debug.temp.o
 .debug_line    0x00025f30       0xc3 C:\Users\Ridwane\AppData\Local\Temp\ccExP4rT.debug.temp.o
 .debug_line    0x00025ff3       0xa2 C:\Users\Ridwane\AppData\Local\Temp\ccmYMode.debug.temp.o
 .debug_line    0x00026095       0x92 C:\Users\Ridwane\AppData\Local\Temp\ccUVh20y.debug.temp.o
 .debug_line    0x00026127       0x7a C:\Users\Ridwane\AppData\Local\Temp\cccZNeKT.debug.temp.o
 .debug_line    0x000261a1      0x107 C:\Users\Ridwane\AppData\Local\Temp\ccectBGe.debug.temp.o
 .debug_line    0x000262a8       0x75 C:\Users\Ridwane\AppData\Local\Temp\ccARztyz.debug.temp.o
 .debug_line    0x0002631d       0xae C:\Users\Ridwane\AppData\Local\Temp\cckXvOBU.debug.temp.o
 .debug_line    0x000263cb       0x8d C:\Users\Ridwane\AppData\Local\Temp\ccGSg9zf.debug.temp.o
 .debug_line    0x00026458       0xa9 C:\Users\Ridwane\AppData\Local\Temp\ccoV3xBz.debug.temp.o
 .debug_line    0x00026501       0xd5 C:\Users\Ridwane\AppData\Local\Temp\ccQ3RvyT.debug.temp.o
 .debug_line    0x000265d6       0xda C:\Users\Ridwane\AppData\Local\Temp\cc2lPDId.debug.temp.o
 .debug_line    0x000266b0       0xd9 C:\Users\Ridwane\AppData\Local\Temp\ccWGwkOx.debug.temp.o
 .debug_line    0x00026789       0xcc C:\Users\Ridwane\AppData\Local\Temp\ccKuQK7R.debug.temp.o
 .debug_line    0x00026855       0xc7 C:\Users\Ridwane\AppData\Local\Temp\cccbgbmc.debug.temp.o
 .debug_line    0x0002691c       0xd0 C:\Users\Ridwane\AppData\Local\Temp\ccueKkOw.debug.temp.o
 .debug_line    0x000269ec       0xd1 C:\Users\Ridwane\AppData\Local\Temp\cco72tbR.debug.temp.o
 .debug_line    0x00026abd       0xdf C:\Users\Ridwane\AppData\Local\Temp\ccE7nHBa.debug.temp.o
 .debug_line    0x00026b9c       0x75 C:\Users\Ridwane\AppData\Local\Temp\ccEdKtXt.debug.temp.o
 .debug_line    0x00026c11       0x75 C:\Users\Ridwane\AppData\Local\Temp\ccyWbAlN.debug.temp.o
 .debug_line    0x00026c86       0xad C:\Users\Ridwane\AppData\Local\Temp\cccPMQW6.debug.temp.o
 .debug_line    0x00026d33       0xbc C:\Users\Ridwane\AppData\Local\Temp\ccANoGtq.debug.temp.o
 .debug_line    0x00026def       0xcc C:\Users\Ridwane\AppData\Local\Temp\ccWygVbK.debug.temp.o
 .debug_line    0x00026ebb       0xc7 C:\Users\Ridwane\AppData\Local\Temp\ccU9W9O3.debug.temp.o
 .debug_line    0x00026f82       0xa4 C:\Users\Ridwane\AppData\Local\Temp\ccMnJIun.debug.temp.o
 .debug_line    0x00027026       0x92 C:\Users\Ridwane\AppData\Local\Temp\ccw1Q0nH.debug.temp.o
 .debug_line    0x000270b8       0xb8 C:\Users\Ridwane\AppData\Local\Temp\ccSuNic1.debug.temp.o
 .debug_line    0x00027170       0xcc C:\Users\Ridwane\AppData\Local\Temp\cc8APU2k.debug.temp.o
 .debug_line    0x0002723c       0x93 C:\Users\Ridwane\AppData\Local\Temp\ccKOTAWD.debug.temp.o
 .debug_line    0x000272cf      0x104 C:\Users\Ridwane\AppData\Local\Temp\cc4k1FNf.debug.temp.o
 .debug_line    0x000273d3       0x6a C:\Users\Ridwane\AppData\Local\Temp\ccUTgELy.debug.temp.o
 .debug_line    0x0002743d       0x4d C:\Users\Ridwane\AppData\Local\Temp\ccAZzsUR.debug.temp.o
 .debug_line    0x0002748a       0x56 C:\Users\Ridwane\AppData\Local\Temp\cc0aUPYa.debug.temp.o
 .debug_line    0x000274e0       0x52 C:\Users\Ridwane\AppData\Local\Temp\cciMzWgu.debug.temp.o
 .debug_line    0x00027532       0x5c C:\Users\Ridwane\AppData\Local\Temp\cckHRNAN.debug.temp.o
 .debug_line    0x0002758e       0x73 C:\Users\Ridwane\AppData\Local\Temp\cc8KreQ6.debug.temp.o
 .debug_line    0x00027601      0x313 c:/chibistudio/tools/gnu tools arm embedded/11.3 2022.08/bin/../lib/gcc/arm-none-eabi/11.3.1/thumb/v7e-m/nofp\libg_nano.a(libc_a-rand.o)
 .debug_line    0x00027914       0xfe c:/chibistudio/tools/gnu tools arm embedded/11.3 2022.08/bin/../lib/gcc/arm-none-eabi/11.3.1/thumb/v7e-m/nofp\libg_nano.a(libc_a-impure.o)
 .debug_line    0x00027a12      0x17d c:/chibistudio/tools/gnu tools arm embedded/11.3 2022.08/bin/../lib/gcc/arm-none-eabi/11.3.1/thumb/v7e-m/nofp\libg_nano.a(libc_a-errno.o)
 .debug_line    0x00027b8f      0x21e c:/chibistudio/tools/gnu tools arm embedded/11.3 2022.08/bin/../lib/gcc/arm-none-eabi/11.3.1/thumb/v7e-m/nofp\libg_nano.a(libc_a-sysopen.o)
 .debug_line    0x00027dad      0x1e8 c:/chibistudio/tools/gnu tools arm embedded/11.3 2022.08/bin/../lib/gcc/arm-none-eabi/11.3.1/thumb/v7e-m/nofp\libg_nano.a(libc_a-sysread.o)
 .debug_line    0x00027f95      0x228 c:/chibistudio/tools/gnu tools arm embedded/11.3 2022.08/bin/../lib/gcc/arm-none-eabi/11.3.1/thumb/v7e-m/nofp\libg_nano.a(libc_a-assert.o)
 .debug_line    0x000281bd      0x1fa c:/chibistudio/tools/gnu tools arm embedded/11.3 2022.08/bin/../lib/gcc/arm-none-eabi/11.3.1/thumb/v7e-m/nofp\libg_nano.a(libc_a-malloc.o)
 .debug_line    0x000283b7      0x4b1 c:/chibistudio/tools/gnu tools arm embedded/11.3 2022.08/bin/../lib/gcc/arm-none-eabi/11.3.1/thumb/v7e-m/nofp\libg_nano.a(libc_a-mallocr.o)
 .debug_line    0x00028868      0x1e6 c:/chibistudio/tools/gnu tools arm embedded/11.3 2022.08/bin/../lib/gcc/arm-none-eabi/11.3.1/thumb/v7e-m/nofp\libg_nano.a(libc_a-mlock.o)
 .debug_line    0x00028a4e      0x237 c:/chibistudio/tools/gnu tools arm embedded/11.3 2022.08/bin/../lib/gcc/arm-none-eabi/11.3.1/thumb/v7e-m/nofp\libg_nano.a(libc_a-fprintf.o)
 .debug_line    0x00028c85      0x105 c:/chibistudio/tools/gnu tools arm embedded/11.3 2022.08/bin/../lib/gcc/arm-none-eabi/11.3.1/thumb/v7e-m/nofp\libg_nano.a(libc_a-lock.o)
 .debug_line    0x00028d8a      0x16a c:/chibistudio/tools/gnu tools arm embedded/11.3 2022.08/bin/../lib/gcc/arm-none-eabi/11.3.1/thumb/v7e-m/nofp\libg_nano.a(libc_a-abort.o)
 .debug_line    0x00028ef4      0x301 c:/chibistudio/tools/gnu tools arm embedded/11.3 2022.08/bin/../lib/gcc/arm-none-eabi/11.3.1/thumb/v7e-m/nofp\libg_nano.a(libc_a-freer.o)
 .debug_line    0x000291f5      0x6e4 c:/chibistudio/tools/gnu tools arm embedded/11.3 2022.08/bin/../lib/gcc/arm-none-eabi/11.3.1/thumb/v7e-m/nofp\libg_nano.a(libc_a-nano-vfprintf.o)
 .debug_line    0x000298d9      0x73f c:/chibistudio/tools/gnu tools arm embedded/11.3 2022.08/bin/../lib/gcc/arm-none-eabi/11.3.1/thumb/v7e-m/nofp\libg_nano.a(libc_a-nano-vfprintf_i.o)
 .debug_line    0x0002a018      0x56b c:/chibistudio/tools/gnu tools arm embedded/11.3 2022.08/bin/../lib/gcc/arm-none-eabi/11.3.1/thumb/v7e-m/nofp\libg_nano.a(libc_a-findfp.o)
 .debug_line    0x0002a583      0x232 c:/chibistudio/tools/gnu tools arm embedded/11.3 2022.08/bin/../lib/gcc/arm-none-eabi/11.3.1/thumb/v7e-m/nofp\libg_nano.a(libc_a-fwalk.o)
 .debug_line    0x0002a7b5      0x2e2 c:/chibistudio/tools/gnu tools arm embedded/11.3 2022.08/bin/../lib/gcc/arm-none-eabi/11.3.1/thumb/v7e-m/nofp\libg_nano.a(libc_a-stdio.o)
 .debug_line    0x0002aa97      0x2d2 c:/chibistudio/tools/gnu tools arm embedded/11.3 2022.08/bin/../lib/gcc/arm-none-eabi/11.3.1/thumb/v7e-m/nofp\libg_nano.a(libc_a-wbuf.o)
 .debug_line    0x0002ad69      0x304 c:/chibistudio/tools/gnu tools arm embedded/11.3 2022.08/bin/../lib/gcc/arm-none-eabi/11.3.1/thumb/v7e-m/nofp\libg_nano.a(libc_a-wsetup.o)
 .debug_line    0x0002b06d      0x176 c:/chibistudio/tools/gnu tools arm embedded/11.3 2022.08/bin/../lib/gcc/arm-none-eabi/11.3.1/thumb/v7e-m/nofp\libg_nano.a(libc_a-memset.o)
 .debug_line    0x0002b1e3      0x439 c:/chibistudio/tools/gnu tools arm embedded/11.3 2022.08/bin/../lib/gcc/arm-none-eabi/11.3.1/thumb/v7e-m/nofp\libg_nano.a(libc_a-signal.o)
 .debug_line    0x0002b61c      0x245 c:/chibistudio/tools/gnu tools arm embedded/11.3 2022.08/bin/../lib/gcc/arm-none-eabi/11.3.1/thumb/v7e-m/nofp\libg_nano.a(libc_a-signalr.o)
 .debug_line    0x0002b861       0x82 c:/chibistudio/tools/gnu tools arm embedded/11.3 2022.08/bin/../lib/gcc/arm-none-eabi/11.3.1/thumb/v7e-m/nofp\libg_nano.a(libc_a-memchr.o)
 .debug_line    0x0002b8e3      0x191 c:/chibistudio/tools/gnu tools arm embedded/11.3 2022.08/bin/../lib/gcc/arm-none-eabi/11.3.1/thumb/v7e-m/nofp\libg_nano.a(libc_a-memcpy-stub.o)
 .debug_line    0x0002ba74      0x473 c:/chibistudio/tools/gnu tools arm embedded/11.3 2022.08/bin/../lib/gcc/arm-none-eabi/11.3.1/thumb/v7e-m/nofp\libg_nano.a(libc_a-fflush.o)
 .debug_line    0x0002bee7      0x3b0 c:/chibistudio/tools/gnu tools arm embedded/11.3 2022.08/bin/../lib/gcc/arm-none-eabi/11.3.1/thumb/v7e-m/nofp\libg_nano.a(libc_a-makebuf.o)
 .debug_line    0x0002c297      0x2dd c:/chibistudio/tools/gnu tools arm embedded/11.3 2022.08/bin/../lib/gcc/arm-none-eabi/11.3.1/thumb/v7e-m/nofp\libg_nano.a(libc_a-reent.o)
 .debug_line    0x0002c574      0x195 c:/chibistudio/tools/gnu tools arm embedded/11.3 2022.08/bin/../lib/gcc/arm-none-eabi/11.3.1/thumb/v7e-m/nofp\libg_nano.a(libc_a-memcmp.o)
 .debug_line    0x0002c709      0x190 c:/chibistudio/tools/gnu tools arm embedded/11.3 2022.08/bin/../lib/gcc/arm-none-eabi/11.3.1/thumb/v7e-m/nofp\libg_nano.a(libc_a-strncmp.o)
 .debug_line    0x0002c899       0x50 c:/chibistudio/tools/gnu tools arm embedded/11.3 2022.08/bin/../lib/gcc/arm-none-eabi/11.3.1/thumb/v7e-m/nofp\libg_nano.a(libc_a-strcmp.o)

.debug_line_str
                0x00000000     0x1afe
 .debug_line_str
                0x00000000       0x75 ./build/obj/crt0_v7m.o
                                 0x80 (size before relaxing)
 .debug_line_str
                0x00000075        0xa ./build/obj/vectors.o
                                 0x7e (size before relaxing)
 .debug_line_str
                0x0000007f       0x44 ./build/obj/chcoreasm.o
                                 0x81 (size before relaxing)
 .debug_line_str
                0x000000c3      0x105 C:\Users\Ridwane\AppData\Local\Temp\ccMjm6eA.debug.temp.o
                                0x176 (size before relaxing)
 .debug_line_str
                0x000001c8      0x15d C:\Users\Ridwane\AppData\Local\Temp\ccmIIEHO.debug.temp.o
                                0x194 (size before relaxing)
 .debug_line_str
                0x00000325       0xca C:\Users\Ridwane\AppData\Local\Temp\ccGc6L52.debug.temp.o
                                0x1e6 (size before relaxing)
 .debug_line_str
                0x000003ef      0x1a0 C:\Users\Ridwane\AppData\Local\Temp\ccErrMDK.debug.temp.o
                                0x336 (size before relaxing)
 .debug_line_str
                0x0000058f      0x115 C:\Users\Ridwane\AppData\Local\Temp\ccE1d85R.debug.temp.o
                                0x3ca (size before relaxing)
 .debug_line_str
                0x000006a4       0x6c C:\Users\Ridwane\AppData\Local\Temp\ccgXiLxa.debug.temp.o
                                0x1a0 (size before relaxing)
 .debug_line_str
                0x00000710      0x2bc C:\Users\Ridwane\AppData\Local\Temp\ccuIcoUs.debug.temp.o
                                0x689 (size before relaxing)
 .debug_line_str
                0x000009cc       0x58 C:\Users\Ridwane\AppData\Local\Temp\ccATrKuL.debug.temp.o
                                0x204 (size before relaxing)
 .debug_line_str
                0x00000a24       0x4b C:\Users\Ridwane\AppData\Local\Temp\ccOI6H1X.debug.temp.o
                                0x18d (size before relaxing)
 .debug_line_str
                0x00000a6f       0x40 C:\Users\Ridwane\AppData\Local\Temp\ccsthxGf.debug.temp.o
                                0x2b6 (size before relaxing)
 .debug_line_str
                0x00000aaf       0x42 C:\Users\Ridwane\AppData\Local\Temp\ccYNgGnx.debug.temp.o
                                0x3c0 (size before relaxing)
 .debug_line_str
                0x00000af1       0x3d C:\Users\Ridwane\AppData\Local\Temp\ccghyo0O.debug.temp.o
                                0x227 (size before relaxing)
 .debug_line_str
                0x00000b2e       0xac C:\Users\Ridwane\AppData\Local\Temp\cccTChCo.debug.temp.o
                                0x346 (size before relaxing)
 .debug_line_str
                0x00000bda       0x25 C:\Users\Ridwane\AppData\Local\Temp\ccWok8yG.debug.temp.o
                                0x21e (size before relaxing)
 .debug_line_str
                0x00000bff       0x32 C:\Users\Ridwane\AppData\Local\Temp\ccGWqWvy.debug.temp.o
                                0x298 (size before relaxing)
 .debug_line_str
                0x00000c31       0x25 C:\Users\Ridwane\AppData\Local\Temp\ccyqppzQ.debug.temp.o
                                0x268 (size before relaxing)
 .debug_line_str
                0x00000c56       0x37 C:\Users\Ridwane\AppData\Local\Temp\ccGGihE7.debug.temp.o
                                0x283 (size before relaxing)
 .debug_line_str
                0x00000c8d       0x35 C:\Users\Ridwane\AppData\Local\Temp\ccGEczMo.debug.temp.o
                                0x367 (size before relaxing)
 .debug_line_str
                0x00000cc2       0x23 C:\Users\Ridwane\AppData\Local\Temp\ccqI7pQF.debug.temp.o
                                0x263 (size before relaxing)
 .debug_line_str
                0x00000ce5       0x29 C:\Users\Ridwane\AppData\Local\Temp\ccQBiv5W.debug.temp.o
                                0x348 (size before relaxing)
 .debug_line_str
                0x00000d0e       0x24 C:\Users\Ridwane\AppData\Local\Temp\cc0Emute.debug.temp.o
                                0x274 (size before relaxing)
 .debug_line_str
                0x00000d32       0x24 C:\Users\Ridwane\AppData\Local\Temp\ccOAwtMv.debug.temp.o
                                0x274 (size before relaxing)
 .debug_line_str
                0x00000d56       0x2e C:\Users\Ridwane\AppData\Local\Temp\ccuW1bjN.debug.temp.o
                                0x27f (size before relaxing)
 .debug_line_str
                0x00000d84       0x27 C:\Users\Ridwane\AppData\Local\Temp\ccUnytL4.debug.temp.o
                                0x285 (size before relaxing)
 .debug_line_str
                0x00000dab       0x2c C:\Users\Ridwane\AppData\Local\Temp\ccyGUfgl.debug.temp.o
                                0x27c (size before relaxing)
 .debug_line_str
                0x00000dd7       0x28 C:\Users\Ridwane\AppData\Local\Temp\cc46ELNB.debug.temp.o
                                0x32c (size before relaxing)
 .debug_line_str
                0x00000dff       0x54 C:\Users\Ridwane\AppData\Local\Temp\cckVnQrS.debug.temp.o
                                0x2bb (size before relaxing)
 .debug_line_str
                0x00000e53       0x2b C:\Users\Ridwane\AppData\Local\Temp\ccczVU08.debug.temp.o
                                0x280 (size before relaxing)
 .debug_line_str
                0x00000e7e       0x2c C:\Users\Ridwane\AppData\Local\Temp\ccWCOINp.debug.temp.o
                                0x2c7 (size before relaxing)
 .debug_line_str
                0x00000eaa       0x2c C:\Users\Ridwane\AppData\Local\Temp\cciwwwvG.debug.temp.o
                                0x2bd (size before relaxing)
 .debug_line_str
                0x00000ed6       0x33 C:\Users\Ridwane\AppData\Local\Temp\ccgVACmX.debug.temp.o
                                0x36a (size before relaxing)
 .debug_line_str
                0x00000f09       0x3b C:\Users\Ridwane\AppData\Local\Temp\cc4M6tfe.debug.temp.o
                                0x2a2 (size before relaxing)
 .debug_line_str
                0x00000f44       0x4f C:\Users\Ridwane\AppData\Local\Temp\ccKmzVTy.debug.temp.o
                                0x31c (size before relaxing)
 .debug_line_str
                0x00000f93       0x38 C:\Users\Ridwane\AppData\Local\Temp\ccExP4rT.debug.temp.o
                                0x358 (size before relaxing)
 .debug_line_str
                0x00000fcb       0x33 C:\Users\Ridwane\AppData\Local\Temp\ccmYMode.debug.temp.o
                                0x29a (size before relaxing)
 .debug_line_str
                0x00000ffe       0x80 C:\Users\Ridwane\AppData\Local\Temp\ccUVh20y.debug.temp.o
                                0x292 (size before relaxing)
 .debug_line_str
                0x0000107e       0x2f C:\Users\Ridwane\AppData\Local\Temp\cccZNeKT.debug.temp.o
                                0x254 (size before relaxing)
 .debug_line_str
                0x000010ad      0x17e C:\Users\Ridwane\AppData\Local\Temp\ccectBGe.debug.temp.o
                                0x4a8 (size before relaxing)
 .debug_line_str
                0x0000122b       0x3d C:\Users\Ridwane\AppData\Local\Temp\ccARztyz.debug.temp.o
                                0x273 (size before relaxing)
 .debug_line_str
                0x00001268       0x3d C:\Users\Ridwane\AppData\Local\Temp\cckXvOBU.debug.temp.o
                                0x35a (size before relaxing)
 .debug_line_str
                0x000012a5       0x3d C:\Users\Ridwane\AppData\Local\Temp\ccGSg9zf.debug.temp.o
                                0x2c0 (size before relaxing)
 .debug_line_str
                0x000012e2       0x3d C:\Users\Ridwane\AppData\Local\Temp\ccoV3xBz.debug.temp.o
                                0x34d (size before relaxing)
 .debug_line_str
                0x0000131f       0x3d C:\Users\Ridwane\AppData\Local\Temp\ccQ3RvyT.debug.temp.o
                                0x3c9 (size before relaxing)
 .debug_line_str
                0x0000135c       0x3d C:\Users\Ridwane\AppData\Local\Temp\cc2lPDId.debug.temp.o
                                0x3d2 (size before relaxing)
 .debug_line_str
                0x00001399       0x46 C:\Users\Ridwane\AppData\Local\Temp\ccWGwkOx.debug.temp.o
                                0x3e6 (size before relaxing)
 .debug_line_str
                0x000013df       0x3d C:\Users\Ridwane\AppData\Local\Temp\ccKuQK7R.debug.temp.o
                                0x397 (size before relaxing)
 .debug_line_str
                0x0000141c       0x3d C:\Users\Ridwane\AppData\Local\Temp\cccbgbmc.debug.temp.o
                                0x38d (size before relaxing)
 .debug_line_str
                0x00001459       0x3d C:\Users\Ridwane\AppData\Local\Temp\ccueKkOw.debug.temp.o
                                0x3bc (size before relaxing)
 .debug_line_str
                0x00001496       0x49 C:\Users\Ridwane\AppData\Local\Temp\cco72tbR.debug.temp.o
                                0x397 (size before relaxing)
 .debug_line_str
                0x000014df       0x3d C:\Users\Ridwane\AppData\Local\Temp\ccE7nHBa.debug.temp.o
                                0x3da (size before relaxing)
 .debug_line_str
                0x0000151c      0x160 C:\Users\Ridwane\AppData\Local\Temp\ccEdKtXt.debug.temp.o
                                0x1cf (size before relaxing)
 .debug_line_str
                0x0000167c       0x43 C:\Users\Ridwane\AppData\Local\Temp\ccyWbAlN.debug.temp.o
                                0x282 (size before relaxing)
 .debug_line_str
                0x000016bf       0x43 C:\Users\Ridwane\AppData\Local\Temp\cccPMQW6.debug.temp.o
                                0x379 (size before relaxing)
 .debug_line_str
                0x00001702       0x43 C:\Users\Ridwane\AppData\Local\Temp\ccANoGtq.debug.temp.o
                                0x3b3 (size before relaxing)
 .debug_line_str
                0x00001745       0x4c C:\Users\Ridwane\AppData\Local\Temp\ccWygVbK.debug.temp.o
                                0x392 (size before relaxing)
 .debug_line_str
                0x00001791       0x43 C:\Users\Ridwane\AppData\Local\Temp\ccU9W9O3.debug.temp.o
                                0x387 (size before relaxing)
 .debug_line_str
                0x000017d4       0x43 C:\Users\Ridwane\AppData\Local\Temp\ccMnJIun.debug.temp.o
                                0x34c (size before relaxing)
 .debug_line_str
                0x00001817       0x43 C:\Users\Ridwane\AppData\Local\Temp\ccw1Q0nH.debug.temp.o
                                0x2d9 (size before relaxing)
 .debug_line_str
                0x0000185a       0x43 C:\Users\Ridwane\AppData\Local\Temp\ccSuNic1.debug.temp.o
                                0x36a (size before relaxing)
 .debug_line_str
                0x0000189d       0x43 C:\Users\Ridwane\AppData\Local\Temp\cc8APU2k.debug.temp.o
                                0x398 (size before relaxing)
 .debug_line_str
                0x000018e0       0x7b C:\Users\Ridwane\AppData\Local\Temp\ccKOTAWD.debug.temp.o
                                0x29b (size before relaxing)
 .debug_line_str
                0x0000195b       0x13 C:\Users\Ridwane\AppData\Local\Temp\cc4k1FNf.debug.temp.o
                                0x477 (size before relaxing)
 .debug_line_str
                0x0000196e       0x3a C:\Users\Ridwane\AppData\Local\Temp\ccUTgELy.debug.temp.o
                                0x197 (size before relaxing)
 .debug_line_str
                0x000019a8       0x12 C:\Users\Ridwane\AppData\Local\Temp\ccAZzsUR.debug.temp.o
                                0x108 (size before relaxing)
 .debug_line_str
                0x000019ba        0xa C:\Users\Ridwane\AppData\Local\Temp\cc0aUPYa.debug.temp.o
                                0x171 (size before relaxing)
 .debug_line_str
                0x000019c4        0xa C:\Users\Ridwane\AppData\Local\Temp\cciMzWgu.debug.temp.o
                                0x111 (size before relaxing)
 .debug_line_str
                0x000019ce       0x10 C:\Users\Ridwane\AppData\Local\Temp\cckHRNAN.debug.temp.o
                                0x120 (size before relaxing)
 .debug_line_str
                0x000019de       0x30 C:\Users\Ridwane\AppData\Local\Temp\cc8KreQ6.debug.temp.o
                                0x1f6 (size before relaxing)
 .debug_line_str
                0x00001a0e       0xde c:/chibistudio/tools/gnu tools arm embedded/11.3 2022.08/bin/../lib/gcc/arm-none-eabi/11.3.1/thumb/v7e-m/nofp\libg_nano.a(libc_a-memchr.o)
                                 0xe7 (size before relaxing)
 .debug_line_str
                0x00001aec       0x12 c:/chibistudio/tools/gnu tools arm embedded/11.3 2022.08/bin/../lib/gcc/arm-none-eabi/11.3.1/thumb/v7e-m/nofp\libg_nano.a(libc_a-strcmp.o)
                                 0xf9 (size before relaxing)

.debug_info     0x00000000    0x6cd9a
 .debug_info    0x00000000       0x25 ./build/obj/crt0_v7m.o
 .debug_info    0x00000025       0x24 ./build/obj/vectors.o
 .debug_info    0x00000049       0x24 ./build/obj/chcoreasm.o
 .debug_info    0x0000006d    0x2ad66 C:\Users\Ridwane\AppData\Local\Temp\ccG6qa3f.ltrans0.ltrans.o
 .debug_info    0x0002add3     0xb190 C:\Users\Ridwane\AppData\Local\Temp\ccG6qa3f.ltrans1.ltrans.o
 .debug_info    0x00035f63      0x296 C:\Users\Ridwane\AppData\Local\Temp\ccMjm6eA.debug.temp.o
                0x00035f63                crt1.c.cd6fc941
 .debug_info    0x000361f9       0xb3 C:\Users\Ridwane\AppData\Local\Temp\ccmIIEHO.debug.temp.o
                0x000361f9                hal.c.98cb26bd
 .debug_info    0x000362ac      0x2e2 C:\Users\Ridwane\AppData\Local\Temp\ccGc6L52.debug.temp.o
                0x000362ac                hal_st.c.22b8dabc
 .debug_info    0x0003658e      0x83f C:\Users\Ridwane\AppData\Local\Temp\ccErrMDK.debug.temp.o
                0x0003658e                hal_queues.c.cc6d76c1
 .debug_info    0x00036dcd     0x120f C:\Users\Ridwane\AppData\Local\Temp\ccE1d85R.debug.temp.o
                0x00036dcd                hal_serial.c.c818b30e
 .debug_info    0x00037fdc      0x45b C:\Users\Ridwane\AppData\Local\Temp\ccgXiLxa.debug.temp.o
                0x00037fdc                nvic.c.5d57f6da
 .debug_info    0x00038437      0xdee C:\Users\Ridwane\AppData\Local\Temp\ccuIcoUs.debug.temp.o
                0x00038437                stm32_isr.c.0c0b6884
 .debug_info    0x00039225      0x55b C:\Users\Ridwane\AppData\Local\Temp\ccATrKuL.debug.temp.o
                0x00039225                hal_lld.c.7885cef6
 .debug_info    0x00039780      0x248 C:\Users\Ridwane\AppData\Local\Temp\ccOI6H1X.debug.temp.o
                0x00039780                hal_pal_lld.c.36f076d4
 .debug_info    0x000399c8      0x4d1 C:\Users\Ridwane\AppData\Local\Temp\ccsthxGf.debug.temp.o
                0x000399c8                hal_st_lld.c.c2e7e402
 .debug_info    0x00039e99     0x105c C:\Users\Ridwane\AppData\Local\Temp\ccYNgGnx.debug.temp.o
                0x00039e99                hal_serial_lld.c.f13e4308
 .debug_info    0x0003aef5      0x478 C:\Users\Ridwane\AppData\Local\Temp\ccghyo0O.debug.temp.o
                0x0003aef5                board.c.2b0d070b
 .debug_info    0x0003b36d      0xdb5 C:\Users\Ridwane\AppData\Local\Temp\cccTChCo.debug.temp.o
                0x0003b36d                chsys.c.0617e8e0
 .debug_info    0x0003c122      0x753 C:\Users\Ridwane\AppData\Local\Temp\ccWok8yG.debug.temp.o
                0x0003c122                chrfcu.c.c7969ed8
 .debug_info    0x0003c875      0xdc4 C:\Users\Ridwane\AppData\Local\Temp\ccGWqWvy.debug.temp.o
                0x0003c875                chvt.c.2359b34f
 .debug_info    0x0003d639      0xc69 C:\Users\Ridwane\AppData\Local\Temp\ccyqppzQ.debug.temp.o
                0x0003d639                chschd.c.86e79446
 .debug_info    0x0003e2a2      0xc1d C:\Users\Ridwane\AppData\Local\Temp\ccGGihE7.debug.temp.o
                0x0003e2a2                chinstances.c.3a410b6c
 .debug_info    0x0003eebf     0x10ee C:\Users\Ridwane\AppData\Local\Temp\ccGEczMo.debug.temp.o
                0x0003eebf                chthreads.c.18757f10
 .debug_info    0x0003ffad      0xa75 C:\Users\Ridwane\AppData\Local\Temp\ccqI7pQF.debug.temp.o
                0x0003ffad                chtm.c.58ef772a
 .debug_info    0x00040a22      0xba7 C:\Users\Ridwane\AppData\Local\Temp\ccQBiv5W.debug.temp.o
                0x00040a22                chregistry.c.42f5f782
 .debug_info    0x000415c9      0xb2d C:\Users\Ridwane\AppData\Local\Temp\cc0Emute.debug.temp.o
                0x000415c9                chsem.c.f064d69e
 .debug_info    0x000420f6      0xa70 C:\Users\Ridwane\AppData\Local\Temp\ccOAwtMv.debug.temp.o
                0x000420f6                chmtx.c.ffd45bea
 .debug_info    0x00042b66      0xab4 C:\Users\Ridwane\AppData\Local\Temp\ccuW1bjN.debug.temp.o
                0x00042b66                chcond.c.93e344b4
 .debug_info    0x0004361a      0xd0d C:\Users\Ridwane\AppData\Local\Temp\ccUnytL4.debug.temp.o
                0x0004361a                chevents.c.ce959448
 .debug_info    0x00044327      0x95f C:\Users\Ridwane\AppData\Local\Temp\ccyGUfgl.debug.temp.o
                0x00044327                chmsg.c.aeca3615
 .debug_info    0x00044c86      0xaeb C:\Users\Ridwane\AppData\Local\Temp\cc46ELNB.debug.temp.o
                0x00044c86                chdynamic.c.9ed1ec2e
 .debug_info    0x00045771      0x610 C:\Users\Ridwane\AppData\Local\Temp\cckVnQrS.debug.temp.o
                0x00045771                chmboxes.c.90e6b26f
 .debug_info    0x00045d81      0x2ce C:\Users\Ridwane\AppData\Local\Temp\ccczVU08.debug.temp.o
                0x00045d81                chmemcore.c.b86b97a6
 .debug_info    0x0004604f      0xa27 C:\Users\Ridwane\AppData\Local\Temp\ccWCOINp.debug.temp.o
                0x0004604f                chmemheaps.c.4e76e883
 .debug_info    0x00046a76      0x5ac C:\Users\Ridwane\AppData\Local\Temp\cciwwwvG.debug.temp.o
                0x00046a76                chmempools.c.93d96411
 .debug_info    0x00047022      0xb20 C:\Users\Ridwane\AppData\Local\Temp\ccgVACmX.debug.temp.o
                0x00047022                chpipes.c.beca24ab
 .debug_info    0x00047b42      0x692 C:\Users\Ridwane\AppData\Local\Temp\cc4M6tfe.debug.temp.o
                0x00047b42                chobjcaches.c.992f4ac2
 .debug_info    0x000481d4      0xb58 C:\Users\Ridwane\AppData\Local\Temp\ccKmzVTy.debug.temp.o
                0x000481d4                chdelegates.c.1a18d48d
 .debug_info    0x00048d2c     0x14cc C:\Users\Ridwane\AppData\Local\Temp\ccExP4rT.debug.temp.o
                0x00048d2c                chfactory.c.613ce71c
 .debug_info    0x0004a1f8      0xfad C:\Users\Ridwane\AppData\Local\Temp\ccmYMode.debug.temp.o
                0x0004a1f8                chcore.c.540d11dd
 .debug_info    0x0004b1a5      0x6da C:\Users\Ridwane\AppData\Local\Temp\ccUVh20y.debug.temp.o
                0x0004b1a5                ch_test.c.94a846e5
 .debug_info    0x0004b87f      0x468 C:\Users\Ridwane\AppData\Local\Temp\cccZNeKT.debug.temp.o
                0x0004b87f                ch_test_printf.c.93746ef5
 .debug_info    0x0004bce7      0xa24 C:\Users\Ridwane\AppData\Local\Temp\ccectBGe.debug.temp.o
                0x0004bce7                rt_test_root.c.dadc3252
 .debug_info    0x0004c70b      0x3f8 C:\Users\Ridwane\AppData\Local\Temp\ccARztyz.debug.temp.o
                0x0004c70b                rt_test_sequence_001.c.7d2e8943
 .debug_info    0x0004cb03      0x7ab C:\Users\Ridwane\AppData\Local\Temp\cckXvOBU.debug.temp.o
                0x0004cb03                rt_test_sequence_002.c.56cfd605
 .debug_info    0x0004d2ae      0x440 C:\Users\Ridwane\AppData\Local\Temp\ccGSg9zf.debug.temp.o
                0x0004d2ae                rt_test_sequence_003.c.35f9f426
 .debug_info    0x0004d6ee      0x560 C:\Users\Ridwane\AppData\Local\Temp\ccoV3xBz.debug.temp.o
                0x0004d6ee                rt_test_sequence_004.c.2727bf0a
 .debug_info    0x0004dc4e      0xc51 C:\Users\Ridwane\AppData\Local\Temp\ccQ3RvyT.debug.temp.o
                0x0004dc4e                rt_test_sequence_005.c.1a7a3b8c
 .debug_info    0x0004e89f      0xbde C:\Users\Ridwane\AppData\Local\Temp\cc2lPDId.debug.temp.o
                0x0004e89f                rt_test_sequence_006.c.38f9e5a5
 .debug_info    0x0004f47d      0xf05 C:\Users\Ridwane\AppData\Local\Temp\ccWGwkOx.debug.temp.o
                0x0004f47d                rt_test_sequence_007.c.ee1cfd11
 .debug_info    0x00050382      0xe31 C:\Users\Ridwane\AppData\Local\Temp\ccKuQK7R.debug.temp.o
                0x00050382                rt_test_sequence_008.c.6c87390a
 .debug_info    0x000511b3      0xbb6 C:\Users\Ridwane\AppData\Local\Temp\cccbgbmc.debug.temp.o
                0x000511b3                rt_test_sequence_009.c.785fef10
 .debug_info    0x00051d69      0xff0 C:\Users\Ridwane\AppData\Local\Temp\ccueKkOw.debug.temp.o
                0x00051d69                rt_test_sequence_010.c.11e0820c
 .debug_info    0x00052d59      0xdef C:\Users\Ridwane\AppData\Local\Temp\cco72tbR.debug.temp.o
                0x00052d59                rt_test_sequence_011.c.edd730b2
 .debug_info    0x00053b48     0x1212 C:\Users\Ridwane\AppData\Local\Temp\ccE7nHBa.debug.temp.o
                0x00053b48                rt_test_sequence_012.c.9d2b9584
 .debug_info    0x00054d5a      0x1ee C:\Users\Ridwane\AppData\Local\Temp\ccEdKtXt.debug.temp.o
                0x00054d5a                oslib_test_root.c.fe47f9f5
 .debug_info    0x00054f48      0x3f3 C:\Users\Ridwane\AppData\Local\Temp\ccyWbAlN.debug.temp.o
                0x00054f48                oslib_test_sequence_001.c.8d29c9cd
 .debug_info    0x0005533b      0x75e C:\Users\Ridwane\AppData\Local\Temp\cccPMQW6.debug.temp.o
                0x0005533b                oslib_test_sequence_002.c.af26824f
 .debug_info    0x00055a99      0xcab C:\Users\Ridwane\AppData\Local\Temp\ccANoGtq.debug.temp.o
                0x00055a99                oslib_test_sequence_003.c.15a61173
 .debug_info    0x00056744      0xfd2 C:\Users\Ridwane\AppData\Local\Temp\ccWygVbK.debug.temp.o
                0x00056744                oslib_test_sequence_004.c.68a6b137
 .debug_info    0x00057716      0xecc C:\Users\Ridwane\AppData\Local\Temp\ccU9W9O3.debug.temp.o
                0x00057716                oslib_test_sequence_005.c.f65145ca
 .debug_info    0x000585e2      0x8e2 C:\Users\Ridwane\AppData\Local\Temp\ccMnJIun.debug.temp.o
                0x000585e2                oslib_test_sequence_006.c.56fcecd3
 .debug_info    0x00058ec4      0x6cd C:\Users\Ridwane\AppData\Local\Temp\ccw1Q0nH.debug.temp.o
                0x00058ec4                oslib_test_sequence_007.c.a7d38438
 .debug_info    0x00059591      0xc01 C:\Users\Ridwane\AppData\Local\Temp\ccSuNic1.debug.temp.o
                0x00059591                oslib_test_sequence_008.c.f49e98ab
 .debug_info    0x0005a192     0x11fd C:\Users\Ridwane\AppData\Local\Temp\cc8APU2k.debug.temp.o
                0x0005a192                oslib_test_sequence_009.c.9f728c74
 .debug_info    0x0005b38f      0xb32 C:\Users\Ridwane\AppData\Local\Temp\ccKOTAWD.debug.temp.o
                0x0005b38f                syscalls.c.a8eec054
 .debug_info    0x0005bec1     0x10df C:\Users\Ridwane\AppData\Local\Temp\cc4k1FNf.debug.temp.o
                0x0005bec1                main.c.6c889345
 .debug_info    0x0005cfa0      0x96f C:\Users\Ridwane\AppData\Local\Temp\ccUTgELy.debug.temp.o
                0x0005cfa0                sign.c.4f84f70a
 .debug_info    0x0005d90f       0xc0 C:\Users\Ridwane\AppData\Local\Temp\ccAZzsUR.debug.temp.o
                0x0005d90f                consts.c.08fe0f3d
 .debug_info    0x0005d9cf      0x825 C:\Users\Ridwane\AppData\Local\Temp\cc0aUPYa.debug.temp.o
                0x0005d9cf                fips202.c.29d54800
 .debug_info    0x0005e1f4      0x3bc C:\Users\Ridwane\AppData\Local\Temp\cciMzWgu.debug.temp.o
                0x0005e1f4                packing.c.a1fb794d
 .debug_info    0x0005e5b0      0x8e4 C:\Users\Ridwane\AppData\Local\Temp\cckHRNAN.debug.temp.o
                0x0005e5b0                polyvec.c.3df3f832
 .debug_info    0x0005ee94      0x14f C:\Users\Ridwane\AppData\Local\Temp\cc8KreQ6.debug.temp.o
                0x0005ee94                randombytes.c.a8763e94
 .debug_info    0x0005efe3      0x862 c:/chibistudio/tools/gnu tools arm embedded/11.3 2022.08/bin/../lib/gcc/arm-none-eabi/11.3.1/thumb/v7e-m/nofp\libg_nano.a(libc_a-rand.o)
 .debug_info    0x0005f845      0x714 c:/chibistudio/tools/gnu tools arm embedded/11.3 2022.08/bin/../lib/gcc/arm-none-eabi/11.3.1/thumb/v7e-m/nofp\libg_nano.a(libc_a-impure.o)
 .debug_info    0x0005ff59      0x6fa c:/chibistudio/tools/gnu tools arm embedded/11.3 2022.08/bin/../lib/gcc/arm-none-eabi/11.3.1/thumb/v7e-m/nofp\libg_nano.a(libc_a-errno.o)
 .debug_info    0x00060653      0x7a8 c:/chibistudio/tools/gnu tools arm embedded/11.3 2022.08/bin/../lib/gcc/arm-none-eabi/11.3.1/thumb/v7e-m/nofp\libg_nano.a(libc_a-sysopen.o)
 .debug_info    0x00060dfb      0x78a c:/chibistudio/tools/gnu tools arm embedded/11.3 2022.08/bin/../lib/gcc/arm-none-eabi/11.3.1/thumb/v7e-m/nofp\libg_nano.a(libc_a-sysread.o)
 .debug_info    0x00061585      0x81d c:/chibistudio/tools/gnu tools arm embedded/11.3 2022.08/bin/../lib/gcc/arm-none-eabi/11.3.1/thumb/v7e-m/nofp\libg_nano.a(libc_a-assert.o)
 .debug_info    0x00061da2      0x793 c:/chibistudio/tools/gnu tools arm embedded/11.3 2022.08/bin/../lib/gcc/arm-none-eabi/11.3.1/thumb/v7e-m/nofp\libg_nano.a(libc_a-malloc.o)
 .debug_info    0x00062535      0x9bb c:/chibistudio/tools/gnu tools arm embedded/11.3 2022.08/bin/../lib/gcc/arm-none-eabi/11.3.1/thumb/v7e-m/nofp\libg_nano.a(libc_a-mallocr.o)
 .debug_info    0x00062ef0      0x76a c:/chibistudio/tools/gnu tools arm embedded/11.3 2022.08/bin/../lib/gcc/arm-none-eabi/11.3.1/thumb/v7e-m/nofp\libg_nano.a(libc_a-mlock.o)
 .debug_info    0x0006365a      0x854 c:/chibistudio/tools/gnu tools arm embedded/11.3 2022.08/bin/../lib/gcc/arm-none-eabi/11.3.1/thumb/v7e-m/nofp\libg_nano.a(libc_a-fprintf.o)
 .debug_info    0x00063eae      0x20a c:/chibistudio/tools/gnu tools arm embedded/11.3 2022.08/bin/../lib/gcc/arm-none-eabi/11.3.1/thumb/v7e-m/nofp\libg_nano.a(libc_a-lock.o)
 .debug_info    0x000640b8       0xd8 c:/chibistudio/tools/gnu tools arm embedded/11.3 2022.08/bin/../lib/gcc/arm-none-eabi/11.3.1/thumb/v7e-m/nofp\libg_nano.a(libc_a-abort.o)
 .debug_info    0x00064190      0x84a c:/chibistudio/tools/gnu tools arm embedded/11.3 2022.08/bin/../lib/gcc/arm-none-eabi/11.3.1/thumb/v7e-m/nofp\libg_nano.a(libc_a-freer.o)
 .debug_info    0x000649da     0x1079 c:/chibistudio/tools/gnu tools arm embedded/11.3 2022.08/bin/../lib/gcc/arm-none-eabi/11.3.1/thumb/v7e-m/nofp\libg_nano.a(libc_a-nano-vfprintf.o)
 .debug_info    0x00065a53      0xddf c:/chibistudio/tools/gnu tools arm embedded/11.3 2022.08/bin/../lib/gcc/arm-none-eabi/11.3.1/thumb/v7e-m/nofp\libg_nano.a(libc_a-nano-vfprintf_i.o)
 .debug_info    0x00066832      0xf8f c:/chibistudio/tools/gnu tools arm embedded/11.3 2022.08/bin/../lib/gcc/arm-none-eabi/11.3.1/thumb/v7e-m/nofp\libg_nano.a(libc_a-findfp.o)
 .debug_info    0x000677c1      0x7d1 c:/chibistudio/tools/gnu tools arm embedded/11.3 2022.08/bin/../lib/gcc/arm-none-eabi/11.3.1/thumb/v7e-m/nofp\libg_nano.a(libc_a-fwalk.o)
 .debug_info    0x00067f92      0xa53 c:/chibistudio/tools/gnu tools arm embedded/11.3 2022.08/bin/../lib/gcc/arm-none-eabi/11.3.1/thumb/v7e-m/nofp\libg_nano.a(libc_a-stdio.o)
 .debug_info    0x000689e5      0x867 c:/chibistudio/tools/gnu tools arm embedded/11.3 2022.08/bin/../lib/gcc/arm-none-eabi/11.3.1/thumb/v7e-m/nofp\libg_nano.a(libc_a-wbuf.o)
 .debug_info    0x0006924c      0x7ba c:/chibistudio/tools/gnu tools arm embedded/11.3 2022.08/bin/../lib/gcc/arm-none-eabi/11.3.1/thumb/v7e-m/nofp\libg_nano.a(libc_a-wsetup.o)
 .debug_info    0x00069a06       0xe0 c:/chibistudio/tools/gnu tools arm embedded/11.3 2022.08/bin/../lib/gcc/arm-none-eabi/11.3.1/thumb/v7e-m/nofp\libg_nano.a(libc_a-memset.o)
 .debug_info    0x00069ae6      0xa2e c:/chibistudio/tools/gnu tools arm embedded/11.3 2022.08/bin/../lib/gcc/arm-none-eabi/11.3.1/thumb/v7e-m/nofp\libg_nano.a(libc_a-signal.o)
 .debug_info    0x0006a514      0x7dc c:/chibistudio/tools/gnu tools arm embedded/11.3 2022.08/bin/../lib/gcc/arm-none-eabi/11.3.1/thumb/v7e-m/nofp\libg_nano.a(libc_a-signalr.o)
 .debug_info    0x0006acf0       0x25 c:/chibistudio/tools/gnu tools arm embedded/11.3 2022.08/bin/../lib/gcc/arm-none-eabi/11.3.1/thumb/v7e-m/nofp\libg_nano.a(libc_a-memchr.o)
 .debug_info    0x0006ad15      0x121 c:/chibistudio/tools/gnu tools arm embedded/11.3 2022.08/bin/../lib/gcc/arm-none-eabi/11.3.1/thumb/v7e-m/nofp\libg_nano.a(libc_a-memcpy-stub.o)
 .debug_info    0x0006ae36      0x9ee c:/chibistudio/tools/gnu tools arm embedded/11.3 2022.08/bin/../lib/gcc/arm-none-eabi/11.3.1/thumb/v7e-m/nofp\libg_nano.a(libc_a-fflush.o)
 .debug_info    0x0006b824      0xb18 c:/chibistudio/tools/gnu tools arm embedded/11.3 2022.08/bin/../lib/gcc/arm-none-eabi/11.3.1/thumb/v7e-m/nofp\libg_nano.a(libc_a-makebuf.o)
 .debug_info    0x0006c33c      0x858 c:/chibistudio/tools/gnu tools arm embedded/11.3 2022.08/bin/../lib/gcc/arm-none-eabi/11.3.1/thumb/v7e-m/nofp\libg_nano.a(libc_a-reent.o)
 .debug_info    0x0006cb94      0x104 c:/chibistudio/tools/gnu tools arm embedded/11.3 2022.08/bin/../lib/gcc/arm-none-eabi/11.3.1/thumb/v7e-m/nofp\libg_nano.a(libc_a-memcmp.o)
 .debug_info    0x0006cc98       0xde c:/chibistudio/tools/gnu tools arm embedded/11.3 2022.08/bin/../lib/gcc/arm-none-eabi/11.3.1/thumb/v7e-m/nofp\libg_nano.a(libc_a-strncmp.o)
 .debug_info    0x0006cd76       0x24 c:/chibistudio/tools/gnu tools arm embedded/11.3 2022.08/bin/../lib/gcc/arm-none-eabi/11.3.1/thumb/v7e-m/nofp\libg_nano.a(libc_a-strcmp.o)

.debug_abbrev   0x00000000     0xcc24
 .debug_abbrev  0x00000000       0x14 ./build/obj/crt0_v7m.o
 .debug_abbrev  0x00000014       0x14 ./build/obj/vectors.o
 .debug_abbrev  0x00000028       0x14 ./build/obj/chcoreasm.o
 .debug_abbrev  0x0000003c      0x37e C:\Users\Ridwane\AppData\Local\Temp\ccG6qa3f.ltrans0.ltrans.o
 .debug_abbrev  0x000003ba      0x34d C:\Users\Ridwane\AppData\Local\Temp\ccG6qa3f.ltrans1.ltrans.o
 .debug_abbrev  0x00000707       0xec C:\Users\Ridwane\AppData\Local\Temp\ccMjm6eA.debug.temp.o
 .debug_abbrev  0x000007f3       0x6d C:\Users\Ridwane\AppData\Local\Temp\ccmIIEHO.debug.temp.o
 .debug_abbrev  0x00000860      0x15c C:\Users\Ridwane\AppData\Local\Temp\ccGc6L52.debug.temp.o
 .debug_abbrev  0x000009bc      0x20c C:\Users\Ridwane\AppData\Local\Temp\ccErrMDK.debug.temp.o
 .debug_abbrev  0x00000bc8      0x2cb C:\Users\Ridwane\AppData\Local\Temp\ccE1d85R.debug.temp.o
 .debug_abbrev  0x00000e93      0x13e C:\Users\Ridwane\AppData\Local\Temp\ccgXiLxa.debug.temp.o
 .debug_abbrev  0x00000fd1      0x1ca C:\Users\Ridwane\AppData\Local\Temp\ccuIcoUs.debug.temp.o
 .debug_abbrev  0x0000119b       0xeb C:\Users\Ridwane\AppData\Local\Temp\ccATrKuL.debug.temp.o
 .debug_abbrev  0x00001286       0xf2 C:\Users\Ridwane\AppData\Local\Temp\ccOI6H1X.debug.temp.o
 .debug_abbrev  0x00001378      0x11d C:\Users\Ridwane\AppData\Local\Temp\ccsthxGf.debug.temp.o
 .debug_abbrev  0x00001495      0x2a8 C:\Users\Ridwane\AppData\Local\Temp\ccYNgGnx.debug.temp.o
 .debug_abbrev  0x0000173d      0x168 C:\Users\Ridwane\AppData\Local\Temp\ccghyo0O.debug.temp.o
 .debug_abbrev  0x000018a5      0x330 C:\Users\Ridwane\AppData\Local\Temp\cccTChCo.debug.temp.o
 .debug_abbrev  0x00001bd5      0x157 C:\Users\Ridwane\AppData\Local\Temp\ccWok8yG.debug.temp.o
 .debug_abbrev  0x00001d2c      0x2ae C:\Users\Ridwane\AppData\Local\Temp\ccGWqWvy.debug.temp.o
 .debug_abbrev  0x00001fda      0x250 C:\Users\Ridwane\AppData\Local\Temp\ccyqppzQ.debug.temp.o
 .debug_abbrev  0x0000222a      0x267 C:\Users\Ridwane\AppData\Local\Temp\ccGGihE7.debug.temp.o
 .debug_abbrev  0x00002491      0x315 C:\Users\Ridwane\AppData\Local\Temp\ccGEczMo.debug.temp.o
 .debug_abbrev  0x000027a6      0x1b4 C:\Users\Ridwane\AppData\Local\Temp\ccqI7pQF.debug.temp.o
 .debug_abbrev  0x0000295a      0x292 C:\Users\Ridwane\AppData\Local\Temp\ccQBiv5W.debug.temp.o
 .debug_abbrev  0x00002bec      0x2b8 C:\Users\Ridwane\AppData\Local\Temp\cc0Emute.debug.temp.o
 .debug_abbrev  0x00002ea4      0x2af C:\Users\Ridwane\AppData\Local\Temp\ccOAwtMv.debug.temp.o
 .debug_abbrev  0x00003153      0x2af C:\Users\Ridwane\AppData\Local\Temp\ccuW1bjN.debug.temp.o
 .debug_abbrev  0x00003402      0x2a6 C:\Users\Ridwane\AppData\Local\Temp\ccUnytL4.debug.temp.o
 .debug_abbrev  0x000036a8      0x272 C:\Users\Ridwane\AppData\Local\Temp\ccyGUfgl.debug.temp.o
 .debug_abbrev  0x0000391a      0x22d C:\Users\Ridwane\AppData\Local\Temp\cc46ELNB.debug.temp.o
 .debug_abbrev  0x00003b47      0x1d5 C:\Users\Ridwane\AppData\Local\Temp\cckVnQrS.debug.temp.o
 .debug_abbrev  0x00003d1c      0x15d C:\Users\Ridwane\AppData\Local\Temp\ccczVU08.debug.temp.o
 .debug_abbrev  0x00003e79      0x269 C:\Users\Ridwane\AppData\Local\Temp\ccWCOINp.debug.temp.o
 .debug_abbrev  0x000040e2      0x206 C:\Users\Ridwane\AppData\Local\Temp\cciwwwvG.debug.temp.o
 .debug_abbrev  0x000042e8      0x277 C:\Users\Ridwane\AppData\Local\Temp\ccgVACmX.debug.temp.o
 .debug_abbrev  0x0000455f      0x1f2 C:\Users\Ridwane\AppData\Local\Temp\cc4M6tfe.debug.temp.o
 .debug_abbrev  0x00004751      0x260 C:\Users\Ridwane\AppData\Local\Temp\ccKmzVTy.debug.temp.o
 .debug_abbrev  0x000049b1      0x28b C:\Users\Ridwane\AppData\Local\Temp\ccExP4rT.debug.temp.o
 .debug_abbrev  0x00004c3c      0x265 C:\Users\Ridwane\AppData\Local\Temp\ccmYMode.debug.temp.o
 .debug_abbrev  0x00004ea1      0x269 C:\Users\Ridwane\AppData\Local\Temp\ccUVh20y.debug.temp.o
 .debug_abbrev  0x0000510a      0x1c9 C:\Users\Ridwane\AppData\Local\Temp\cccZNeKT.debug.temp.o
 .debug_abbrev  0x000052d3      0x276 C:\Users\Ridwane\AppData\Local\Temp\ccectBGe.debug.temp.o
 .debug_abbrev  0x00005549      0x18e C:\Users\Ridwane\AppData\Local\Temp\ccARztyz.debug.temp.o
 .debug_abbrev  0x000056d7      0x23f C:\Users\Ridwane\AppData\Local\Temp\cckXvOBU.debug.temp.o
 .debug_abbrev  0x00005916      0x1af C:\Users\Ridwane\AppData\Local\Temp\ccGSg9zf.debug.temp.o
 .debug_abbrev  0x00005ac5      0x221 C:\Users\Ridwane\AppData\Local\Temp\ccoV3xBz.debug.temp.o
 .debug_abbrev  0x00005ce6      0x2de C:\Users\Ridwane\AppData\Local\Temp\ccQ3RvyT.debug.temp.o
 .debug_abbrev  0x00005fc4      0x2c0 C:\Users\Ridwane\AppData\Local\Temp\cc2lPDId.debug.temp.o
 .debug_abbrev  0x00006284      0x349 C:\Users\Ridwane\AppData\Local\Temp\ccWGwkOx.debug.temp.o
 .debug_abbrev  0x000065cd      0x2df C:\Users\Ridwane\AppData\Local\Temp\ccKuQK7R.debug.temp.o
 .debug_abbrev  0x000068ac      0x2df C:\Users\Ridwane\AppData\Local\Temp\cccbgbmc.debug.temp.o
 .debug_abbrev  0x00006b8b      0x334 C:\Users\Ridwane\AppData\Local\Temp\ccueKkOw.debug.temp.o
 .debug_abbrev  0x00006ebf      0x2b3 C:\Users\Ridwane\AppData\Local\Temp\cco72tbR.debug.temp.o
 .debug_abbrev  0x00007172      0x372 C:\Users\Ridwane\AppData\Local\Temp\ccE7nHBa.debug.temp.o
 .debug_abbrev  0x000074e4       0xb5 C:\Users\Ridwane\AppData\Local\Temp\ccEdKtXt.debug.temp.o
 .debug_abbrev  0x00007599      0x17f C:\Users\Ridwane\AppData\Local\Temp\ccyWbAlN.debug.temp.o
 .debug_abbrev  0x00007718      0x22c C:\Users\Ridwane\AppData\Local\Temp\cccPMQW6.debug.temp.o
 .debug_abbrev  0x00007944      0x272 C:\Users\Ridwane\AppData\Local\Temp\ccANoGtq.debug.temp.o
 .debug_abbrev  0x00007bb6      0x2d2 C:\Users\Ridwane\AppData\Local\Temp\ccWygVbK.debug.temp.o
 .debug_abbrev  0x00007e88      0x2b3 C:\Users\Ridwane\AppData\Local\Temp\ccU9W9O3.debug.temp.o
 .debug_abbrev  0x0000813b      0x220 C:\Users\Ridwane\AppData\Local\Temp\ccMnJIun.debug.temp.o
 .debug_abbrev  0x0000835b      0x1e9 C:\Users\Ridwane\AppData\Local\Temp\ccw1Q0nH.debug.temp.o
 .debug_abbrev  0x00008544      0x248 C:\Users\Ridwane\AppData\Local\Temp\ccSuNic1.debug.temp.o
 .debug_abbrev  0x0000878c      0x23b C:\Users\Ridwane\AppData\Local\Temp\cc8APU2k.debug.temp.o
 .debug_abbrev  0x000089c7      0x20b C:\Users\Ridwane\AppData\Local\Temp\ccKOTAWD.debug.temp.o
 .debug_abbrev  0x00008bd2      0x2cf C:\Users\Ridwane\AppData\Local\Temp\cc4k1FNf.debug.temp.o
 .debug_abbrev  0x00008ea1      0x228 C:\Users\Ridwane\AppData\Local\Temp\ccUTgELy.debug.temp.o
 .debug_abbrev  0x000090c9       0x75 C:\Users\Ridwane\AppData\Local\Temp\ccAZzsUR.debug.temp.o
 .debug_abbrev  0x0000913e      0x15a C:\Users\Ridwane\AppData\Local\Temp\cc0aUPYa.debug.temp.o
 .debug_abbrev  0x00009298      0x131 C:\Users\Ridwane\AppData\Local\Temp\cciMzWgu.debug.temp.o
 .debug_abbrev  0x000093c9      0x196 C:\Users\Ridwane\AppData\Local\Temp\cckHRNAN.debug.temp.o
 .debug_abbrev  0x0000955f       0xdc C:\Users\Ridwane\AppData\Local\Temp\cc8KreQ6.debug.temp.o
 .debug_abbrev  0x0000963b      0x220 c:/chibistudio/tools/gnu tools arm embedded/11.3 2022.08/bin/../lib/gcc/arm-none-eabi/11.3.1/thumb/v7e-m/nofp\libg_nano.a(libc_a-rand.o)
 .debug_abbrev  0x0000985b      0x149 c:/chibistudio/tools/gnu tools arm embedded/11.3 2022.08/bin/../lib/gcc/arm-none-eabi/11.3.1/thumb/v7e-m/nofp\libg_nano.a(libc_a-impure.o)
 .debug_abbrev  0x000099a4      0x15e c:/chibistudio/tools/gnu tools arm embedded/11.3 2022.08/bin/../lib/gcc/arm-none-eabi/11.3.1/thumb/v7e-m/nofp\libg_nano.a(libc_a-errno.o)
 .debug_abbrev  0x00009b02      0x1f2 c:/chibistudio/tools/gnu tools arm embedded/11.3 2022.08/bin/../lib/gcc/arm-none-eabi/11.3.1/thumb/v7e-m/nofp\libg_nano.a(libc_a-sysopen.o)
 .debug_abbrev  0x00009cf4      0x19f c:/chibistudio/tools/gnu tools arm embedded/11.3 2022.08/bin/../lib/gcc/arm-none-eabi/11.3.1/thumb/v7e-m/nofp\libg_nano.a(libc_a-sysread.o)
 .debug_abbrev  0x00009e93      0x1ea c:/chibistudio/tools/gnu tools arm embedded/11.3 2022.08/bin/../lib/gcc/arm-none-eabi/11.3.1/thumb/v7e-m/nofp\libg_nano.a(libc_a-assert.o)
 .debug_abbrev  0x0000a07d      0x1cf c:/chibistudio/tools/gnu tools arm embedded/11.3 2022.08/bin/../lib/gcc/arm-none-eabi/11.3.1/thumb/v7e-m/nofp\libg_nano.a(libc_a-malloc.o)
 .debug_abbrev  0x0000a24c      0x24a c:/chibistudio/tools/gnu tools arm embedded/11.3 2022.08/bin/../lib/gcc/arm-none-eabi/11.3.1/thumb/v7e-m/nofp\libg_nano.a(libc_a-mallocr.o)
 .debug_abbrev  0x0000a496      0x1bf c:/chibistudio/tools/gnu tools arm embedded/11.3 2022.08/bin/../lib/gcc/arm-none-eabi/11.3.1/thumb/v7e-m/nofp\libg_nano.a(libc_a-mlock.o)
 .debug_abbrev  0x0000a655      0x21d c:/chibistudio/tools/gnu tools arm embedded/11.3 2022.08/bin/../lib/gcc/arm-none-eabi/11.3.1/thumb/v7e-m/nofp\libg_nano.a(libc_a-fprintf.o)
 .debug_abbrev  0x0000a872      0x115 c:/chibistudio/tools/gnu tools arm embedded/11.3 2022.08/bin/../lib/gcc/arm-none-eabi/11.3.1/thumb/v7e-m/nofp\libg_nano.a(libc_a-lock.o)
 .debug_abbrev  0x0000a987       0x99 c:/chibistudio/tools/gnu tools arm embedded/11.3 2022.08/bin/../lib/gcc/arm-none-eabi/11.3.1/thumb/v7e-m/nofp\libg_nano.a(libc_a-abort.o)
 .debug_abbrev  0x0000aa20      0x236 c:/chibistudio/tools/gnu tools arm embedded/11.3 2022.08/bin/../lib/gcc/arm-none-eabi/11.3.1/thumb/v7e-m/nofp\libg_nano.a(libc_a-freer.o)
 .debug_abbrev  0x0000ac56      0x317 c:/chibistudio/tools/gnu tools arm embedded/11.3 2022.08/bin/../lib/gcc/arm-none-eabi/11.3.1/thumb/v7e-m/nofp\libg_nano.a(libc_a-nano-vfprintf.o)
 .debug_abbrev  0x0000af6d      0x28f c:/chibistudio/tools/gnu tools arm embedded/11.3 2022.08/bin/../lib/gcc/arm-none-eabi/11.3.1/thumb/v7e-m/nofp\libg_nano.a(libc_a-nano-vfprintf_i.o)
 .debug_abbrev  0x0000b1fc      0x40c c:/chibistudio/tools/gnu tools arm embedded/11.3 2022.08/bin/../lib/gcc/arm-none-eabi/11.3.1/thumb/v7e-m/nofp\libg_nano.a(libc_a-findfp.o)
 .debug_abbrev  0x0000b608      0x19b c:/chibistudio/tools/gnu tools arm embedded/11.3 2022.08/bin/../lib/gcc/arm-none-eabi/11.3.1/thumb/v7e-m/nofp\libg_nano.a(libc_a-fwalk.o)
 .debug_abbrev  0x0000b7a3      0x221 c:/chibistudio/tools/gnu tools arm embedded/11.3 2022.08/bin/../lib/gcc/arm-none-eabi/11.3.1/thumb/v7e-m/nofp\libg_nano.a(libc_a-stdio.o)
 .debug_abbrev  0x0000b9c4      0x22d c:/chibistudio/tools/gnu tools arm embedded/11.3 2022.08/bin/../lib/gcc/arm-none-eabi/11.3.1/thumb/v7e-m/nofp\libg_nano.a(libc_a-wbuf.o)
 .debug_abbrev  0x0000bbf1      0x1e2 c:/chibistudio/tools/gnu tools arm embedded/11.3 2022.08/bin/../lib/gcc/arm-none-eabi/11.3.1/thumb/v7e-m/nofp\libg_nano.a(libc_a-wsetup.o)
 .debug_abbrev  0x0000bdd3       0x9e c:/chibistudio/tools/gnu tools arm embedded/11.3 2022.08/bin/../lib/gcc/arm-none-eabi/11.3.1/thumb/v7e-m/nofp\libg_nano.a(libc_a-memset.o)
 .debug_abbrev  0x0000be71      0x296 c:/chibistudio/tools/gnu tools arm embedded/11.3 2022.08/bin/../lib/gcc/arm-none-eabi/11.3.1/thumb/v7e-m/nofp\libg_nano.a(libc_a-signal.o)
 .debug_abbrev  0x0000c107      0x1fd c:/chibistudio/tools/gnu tools arm embedded/11.3 2022.08/bin/../lib/gcc/arm-none-eabi/11.3.1/thumb/v7e-m/nofp\libg_nano.a(libc_a-signalr.o)
 .debug_abbrev  0x0000c304       0x14 c:/chibistudio/tools/gnu tools arm embedded/11.3 2022.08/bin/../lib/gcc/arm-none-eabi/11.3.1/thumb/v7e-m/nofp\libg_nano.a(libc_a-memchr.o)
 .debug_abbrev  0x0000c318       0xc1 c:/chibistudio/tools/gnu tools arm embedded/11.3 2022.08/bin/../lib/gcc/arm-none-eabi/11.3.1/thumb/v7e-m/nofp\libg_nano.a(libc_a-memcpy-stub.o)
 .debug_abbrev  0x0000c3d9      0x2a8 c:/chibistudio/tools/gnu tools arm embedded/11.3 2022.08/bin/../lib/gcc/arm-none-eabi/11.3.1/thumb/v7e-m/nofp\libg_nano.a(libc_a-fflush.o)
 .debug_abbrev  0x0000c681      0x28e c:/chibistudio/tools/gnu tools arm embedded/11.3 2022.08/bin/../lib/gcc/arm-none-eabi/11.3.1/thumb/v7e-m/nofp\libg_nano.a(libc_a-makebuf.o)
 .debug_abbrev  0x0000c90f      0x1f8 c:/chibistudio/tools/gnu tools arm embedded/11.3 2022.08/bin/../lib/gcc/arm-none-eabi/11.3.1/thumb/v7e-m/nofp\libg_nano.a(libc_a-reent.o)
 .debug_abbrev  0x0000cb07       0x90 c:/chibistudio/tools/gnu tools arm embedded/11.3 2022.08/bin/../lib/gcc/arm-none-eabi/11.3.1/thumb/v7e-m/nofp\libg_nano.a(libc_a-memcmp.o)
 .debug_abbrev  0x0000cb97       0x79 c:/chibistudio/tools/gnu tools arm embedded/11.3 2022.08/bin/../lib/gcc/arm-none-eabi/11.3.1/thumb/v7e-m/nofp\libg_nano.a(libc_a-strncmp.o)
 .debug_abbrev  0x0000cc10       0x14 c:/chibistudio/tools/gnu tools arm embedded/11.3 2022.08/bin/../lib/gcc/arm-none-eabi/11.3.1/thumb/v7e-m/nofp\libg_nano.a(libc_a-strcmp.o)

.debug_aranges  0x00000000      0xd80
 .debug_aranges
                0x00000000       0x20 ./build/obj/crt0_v7m.o
 .debug_aranges
                0x00000020       0x20 ./build/obj/vectors.o
 .debug_aranges
                0x00000040       0x20 ./build/obj/chcoreasm.o
 .debug_aranges
                0x00000060      0x628 C:\Users\Ridwane\AppData\Local\Temp\ccG6qa3f.ltrans0.ltrans.o
 .debug_aranges
                0x00000688      0x1e8 C:\Users\Ridwane\AppData\Local\Temp\ccG6qa3f.ltrans1.ltrans.o
 .debug_aranges
                0x00000870       0x28 c:/chibistudio/tools/gnu tools arm embedded/11.3 2022.08/bin/../lib/gcc/arm-none-eabi/11.3.1/thumb/v7e-m/nofp\libg_nano.a(libc_a-rand.o)
 .debug_aranges
                0x00000898       0x18 c:/chibistudio/tools/gnu tools arm embedded/11.3 2022.08/bin/../lib/gcc/arm-none-eabi/11.3.1/thumb/v7e-m/nofp\libg_nano.a(libc_a-impure.o)
 .debug_aranges
                0x000008b0       0x20 c:/chibistudio/tools/gnu tools arm embedded/11.3 2022.08/bin/../lib/gcc/arm-none-eabi/11.3.1/thumb/v7e-m/nofp\libg_nano.a(libc_a-errno.o)
 .debug_aranges
                0x000008d0       0x20 c:/chibistudio/tools/gnu tools arm embedded/11.3 2022.08/bin/../lib/gcc/arm-none-eabi/11.3.1/thumb/v7e-m/nofp\libg_nano.a(libc_a-sysopen.o)
 .debug_aranges
                0x000008f0       0x20 c:/chibistudio/tools/gnu tools arm embedded/11.3 2022.08/bin/../lib/gcc/arm-none-eabi/11.3.1/thumb/v7e-m/nofp\libg_nano.a(libc_a-sysread.o)
 .debug_aranges
                0x00000910       0x28 c:/chibistudio/tools/gnu tools arm embedded/11.3 2022.08/bin/../lib/gcc/arm-none-eabi/11.3.1/thumb/v7e-m/nofp\libg_nano.a(libc_a-assert.o)
 .debug_aranges
                0x00000938       0x28 c:/chibistudio/tools/gnu tools arm embedded/11.3 2022.08/bin/../lib/gcc/arm-none-eabi/11.3.1/thumb/v7e-m/nofp\libg_nano.a(libc_a-malloc.o)
 .debug_aranges
                0x00000960       0x28 c:/chibistudio/tools/gnu tools arm embedded/11.3 2022.08/bin/../lib/gcc/arm-none-eabi/11.3.1/thumb/v7e-m/nofp\libg_nano.a(libc_a-mallocr.o)
 .debug_aranges
                0x00000988       0x28 c:/chibistudio/tools/gnu tools arm embedded/11.3 2022.08/bin/../lib/gcc/arm-none-eabi/11.3.1/thumb/v7e-m/nofp\libg_nano.a(libc_a-mlock.o)
 .debug_aranges
                0x000009b0       0x28 c:/chibistudio/tools/gnu tools arm embedded/11.3 2022.08/bin/../lib/gcc/arm-none-eabi/11.3.1/thumb/v7e-m/nofp\libg_nano.a(libc_a-fprintf.o)
 .debug_aranges
                0x000009d8       0x28 c:/chibistudio/tools/gnu tools arm embedded/11.3 2022.08/bin/../lib/gcc/arm-none-eabi/11.3.1/thumb/v7e-m/nofp\libg_nano.a(libc_a-lock.o)
 .debug_aranges
                0x00000a00       0x20 c:/chibistudio/tools/gnu tools arm embedded/11.3 2022.08/bin/../lib/gcc/arm-none-eabi/11.3.1/thumb/v7e-m/nofp\libg_nano.a(libc_a-abort.o)
 .debug_aranges
                0x00000a20       0x20 c:/chibistudio/tools/gnu tools arm embedded/11.3 2022.08/bin/../lib/gcc/arm-none-eabi/11.3.1/thumb/v7e-m/nofp\libg_nano.a(libc_a-freer.o)
 .debug_aranges
                0x00000a40       0x40 c:/chibistudio/tools/gnu tools arm embedded/11.3 2022.08/bin/../lib/gcc/arm-none-eabi/11.3.1/thumb/v7e-m/nofp\libg_nano.a(libc_a-nano-vfprintf.o)
 .debug_aranges
                0x00000a80       0x28 c:/chibistudio/tools/gnu tools arm embedded/11.3 2022.08/bin/../lib/gcc/arm-none-eabi/11.3.1/thumb/v7e-m/nofp\libg_nano.a(libc_a-nano-vfprintf_i.o)
 .debug_aranges
                0x00000aa8       0x78 c:/chibistudio/tools/gnu tools arm embedded/11.3 2022.08/bin/../lib/gcc/arm-none-eabi/11.3.1/thumb/v7e-m/nofp\libg_nano.a(libc_a-findfp.o)
 .debug_aranges
                0x00000b20       0x20 c:/chibistudio/tools/gnu tools arm embedded/11.3 2022.08/bin/../lib/gcc/arm-none-eabi/11.3.1/thumb/v7e-m/nofp\libg_nano.a(libc_a-fwalk.o)
 .debug_aranges
                0x00000b40       0x40 c:/chibistudio/tools/gnu tools arm embedded/11.3 2022.08/bin/../lib/gcc/arm-none-eabi/11.3.1/thumb/v7e-m/nofp\libg_nano.a(libc_a-stdio.o)
 .debug_aranges
                0x00000b80       0x28 c:/chibistudio/tools/gnu tools arm embedded/11.3 2022.08/bin/../lib/gcc/arm-none-eabi/11.3.1/thumb/v7e-m/nofp\libg_nano.a(libc_a-wbuf.o)
 .debug_aranges
                0x00000ba8       0x20 c:/chibistudio/tools/gnu tools arm embedded/11.3 2022.08/bin/../lib/gcc/arm-none-eabi/11.3.1/thumb/v7e-m/nofp\libg_nano.a(libc_a-wsetup.o)
 .debug_aranges
                0x00000bc8       0x20 c:/chibistudio/tools/gnu tools arm embedded/11.3 2022.08/bin/../lib/gcc/arm-none-eabi/11.3.1/thumb/v7e-m/nofp\libg_nano.a(libc_a-memset.o)
 .debug_aranges
                0x00000be8       0x58 c:/chibistudio/tools/gnu tools arm embedded/11.3 2022.08/bin/../lib/gcc/arm-none-eabi/11.3.1/thumb/v7e-m/nofp\libg_nano.a(libc_a-signal.o)
 .debug_aranges
                0x00000c40       0x28 c:/chibistudio/tools/gnu tools arm embedded/11.3 2022.08/bin/../lib/gcc/arm-none-eabi/11.3.1/thumb/v7e-m/nofp\libg_nano.a(libc_a-signalr.o)
 .debug_aranges
                0x00000c68       0x20 c:/chibistudio/tools/gnu tools arm embedded/11.3 2022.08/bin/../lib/gcc/arm-none-eabi/11.3.1/thumb/v7e-m/nofp\libg_nano.a(libc_a-memchr.o)
 .debug_aranges
                0x00000c88       0x20 c:/chibistudio/tools/gnu tools arm embedded/11.3 2022.08/bin/../lib/gcc/arm-none-eabi/11.3.1/thumb/v7e-m/nofp\libg_nano.a(libc_a-memcpy-stub.o)
 .debug_aranges
                0x00000ca8       0x30 c:/chibistudio/tools/gnu tools arm embedded/11.3 2022.08/bin/../lib/gcc/arm-none-eabi/11.3.1/thumb/v7e-m/nofp\libg_nano.a(libc_a-fflush.o)
 .debug_aranges
                0x00000cd8       0x28 c:/chibistudio/tools/gnu tools arm embedded/11.3 2022.08/bin/../lib/gcc/arm-none-eabi/11.3.1/thumb/v7e-m/nofp\libg_nano.a(libc_a-makebuf.o)
 .debug_aranges
                0x00000d00       0x20 c:/chibistudio/tools/gnu tools arm embedded/11.3 2022.08/bin/../lib/gcc/arm-none-eabi/11.3.1/thumb/v7e-m/nofp\libg_nano.a(libc_a-reent.o)
 .debug_aranges
                0x00000d20       0x20 c:/chibistudio/tools/gnu tools arm embedded/11.3 2022.08/bin/../lib/gcc/arm-none-eabi/11.3.1/thumb/v7e-m/nofp\libg_nano.a(libc_a-memcmp.o)
 .debug_aranges
                0x00000d40       0x20 c:/chibistudio/tools/gnu tools arm embedded/11.3 2022.08/bin/../lib/gcc/arm-none-eabi/11.3.1/thumb/v7e-m/nofp\libg_nano.a(libc_a-strncmp.o)
 .debug_aranges
                0x00000d60       0x20 c:/chibistudio/tools/gnu tools arm embedded/11.3 2022.08/bin/../lib/gcc/arm-none-eabi/11.3.1/thumb/v7e-m/nofp\libg_nano.a(libc_a-strcmp.o)

.debug_str      0x00000000     0x90b2
 .debug_str     0x00000000       0x81 ./build/obj/crt0_v7m.o
 .debug_str     0x00000081       0x43 ./build/obj/vectors.o
                                 0x80 (size before relaxing)
 .debug_str     0x000000c4       0x44 ./build/obj/chcoreasm.o
                                 0x81 (size before relaxing)
 .debug_str     0x00000108      0x298 C:\Users\Ridwane\AppData\Local\Temp\ccG6qa3f.ltrans0.ltrans.o
                                0x302 (size before relaxing)
 .debug_str     0x000003a0       0xf8 C:\Users\Ridwane\AppData\Local\Temp\ccG6qa3f.ltrans1.ltrans.o
                                0x327 (size before relaxing)
 .debug_str     0x00000498      0x376 C:\Users\Ridwane\AppData\Local\Temp\ccMjm6eA.debug.temp.o
                                0x453 (size before relaxing)
 .debug_str     0x0000080e       0x6d C:\Users\Ridwane\AppData\Local\Temp\ccmIIEHO.debug.temp.o
                                0x1ee (size before relaxing)
 .debug_str     0x0000087b      0x146 C:\Users\Ridwane\AppData\Local\Temp\ccGc6L52.debug.temp.o
                                0x2e8 (size before relaxing)
 .debug_str     0x000009c1      0x2d0 C:\Users\Ridwane\AppData\Local\Temp\ccErrMDK.debug.temp.o
                                0x4b1 (size before relaxing)
 .debug_str     0x00000c91      0x562 C:\Users\Ridwane\AppData\Local\Temp\ccE1d85R.debug.temp.o
                                0x9ad (size before relaxing)
 .debug_str     0x000011f3      0x162 C:\Users\Ridwane\AppData\Local\Temp\ccgXiLxa.debug.temp.o
                                0x32e (size before relaxing)
 .debug_str     0x00001355      0x504 C:\Users\Ridwane\AppData\Local\Temp\ccuIcoUs.debug.temp.o
                                0xc3c (size before relaxing)
 .debug_str     0x00001859      0x18d C:\Users\Ridwane\AppData\Local\Temp\ccATrKuL.debug.temp.o
                                0x3df (size before relaxing)
 .debug_str     0x000019e6       0xe6 C:\Users\Ridwane\AppData\Local\Temp\ccOI6H1X.debug.temp.o
                                0x2ad (size before relaxing)
 .debug_str     0x00001acc       0xe0 C:\Users\Ridwane\AppData\Local\Temp\ccsthxGf.debug.temp.o
                                0x42f (size before relaxing)
 .debug_str     0x00001bac       0x74 C:\Users\Ridwane\AppData\Local\Temp\ccYNgGnx.debug.temp.o
                                0xa04 (size before relaxing)
 .debug_str     0x00001c20       0xcb C:\Users\Ridwane\AppData\Local\Temp\ccghyo0O.debug.temp.o
                                0x40d (size before relaxing)
 .debug_str     0x00001ceb      0x39b C:\Users\Ridwane\AppData\Local\Temp\cccTChCo.debug.temp.o
                                0xa07 (size before relaxing)
 .debug_str     0x00002086       0x53 C:\Users\Ridwane\AppData\Local\Temp\ccWok8yG.debug.temp.o
                                0x5a2 (size before relaxing)
 .debug_str     0x000020d9      0x245 C:\Users\Ridwane\AppData\Local\Temp\ccGWqWvy.debug.temp.o
                                0x882 (size before relaxing)
 .debug_str     0x0000231e      0x1ab C:\Users\Ridwane\AppData\Local\Temp\ccyqppzQ.debug.temp.o
                                0x7ee (size before relaxing)
 .debug_str     0x000024c9      0x2b3 C:\Users\Ridwane\AppData\Local\Temp\ccGGihE7.debug.temp.o
                                0x93c (size before relaxing)
 .debug_str     0x0000277c      0x28c C:\Users\Ridwane\AppData\Local\Temp\ccGEczMo.debug.temp.o
                                0x9ca (size before relaxing)
 .debug_str     0x00002a08       0x4d C:\Users\Ridwane\AppData\Local\Temp\ccqI7pQF.debug.temp.o
                                0x78d (size before relaxing)
 .debug_str     0x00002a55       0xaa C:\Users\Ridwane\AppData\Local\Temp\ccQBiv5W.debug.temp.o
                                0x8c2 (size before relaxing)
 .debug_str     0x00002aff       0xe8 C:\Users\Ridwane\AppData\Local\Temp\cc0Emute.debug.temp.o
                                0x73d (size before relaxing)
 .debug_str     0x00002be7       0xc3 C:\Users\Ridwane\AppData\Local\Temp\ccOAwtMv.debug.temp.o
                                0x6eb (size before relaxing)
 .debug_str     0x00002caa       0xe9 C:\Users\Ridwane\AppData\Local\Temp\ccuW1bjN.debug.temp.o
                                0x74d (size before relaxing)
 .debug_str     0x00002d93      0x1ad C:\Users\Ridwane\AppData\Local\Temp\ccUnytL4.debug.temp.o
                                0x819 (size before relaxing)
 .debug_str     0x00002f40       0x81 C:\Users\Ridwane\AppData\Local\Temp\ccyGUfgl.debug.temp.o
                                0x699 (size before relaxing)
 .debug_str     0x00002fc1       0xbd C:\Users\Ridwane\AppData\Local\Temp\cc46ELNB.debug.temp.o
                                0x711 (size before relaxing)
 .debug_str     0x0000307e      0x11d C:\Users\Ridwane\AppData\Local\Temp\cckVnQrS.debug.temp.o
                                0x40d (size before relaxing)
 .debug_str     0x0000319b       0xcb C:\Users\Ridwane\AppData\Local\Temp\ccczVU08.debug.temp.o
                                0x2f2 (size before relaxing)
 .debug_str     0x00003266       0x7c C:\Users\Ridwane\AppData\Local\Temp\ccWCOINp.debug.temp.o
                                0x6b6 (size before relaxing)
 .debug_str     0x000032e2      0x12e C:\Users\Ridwane\AppData\Local\Temp\cciwwwvG.debug.temp.o
                                0x446 (size before relaxing)
 .debug_str     0x00003410       0xc3 C:\Users\Ridwane\AppData\Local\Temp\ccgVACmX.debug.temp.o
                                0x6fd (size before relaxing)
 .debug_str     0x000034d3      0x1f1 C:\Users\Ridwane\AppData\Local\Temp\cc4M6tfe.debug.temp.o
                                0x49b (size before relaxing)
 .debug_str     0x000036c4      0x16b C:\Users\Ridwane\AppData\Local\Temp\ccKmzVTy.debug.temp.o
                                0x767 (size before relaxing)
 .debug_str     0x0000382f      0x483 C:\Users\Ridwane\AppData\Local\Temp\ccExP4rT.debug.temp.o
                                0xc3d (size before relaxing)
 .debug_str     0x00003cb2      0x650 C:\Users\Ridwane\AppData\Local\Temp\ccmYMode.debug.temp.o
                                0xd90 (size before relaxing)
 .debug_str     0x00004302      0x302 C:\Users\Ridwane\AppData\Local\Temp\ccUVh20y.debug.temp.o
                                0x5a7 (size before relaxing)
 .debug_str     0x00004604       0xb3 C:\Users\Ridwane\AppData\Local\Temp\cccZNeKT.debug.temp.o
                                0x376 (size before relaxing)
 .debug_str     0x000046b7      0x1a9 C:\Users\Ridwane\AppData\Local\Temp\ccectBGe.debug.temp.o
                                0x7ff (size before relaxing)
 .debug_str     0x00004860       0xf4 C:\Users\Ridwane\AppData\Local\Temp\ccARztyz.debug.temp.o
                                0x3e8 (size before relaxing)
 .debug_str     0x00004954      0x16e C:\Users\Ridwane\AppData\Local\Temp\cckXvOBU.debug.temp.o
                                0x671 (size before relaxing)
 .debug_str     0x00004ac2       0xa8 C:\Users\Ridwane\AppData\Local\Temp\ccGSg9zf.debug.temp.o
                                0x3f3 (size before relaxing)
 .debug_str     0x00004b6a       0xb2 C:\Users\Ridwane\AppData\Local\Temp\ccoV3xBz.debug.temp.o
                                0x4cd (size before relaxing)
 .debug_str     0x00004c1c      0x10a C:\Users\Ridwane\AppData\Local\Temp\ccQ3RvyT.debug.temp.o
                                0x8e2 (size before relaxing)
 .debug_str     0x00004d26       0x96 C:\Users\Ridwane\AppData\Local\Temp\cc2lPDId.debug.temp.o
                                0x871 (size before relaxing)
 .debug_str     0x00004dbc      0x2bb C:\Users\Ridwane\AppData\Local\Temp\ccWGwkOx.debug.temp.o
                                0xb2e (size before relaxing)
 .debug_str     0x00005077      0x207 C:\Users\Ridwane\AppData\Local\Temp\ccKuQK7R.debug.temp.o
                                0xa67 (size before relaxing)
 .debug_str     0x0000527e       0x8c C:\Users\Ridwane\AppData\Local\Temp\cccbgbmc.debug.temp.o
                                0x7ef (size before relaxing)
 .debug_str     0x0000530a      0x246 C:\Users\Ridwane\AppData\Local\Temp\ccueKkOw.debug.temp.o
                                0xb6c (size before relaxing)
 .debug_str     0x00005550      0x106 C:\Users\Ridwane\AppData\Local\Temp\cco72tbR.debug.temp.o
                                0x922 (size before relaxing)
 .debug_str     0x00005656      0x2ea C:\Users\Ridwane\AppData\Local\Temp\ccE7nHBa.debug.temp.o
                                0xc2f (size before relaxing)
 .debug_str     0x00005940      0x13b C:\Users\Ridwane\AppData\Local\Temp\ccEdKtXt.debug.temp.o
                                0x314 (size before relaxing)
 .debug_str     0x00005a7b       0xeb C:\Users\Ridwane\AppData\Local\Temp\ccyWbAlN.debug.temp.o
                                0x406 (size before relaxing)
 .debug_str     0x00005b66      0x1aa C:\Users\Ridwane\AppData\Local\Temp\cccPMQW6.debug.temp.o
                                0x64f (size before relaxing)
 .debug_str     0x00005d10      0x10f C:\Users\Ridwane\AppData\Local\Temp\ccANoGtq.debug.temp.o
                                0x800 (size before relaxing)
 .debug_str     0x00005e1f      0x175 C:\Users\Ridwane\AppData\Local\Temp\ccWygVbK.debug.temp.o
                                0x9e2 (size before relaxing)
 .debug_str     0x00005f94      0x157 C:\Users\Ridwane\AppData\Local\Temp\ccU9W9O3.debug.temp.o
                                0x976 (size before relaxing)
 .debug_str     0x000060eb       0xe3 C:\Users\Ridwane\AppData\Local\Temp\ccMnJIun.debug.temp.o
                                0x637 (size before relaxing)
 .debug_str     0x000061ce      0x149 C:\Users\Ridwane\AppData\Local\Temp\ccw1Q0nH.debug.temp.o
                                0x5e2 (size before relaxing)
 .debug_str     0x00006317      0x115 C:\Users\Ridwane\AppData\Local\Temp\ccSuNic1.debug.temp.o
                                0x83c (size before relaxing)
 .debug_str     0x0000642c      0x27d C:\Users\Ridwane\AppData\Local\Temp\cc8APU2k.debug.temp.o
                                0xc81 (size before relaxing)
 .debug_str     0x000066a9       0x48 C:\Users\Ridwane\AppData\Local\Temp\ccKOTAWD.debug.temp.o
                                0x6cb (size before relaxing)
 .debug_str     0x000066f1       0x80 C:\Users\Ridwane\AppData\Local\Temp\cc4k1FNf.debug.temp.o
                                0x970 (size before relaxing)
 .debug_str     0x00006771      0x714 C:\Users\Ridwane\AppData\Local\Temp\ccUTgELy.debug.temp.o
                                0x931 (size before relaxing)
 .debug_str     0x00006e85       0x2a C:\Users\Ridwane\AppData\Local\Temp\ccAZzsUR.debug.temp.o
                                0x1ac (size before relaxing)
 .debug_str     0x00006eaf      0x205 C:\Users\Ridwane\AppData\Local\Temp\cc0aUPYa.debug.temp.o
                                0x489 (size before relaxing)
 .debug_str     0x000070b4      0x112 C:\Users\Ridwane\AppData\Local\Temp\cciMzWgu.debug.temp.o
                                0x3e1 (size before relaxing)
 .debug_str     0x000071c6      0x552 C:\Users\Ridwane\AppData\Local\Temp\cckHRNAN.debug.temp.o
                                0xb21 (size before relaxing)
 .debug_str     0x00007718        0xe C:\Users\Ridwane\AppData\Local\Temp\cc8KreQ6.debug.temp.o
                                0x1e4 (size before relaxing)
 .debug_str     0x00007726      0x48a c:/chibistudio/tools/gnu tools arm embedded/11.3 2022.08/bin/../lib/gcc/arm-none-eabi/11.3.1/thumb/v7e-m/nofp\libg_nano.a(libc_a-rand.o)
                                0x54a (size before relaxing)
 .debug_str     0x00007bb0       0x67 c:/chibistudio/tools/gnu tools arm embedded/11.3 2022.08/bin/../lib/gcc/arm-none-eabi/11.3.1/thumb/v7e-m/nofp\libg_nano.a(libc_a-impure.o)
                                0x526 (size before relaxing)
 .debug_str     0x00007c17       0x61 c:/chibistudio/tools/gnu tools arm embedded/11.3 2022.08/bin/../lib/gcc/arm-none-eabi/11.3.1/thumb/v7e-m/nofp\libg_nano.a(libc_a-errno.o)
                                0x520 (size before relaxing)
 .debug_str     0x00007c78       0x84 c:/chibistudio/tools/gnu tools arm embedded/11.3 2022.08/bin/../lib/gcc/arm-none-eabi/11.3.1/thumb/v7e-m/nofp\libg_nano.a(libc_a-sysopen.o)
                                0x55b (size before relaxing)
 .debug_str     0x00007cfc       0x6f c:/chibistudio/tools/gnu tools arm embedded/11.3 2022.08/bin/../lib/gcc/arm-none-eabi/11.3.1/thumb/v7e-m/nofp\libg_nano.a(libc_a-sysread.o)
                                0x53a (size before relaxing)
 .debug_str     0x00007d6b       0x7e c:/chibistudio/tools/gnu tools arm embedded/11.3 2022.08/bin/../lib/gcc/arm-none-eabi/11.3.1/thumb/v7e-m/nofp\libg_nano.a(libc_a-assert.o)
                                0x55f (size before relaxing)
 .debug_str     0x00007de9       0x79 c:/chibistudio/tools/gnu tools arm embedded/11.3 2022.08/bin/../lib/gcc/arm-none-eabi/11.3.1/thumb/v7e-m/nofp\libg_nano.a(libc_a-malloc.o)
                                0x54b (size before relaxing)
 .debug_str     0x00007e62      0x119 c:/chibistudio/tools/gnu tools arm embedded/11.3 2022.08/bin/../lib/gcc/arm-none-eabi/11.3.1/thumb/v7e-m/nofp\libg_nano.a(libc_a-mallocr.o)
                                0x607 (size before relaxing)
 .debug_str     0x00007f7b       0xbe c:/chibistudio/tools/gnu tools arm embedded/11.3 2022.08/bin/../lib/gcc/arm-none-eabi/11.3.1/thumb/v7e-m/nofp\libg_nano.a(libc_a-mlock.o)
                                0x5a8 (size before relaxing)
 .debug_str     0x00008039       0x72 c:/chibistudio/tools/gnu tools arm embedded/11.3 2022.08/bin/../lib/gcc/arm-none-eabi/11.3.1/thumb/v7e-m/nofp\libg_nano.a(libc_a-fprintf.o)
                                0x564 (size before relaxing)
 .debug_str     0x000080ab      0x1f4 c:/chibistudio/tools/gnu tools arm embedded/11.3 2022.08/bin/../lib/gcc/arm-none-eabi/11.3.1/thumb/v7e-m/nofp\libg_nano.a(libc_a-lock.o)
                                0x379 (size before relaxing)
 .debug_str     0x0000829f       0x60 c:/chibistudio/tools/gnu tools arm embedded/11.3 2022.08/bin/../lib/gcc/arm-none-eabi/11.3.1/thumb/v7e-m/nofp\libg_nano.a(libc_a-abort.o)
                                0x209 (size before relaxing)
 .debug_str     0x000082ff       0x7e c:/chibistudio/tools/gnu tools arm embedded/11.3 2022.08/bin/../lib/gcc/arm-none-eabi/11.3.1/thumb/v7e-m/nofp\libg_nano.a(libc_a-freer.o)
                                0x5a6 (size before relaxing)
 .debug_str     0x0000837d      0x2cf c:/chibistudio/tools/gnu tools arm embedded/11.3 2022.08/bin/../lib/gcc/arm-none-eabi/11.3.1/thumb/v7e-m/nofp\libg_nano.a(libc_a-nano-vfprintf.o)
                                0x8d7 (size before relaxing)
 .debug_str     0x0000864c       0xbb c:/chibistudio/tools/gnu tools arm embedded/11.3 2022.08/bin/../lib/gcc/arm-none-eabi/11.3.1/thumb/v7e-m/nofp\libg_nano.a(libc_a-nano-vfprintf_i.o)
                                0x805 (size before relaxing)
 .debug_str     0x00008707      0x201 c:/chibistudio/tools/gnu tools arm embedded/11.3 2022.08/bin/../lib/gcc/arm-none-eabi/11.3.1/thumb/v7e-m/nofp\libg_nano.a(libc_a-findfp.o)
                                0x7a9 (size before relaxing)
 .debug_str     0x00008908       0x59 c:/chibistudio/tools/gnu tools arm embedded/11.3 2022.08/bin/../lib/gcc/arm-none-eabi/11.3.1/thumb/v7e-m/nofp\libg_nano.a(libc_a-fwalk.o)
                                0x536 (size before relaxing)
 .debug_str     0x00008961       0x86 c:/chibistudio/tools/gnu tools arm embedded/11.3 2022.08/bin/../lib/gcc/arm-none-eabi/11.3.1/thumb/v7e-m/nofp\libg_nano.a(libc_a-stdio.o)
                                0x593 (size before relaxing)
 .debug_str     0x000089e7       0x60 c:/chibistudio/tools/gnu tools arm embedded/11.3 2022.08/bin/../lib/gcc/arm-none-eabi/11.3.1/thumb/v7e-m/nofp\libg_nano.a(libc_a-wbuf.o)
                                0x55c (size before relaxing)
 .debug_str     0x00008a47       0x67 c:/chibistudio/tools/gnu tools arm embedded/11.3 2022.08/bin/../lib/gcc/arm-none-eabi/11.3.1/thumb/v7e-m/nofp\libg_nano.a(libc_a-wsetup.o)
                                0x557 (size before relaxing)
 .debug_str     0x00008aae       0x5b c:/chibistudio/tools/gnu tools arm embedded/11.3 2022.08/bin/../lib/gcc/arm-none-eabi/11.3.1/thumb/v7e-m/nofp\libg_nano.a(libc_a-memset.o)
                                0x206 (size before relaxing)
 .debug_str     0x00008b09       0xc1 c:/chibistudio/tools/gnu tools arm embedded/11.3 2022.08/bin/../lib/gcc/arm-none-eabi/11.3.1/thumb/v7e-m/nofp\libg_nano.a(libc_a-signal.o)
                                0x5ad (size before relaxing)
 .debug_str     0x00008bca       0x71 c:/chibistudio/tools/gnu tools arm embedded/11.3 2022.08/bin/../lib/gcc/arm-none-eabi/11.3.1/thumb/v7e-m/nofp\libg_nano.a(libc_a-signalr.o)
                                0x542 (size before relaxing)
 .debug_str     0x00008c3b       0x60 c:/chibistudio/tools/gnu tools arm embedded/11.3 2022.08/bin/../lib/gcc/arm-none-eabi/11.3.1/thumb/v7e-m/nofp\libg_nano.a(libc_a-memchr.o)
                                 0xea (size before relaxing)
 .debug_str     0x00008c9b       0x79 c:/chibistudio/tools/gnu tools arm embedded/11.3 2022.08/bin/../lib/gcc/arm-none-eabi/11.3.1/thumb/v7e-m/nofp\libg_nano.a(libc_a-memcpy-stub.o)
                                0x224 (size before relaxing)
 .debug_str     0x00008d14       0x7d c:/chibistudio/tools/gnu tools arm embedded/11.3 2022.08/bin/../lib/gcc/arm-none-eabi/11.3.1/thumb/v7e-m/nofp\libg_nano.a(libc_a-fflush.o)
                                0x5f1 (size before relaxing)
 .debug_str     0x00008d91      0x189 c:/chibistudio/tools/gnu tools arm embedded/11.3 2022.08/bin/../lib/gcc/arm-none-eabi/11.3.1/thumb/v7e-m/nofp\libg_nano.a(libc_a-makebuf.o)
                                0x6b9 (size before relaxing)
 .debug_str     0x00008f1a       0x78 c:/chibistudio/tools/gnu tools arm embedded/11.3 2022.08/bin/../lib/gcc/arm-none-eabi/11.3.1/thumb/v7e-m/nofp\libg_nano.a(libc_a-reent.o)
                                0x545 (size before relaxing)
 .debug_str     0x00008f92       0x5b c:/chibistudio/tools/gnu tools arm embedded/11.3 2022.08/bin/../lib/gcc/arm-none-eabi/11.3.1/thumb/v7e-m/nofp\libg_nano.a(libc_a-memcmp.o)
                                0x206 (size before relaxing)
 .debug_str     0x00008fed       0x5c c:/chibistudio/tools/gnu tools arm embedded/11.3 2022.08/bin/../lib/gcc/arm-none-eabi/11.3.1/thumb/v7e-m/nofp\libg_nano.a(libc_a-strncmp.o)
                                0x208 (size before relaxing)
 .debug_str     0x00009049       0x69 c:/chibistudio/tools/gnu tools arm embedded/11.3 2022.08/bin/../lib/gcc/arm-none-eabi/11.3.1/thumb/v7e-m/nofp\libg_nano.a(libc_a-strcmp.o)
                                 0xf3 (size before relaxing)

.debug_loclists
                0x00000000    0x19382
 .debug_loclists
                0x00000000    0x11901 C:\Users\Ridwane\AppData\Local\Temp\ccG6qa3f.ltrans0.ltrans.o
 .debug_loclists
                0x00011901     0x5df3 C:\Users\Ridwane\AppData\Local\Temp\ccG6qa3f.ltrans1.ltrans.o
 .debug_loclists
                0x000176f4       0x6c c:/chibistudio/tools/gnu tools arm embedded/11.3 2022.08/bin/../lib/gcc/arm-none-eabi/11.3.1/thumb/v7e-m/nofp\libg_nano.a(libc_a-rand.o)
 .debug_loclists
                0x00017760       0x35 c:/chibistudio/tools/gnu tools arm embedded/11.3 2022.08/bin/../lib/gcc/arm-none-eabi/11.3.1/thumb/v7e-m/nofp\libg_nano.a(libc_a-sysopen.o)
 .debug_loclists
                0x00017795       0x66 c:/chibistudio/tools/gnu tools arm embedded/11.3 2022.08/bin/../lib/gcc/arm-none-eabi/11.3.1/thumb/v7e-m/nofp\libg_nano.a(libc_a-sysread.o)
 .debug_loclists
                0x000177fb       0xe6 c:/chibistudio/tools/gnu tools arm embedded/11.3 2022.08/bin/../lib/gcc/arm-none-eabi/11.3.1/thumb/v7e-m/nofp\libg_nano.a(libc_a-assert.o)
 .debug_loclists
                0x000178e1       0x48 c:/chibistudio/tools/gnu tools arm embedded/11.3 2022.08/bin/../lib/gcc/arm-none-eabi/11.3.1/thumb/v7e-m/nofp\libg_nano.a(libc_a-malloc.o)
 .debug_loclists
                0x00017929      0x254 c:/chibistudio/tools/gnu tools arm embedded/11.3 2022.08/bin/../lib/gcc/arm-none-eabi/11.3.1/thumb/v7e-m/nofp\libg_nano.a(libc_a-mallocr.o)
 .debug_loclists
                0x00017b7d       0x3a c:/chibistudio/tools/gnu tools arm embedded/11.3 2022.08/bin/../lib/gcc/arm-none-eabi/11.3.1/thumb/v7e-m/nofp\libg_nano.a(libc_a-mlock.o)
 .debug_loclists
                0x00017bb7       0x6e c:/chibistudio/tools/gnu tools arm embedded/11.3 2022.08/bin/../lib/gcc/arm-none-eabi/11.3.1/thumb/v7e-m/nofp\libg_nano.a(libc_a-fprintf.o)
 .debug_loclists
                0x00017c25       0x23 c:/chibistudio/tools/gnu tools arm embedded/11.3 2022.08/bin/../lib/gcc/arm-none-eabi/11.3.1/thumb/v7e-m/nofp\libg_nano.a(libc_a-lock.o)
 .debug_loclists
                0x00017c48       0xd4 c:/chibistudio/tools/gnu tools arm embedded/11.3 2022.08/bin/../lib/gcc/arm-none-eabi/11.3.1/thumb/v7e-m/nofp\libg_nano.a(libc_a-freer.o)
 .debug_loclists
                0x00017d1c      0x3d5 c:/chibistudio/tools/gnu tools arm embedded/11.3 2022.08/bin/../lib/gcc/arm-none-eabi/11.3.1/thumb/v7e-m/nofp\libg_nano.a(libc_a-nano-vfprintf.o)
 .debug_loclists
                0x000180f1      0x3fe c:/chibistudio/tools/gnu tools arm embedded/11.3 2022.08/bin/../lib/gcc/arm-none-eabi/11.3.1/thumb/v7e-m/nofp\libg_nano.a(libc_a-nano-vfprintf_i.o)
 .debug_loclists
                0x000184ef      0x237 c:/chibistudio/tools/gnu tools arm embedded/11.3 2022.08/bin/../lib/gcc/arm-none-eabi/11.3.1/thumb/v7e-m/nofp\libg_nano.a(libc_a-findfp.o)
 .debug_loclists
                0x00018726       0x85 c:/chibistudio/tools/gnu tools arm embedded/11.3 2022.08/bin/../lib/gcc/arm-none-eabi/11.3.1/thumb/v7e-m/nofp\libg_nano.a(libc_a-fwalk.o)
 .debug_loclists
                0x000187ab      0x203 c:/chibistudio/tools/gnu tools arm embedded/11.3 2022.08/bin/../lib/gcc/arm-none-eabi/11.3.1/thumb/v7e-m/nofp\libg_nano.a(libc_a-stdio.o)
 .debug_loclists
                0x000189ae       0xe3 c:/chibistudio/tools/gnu tools arm embedded/11.3 2022.08/bin/../lib/gcc/arm-none-eabi/11.3.1/thumb/v7e-m/nofp\libg_nano.a(libc_a-wbuf.o)
 .debug_loclists
                0x00018a91       0x41 c:/chibistudio/tools/gnu tools arm embedded/11.3 2022.08/bin/../lib/gcc/arm-none-eabi/11.3.1/thumb/v7e-m/nofp\libg_nano.a(libc_a-wsetup.o)
 .debug_loclists
                0x00018ad2       0x47 c:/chibistudio/tools/gnu tools arm embedded/11.3 2022.08/bin/../lib/gcc/arm-none-eabi/11.3.1/thumb/v7e-m/nofp\libg_nano.a(libc_a-memset.o)
 .debug_loclists
                0x00018b19      0x2a2 c:/chibistudio/tools/gnu tools arm embedded/11.3 2022.08/bin/../lib/gcc/arm-none-eabi/11.3.1/thumb/v7e-m/nofp\libg_nano.a(libc_a-signal.o)
 .debug_loclists
                0x00018dbb       0x81 c:/chibistudio/tools/gnu tools arm embedded/11.3 2022.08/bin/../lib/gcc/arm-none-eabi/11.3.1/thumb/v7e-m/nofp\libg_nano.a(libc_a-signalr.o)
 .debug_loclists
                0x00018e3c       0x8f c:/chibistudio/tools/gnu tools arm embedded/11.3 2022.08/bin/../lib/gcc/arm-none-eabi/11.3.1/thumb/v7e-m/nofp\libg_nano.a(libc_a-memcpy-stub.o)
 .debug_loclists
                0x00018ecb      0x1ba c:/chibistudio/tools/gnu tools arm embedded/11.3 2022.08/bin/../lib/gcc/arm-none-eabi/11.3.1/thumb/v7e-m/nofp\libg_nano.a(libc_a-fflush.o)
 .debug_loclists
                0x00019085      0x11d c:/chibistudio/tools/gnu tools arm embedded/11.3 2022.08/bin/../lib/gcc/arm-none-eabi/11.3.1/thumb/v7e-m/nofp\libg_nano.a(libc_a-makebuf.o)
 .debug_loclists
                0x000191a2       0x7d c:/chibistudio/tools/gnu tools arm embedded/11.3 2022.08/bin/../lib/gcc/arm-none-eabi/11.3.1/thumb/v7e-m/nofp\libg_nano.a(libc_a-reent.o)
 .debug_loclists
                0x0001921f       0xa1 c:/chibistudio/tools/gnu tools arm embedded/11.3 2022.08/bin/../lib/gcc/arm-none-eabi/11.3.1/thumb/v7e-m/nofp\libg_nano.a(libc_a-memcmp.o)
 .debug_loclists
                0x000192c0       0xc2 c:/chibistudio/tools/gnu tools arm embedded/11.3 2022.08/bin/../lib/gcc/arm-none-eabi/11.3.1/thumb/v7e-m/nofp\libg_nano.a(libc_a-strncmp.o)

.debug_rnglists
                0x00000000     0x6468
 .debug_rnglists
                0x00000000     0x4ab3 C:\Users\Ridwane\AppData\Local\Temp\ccG6qa3f.ltrans0.ltrans.o
 .debug_rnglists
                0x00004ab3     0x15ca C:\Users\Ridwane\AppData\Local\Temp\ccG6qa3f.ltrans1.ltrans.o
 .debug_rnglists
                0x0000607d       0x25 c:/chibistudio/tools/gnu tools arm embedded/11.3 2022.08/bin/../lib/gcc/arm-none-eabi/11.3.1/thumb/v7e-m/nofp\libg_nano.a(libc_a-rand.o)
 .debug_rnglists
                0x000060a2       0x13 c:/chibistudio/tools/gnu tools arm embedded/11.3 2022.08/bin/../lib/gcc/arm-none-eabi/11.3.1/thumb/v7e-m/nofp\libg_nano.a(libc_a-errno.o)
 .debug_rnglists
                0x000060b5       0x13 c:/chibistudio/tools/gnu tools arm embedded/11.3 2022.08/bin/../lib/gcc/arm-none-eabi/11.3.1/thumb/v7e-m/nofp\libg_nano.a(libc_a-sysopen.o)
 .debug_rnglists
                0x000060c8       0x13 c:/chibistudio/tools/gnu tools arm embedded/11.3 2022.08/bin/../lib/gcc/arm-none-eabi/11.3.1/thumb/v7e-m/nofp\libg_nano.a(libc_a-sysread.o)
 .debug_rnglists
                0x000060db       0x19 c:/chibistudio/tools/gnu tools arm embedded/11.3 2022.08/bin/../lib/gcc/arm-none-eabi/11.3.1/thumb/v7e-m/nofp\libg_nano.a(libc_a-assert.o)
 .debug_rnglists
                0x000060f4       0x19 c:/chibistudio/tools/gnu tools arm embedded/11.3 2022.08/bin/../lib/gcc/arm-none-eabi/11.3.1/thumb/v7e-m/nofp\libg_nano.a(libc_a-malloc.o)
 .debug_rnglists
                0x0000610d       0x26 c:/chibistudio/tools/gnu tools arm embedded/11.3 2022.08/bin/../lib/gcc/arm-none-eabi/11.3.1/thumb/v7e-m/nofp\libg_nano.a(libc_a-mallocr.o)
 .debug_rnglists
                0x00006133       0x19 c:/chibistudio/tools/gnu tools arm embedded/11.3 2022.08/bin/../lib/gcc/arm-none-eabi/11.3.1/thumb/v7e-m/nofp\libg_nano.a(libc_a-mlock.o)
 .debug_rnglists
                0x0000614c       0x19 c:/chibistudio/tools/gnu tools arm embedded/11.3 2022.08/bin/../lib/gcc/arm-none-eabi/11.3.1/thumb/v7e-m/nofp\libg_nano.a(libc_a-fprintf.o)
 .debug_rnglists
                0x00006165       0x19 c:/chibistudio/tools/gnu tools arm embedded/11.3 2022.08/bin/../lib/gcc/arm-none-eabi/11.3.1/thumb/v7e-m/nofp\libg_nano.a(libc_a-lock.o)
 .debug_rnglists
                0x0000617e       0x13 c:/chibistudio/tools/gnu tools arm embedded/11.3 2022.08/bin/../lib/gcc/arm-none-eabi/11.3.1/thumb/v7e-m/nofp\libg_nano.a(libc_a-abort.o)
 .debug_rnglists
                0x00006191       0x14 c:/chibistudio/tools/gnu tools arm embedded/11.3 2022.08/bin/../lib/gcc/arm-none-eabi/11.3.1/thumb/v7e-m/nofp\libg_nano.a(libc_a-freer.o)
 .debug_rnglists
                0x000061a5       0x38 c:/chibistudio/tools/gnu tools arm embedded/11.3 2022.08/bin/../lib/gcc/arm-none-eabi/11.3.1/thumb/v7e-m/nofp\libg_nano.a(libc_a-nano-vfprintf.o)
 .debug_rnglists
                0x000061dd       0x5c c:/chibistudio/tools/gnu tools arm embedded/11.3 2022.08/bin/../lib/gcc/arm-none-eabi/11.3.1/thumb/v7e-m/nofp\libg_nano.a(libc_a-nano-vfprintf_i.o)
 .debug_rnglists
                0x00006239       0x7e c:/chibistudio/tools/gnu tools arm embedded/11.3 2022.08/bin/../lib/gcc/arm-none-eabi/11.3.1/thumb/v7e-m/nofp\libg_nano.a(libc_a-findfp.o)
 .debug_rnglists
                0x000062b7       0x13 c:/chibistudio/tools/gnu tools arm embedded/11.3 2022.08/bin/../lib/gcc/arm-none-eabi/11.3.1/thumb/v7e-m/nofp\libg_nano.a(libc_a-fwalk.o)
 .debug_rnglists
                0x000062ca       0x2b c:/chibistudio/tools/gnu tools arm embedded/11.3 2022.08/bin/../lib/gcc/arm-none-eabi/11.3.1/thumb/v7e-m/nofp\libg_nano.a(libc_a-stdio.o)
 .debug_rnglists
                0x000062f5       0x25 c:/chibistudio/tools/gnu tools arm embedded/11.3 2022.08/bin/../lib/gcc/arm-none-eabi/11.3.1/thumb/v7e-m/nofp\libg_nano.a(libc_a-wbuf.o)
 .debug_rnglists
                0x0000631a       0x26 c:/chibistudio/tools/gnu tools arm embedded/11.3 2022.08/bin/../lib/gcc/arm-none-eabi/11.3.1/thumb/v7e-m/nofp\libg_nano.a(libc_a-wsetup.o)
 .debug_rnglists
                0x00006340       0x13 c:/chibistudio/tools/gnu tools arm embedded/11.3 2022.08/bin/../lib/gcc/arm-none-eabi/11.3.1/thumb/v7e-m/nofp\libg_nano.a(libc_a-memset.o)
 .debug_rnglists
                0x00006353       0x49 c:/chibistudio/tools/gnu tools arm embedded/11.3 2022.08/bin/../lib/gcc/arm-none-eabi/11.3.1/thumb/v7e-m/nofp\libg_nano.a(libc_a-signal.o)
 .debug_rnglists
                0x0000639c       0x19 c:/chibistudio/tools/gnu tools arm embedded/11.3 2022.08/bin/../lib/gcc/arm-none-eabi/11.3.1/thumb/v7e-m/nofp\libg_nano.a(libc_a-signalr.o)
 .debug_rnglists
                0x000063b5       0x13 c:/chibistudio/tools/gnu tools arm embedded/11.3 2022.08/bin/../lib/gcc/arm-none-eabi/11.3.1/thumb/v7e-m/nofp\libg_nano.a(libc_a-memcpy-stub.o)
 .debug_rnglists
                0x000063c8       0x3b c:/chibistudio/tools/gnu tools arm embedded/11.3 2022.08/bin/../lib/gcc/arm-none-eabi/11.3.1/thumb/v7e-m/nofp\libg_nano.a(libc_a-fflush.o)
 .debug_rnglists
                0x00006403       0x19 c:/chibistudio/tools/gnu tools arm embedded/11.3 2022.08/bin/../lib/gcc/arm-none-eabi/11.3.1/thumb/v7e-m/nofp\libg_nano.a(libc_a-makebuf.o)
 .debug_rnglists
                0x0000641c       0x26 c:/chibistudio/tools/gnu tools arm embedded/11.3 2022.08/bin/../lib/gcc/arm-none-eabi/11.3.1/thumb/v7e-m/nofp\libg_nano.a(libc_a-reent.o)
 .debug_rnglists
                0x00006442       0x13 c:/chibistudio/tools/gnu tools arm embedded/11.3 2022.08/bin/../lib/gcc/arm-none-eabi/11.3.1/thumb/v7e-m/nofp\libg_nano.a(libc_a-memcmp.o)
 .debug_rnglists
                0x00006455       0x13 c:/chibistudio/tools/gnu tools arm embedded/11.3 2022.08/bin/../lib/gcc/arm-none-eabi/11.3.1/thumb/v7e-m/nofp\libg_nano.a(libc_a-strncmp.o)

.debug_frame    0x00000000     0x2ae8
 .debug_frame   0x00000000     0x1a40 C:\Users\Ridwane\AppData\Local\Temp\ccG6qa3f.ltrans0.ltrans.o
 .debug_frame   0x00001a40      0x770 C:\Users\Ridwane\AppData\Local\Temp\ccG6qa3f.ltrans1.ltrans.o
 .debug_frame   0x000021b0       0x44 c:/chibistudio/tools/gnu tools arm embedded/11.3 2022.08/bin/../lib/gcc/arm-none-eabi/11.3.1/thumb/v7e-m/nofp\libg_nano.a(libc_a-rand.o)
 .debug_frame   0x000021f4       0x20 c:/chibistudio/tools/gnu tools arm embedded/11.3 2022.08/bin/../lib/gcc/arm-none-eabi/11.3.1/thumb/v7e-m/nofp\libg_nano.a(libc_a-errno.o)
 .debug_frame   0x00002214       0x3c c:/chibistudio/tools/gnu tools arm embedded/11.3 2022.08/bin/../lib/gcc/arm-none-eabi/11.3.1/thumb/v7e-m/nofp\libg_nano.a(libc_a-sysopen.o)
 .debug_frame   0x00002250       0x20 c:/chibistudio/tools/gnu tools arm embedded/11.3 2022.08/bin/../lib/gcc/arm-none-eabi/11.3.1/thumb/v7e-m/nofp\libg_nano.a(libc_a-sysread.o)
 .debug_frame   0x00002270       0x40 c:/chibistudio/tools/gnu tools arm embedded/11.3 2022.08/bin/../lib/gcc/arm-none-eabi/11.3.1/thumb/v7e-m/nofp\libg_nano.a(libc_a-assert.o)
 .debug_frame   0x000022b0       0x30 c:/chibistudio/tools/gnu tools arm embedded/11.3 2022.08/bin/../lib/gcc/arm-none-eabi/11.3.1/thumb/v7e-m/nofp\libg_nano.a(libc_a-malloc.o)
 .debug_frame   0x000022e0       0x4c c:/chibistudio/tools/gnu tools arm embedded/11.3 2022.08/bin/../lib/gcc/arm-none-eabi/11.3.1/thumb/v7e-m/nofp\libg_nano.a(libc_a-mallocr.o)
 .debug_frame   0x0000232c       0x30 c:/chibistudio/tools/gnu tools arm embedded/11.3 2022.08/bin/../lib/gcc/arm-none-eabi/11.3.1/thumb/v7e-m/nofp\libg_nano.a(libc_a-mlock.o)
 .debug_frame   0x0000235c       0x64 c:/chibistudio/tools/gnu tools arm embedded/11.3 2022.08/bin/../lib/gcc/arm-none-eabi/11.3.1/thumb/v7e-m/nofp\libg_nano.a(libc_a-fprintf.o)
 .debug_frame   0x000023c0       0xb0 c:/chibistudio/tools/gnu tools arm embedded/11.3 2022.08/bin/../lib/gcc/arm-none-eabi/11.3.1/thumb/v7e-m/nofp\libg_nano.a(libc_a-lock.o)
 .debug_frame   0x00002470       0x28 c:/chibistudio/tools/gnu tools arm embedded/11.3 2022.08/bin/../lib/gcc/arm-none-eabi/11.3.1/thumb/v7e-m/nofp\libg_nano.a(libc_a-abort.o)
 .debug_frame   0x00002498       0x38 c:/chibistudio/tools/gnu tools arm embedded/11.3 2022.08/bin/../lib/gcc/arm-none-eabi/11.3.1/thumb/v7e-m/nofp\libg_nano.a(libc_a-freer.o)
 .debug_frame   0x000024d0       0xa8 c:/chibistudio/tools/gnu tools arm embedded/11.3 2022.08/bin/../lib/gcc/arm-none-eabi/11.3.1/thumb/v7e-m/nofp\libg_nano.a(libc_a-nano-vfprintf.o)
 .debug_frame   0x00002578       0x60 c:/chibistudio/tools/gnu tools arm embedded/11.3 2022.08/bin/../lib/gcc/arm-none-eabi/11.3.1/thumb/v7e-m/nofp\libg_nano.a(libc_a-nano-vfprintf_i.o)
 .debug_frame   0x000025d8      0x13c c:/chibistudio/tools/gnu tools arm embedded/11.3 2022.08/bin/../lib/gcc/arm-none-eabi/11.3.1/thumb/v7e-m/nofp\libg_nano.a(libc_a-findfp.o)
 .debug_frame   0x00002714       0x34 c:/chibistudio/tools/gnu tools arm embedded/11.3 2022.08/bin/../lib/gcc/arm-none-eabi/11.3.1/thumb/v7e-m/nofp\libg_nano.a(libc_a-fwalk.o)
 .debug_frame   0x00002748       0x88 c:/chibistudio/tools/gnu tools arm embedded/11.3 2022.08/bin/../lib/gcc/arm-none-eabi/11.3.1/thumb/v7e-m/nofp\libg_nano.a(libc_a-stdio.o)
 .debug_frame   0x000027d0       0x40 c:/chibistudio/tools/gnu tools arm embedded/11.3 2022.08/bin/../lib/gcc/arm-none-eabi/11.3.1/thumb/v7e-m/nofp\libg_nano.a(libc_a-wbuf.o)
 .debug_frame   0x00002810       0x2c c:/chibistudio/tools/gnu tools arm embedded/11.3 2022.08/bin/../lib/gcc/arm-none-eabi/11.3.1/thumb/v7e-m/nofp\libg_nano.a(libc_a-wsetup.o)
 .debug_frame   0x0000283c       0x20 c:/chibistudio/tools/gnu tools arm embedded/11.3 2022.08/bin/../lib/gcc/arm-none-eabi/11.3.1/thumb/v7e-m/nofp\libg_nano.a(libc_a-memset.o)
 .debug_frame   0x0000285c       0xcc c:/chibistudio/tools/gnu tools arm embedded/11.3 2022.08/bin/../lib/gcc/arm-none-eabi/11.3.1/thumb/v7e-m/nofp\libg_nano.a(libc_a-signal.o)
 .debug_frame   0x00002928       0x3c c:/chibistudio/tools/gnu tools arm embedded/11.3 2022.08/bin/../lib/gcc/arm-none-eabi/11.3.1/thumb/v7e-m/nofp\libg_nano.a(libc_a-signalr.o)
 .debug_frame   0x00002964       0x28 c:/chibistudio/tools/gnu tools arm embedded/11.3 2022.08/bin/../lib/gcc/arm-none-eabi/11.3.1/thumb/v7e-m/nofp\libg_nano.a(libc_a-memcpy-stub.o)
 .debug_frame   0x0000298c       0x5c c:/chibistudio/tools/gnu tools arm embedded/11.3 2022.08/bin/../lib/gcc/arm-none-eabi/11.3.1/thumb/v7e-m/nofp\libg_nano.a(libc_a-fflush.o)
 .debug_frame   0x000029e8       0x58 c:/chibistudio/tools/gnu tools arm embedded/11.3 2022.08/bin/../lib/gcc/arm-none-eabi/11.3.1/thumb/v7e-m/nofp\libg_nano.a(libc_a-makebuf.o)
 .debug_frame   0x00002a40       0x38 c:/chibistudio/tools/gnu tools arm embedded/11.3 2022.08/bin/../lib/gcc/arm-none-eabi/11.3.1/thumb/v7e-m/nofp\libg_nano.a(libc_a-reent.o)
 .debug_frame   0x00002a78       0x28 c:/chibistudio/tools/gnu tools arm embedded/11.3 2022.08/bin/../lib/gcc/arm-none-eabi/11.3.1/thumb/v7e-m/nofp\libg_nano.a(libc_a-memcmp.o)
 .debug_frame   0x00002aa0       0x28 c:/chibistudio/tools/gnu tools arm embedded/11.3 2022.08/bin/../lib/gcc/arm-none-eabi/11.3.1/thumb/v7e-m/nofp\libg_nano.a(libc_a-strncmp.o)
 .debug_frame   0x00002ac8       0x20 c:/chibistudio/tools/gnu tools arm embedded/11.3 2022.08/bin/../lib/gcc/arm-none-eabi/11.3.1/thumb/v7e-m/nofp\libg_nano.a(libc_a-strcmp.o)

Cross Reference Table

Symbol                                            File
BusFault_Handler                                  ./build/obj/vectors.o
DebugMon_Handler                                  ./build/obj/vectors.o
HardFault_Handler                                 ./build/obj/vectors.o
MemManage_Handler                                 ./build/obj/vectors.o
NMI_Handler                                       ./build/obj/vectors.o
PendSV_Handler                                    ./build/obj/vectors.o
Reset_Handler                                     ./build/obj/vectors.o
SD1                                               C:\Users\Ridwane\AppData\Local\Temp\ccG6qa3f.ltrans0.ltrans.o
                                                  ./build/obj/hal_serial_lld.o (symbol from plugin)
                                                  C:\Users\Ridwane\AppData\Local\Temp\ccG6qa3f.ltrans1.ltrans.o
                                                  ./build/obj/main.o (symbol from plugin)
                                                  ./build/obj/stm32_isr.o (symbol from plugin)
SD2                                               C:\Users\Ridwane\AppData\Local\Temp\ccG6qa3f.ltrans0.ltrans.o
                                                  ./build/obj/hal_serial_lld.o (symbol from plugin)
                                                  C:\Users\Ridwane\AppData\Local\Temp\ccG6qa3f.ltrans1.ltrans.o
                                                  ./build/obj/main.o (symbol from plugin)
                                                  ./build/obj/stm32_isr.o (symbol from plugin)
SVC_Handler                                       C:\Users\Ridwane\AppData\Local\Temp\ccG6qa3f.ltrans0.ltrans.o
                                                  ./build/obj/chcore.o (symbol from plugin)
                                                  ./build/obj/vectors.o
SecureFault_Handler                               ./build/obj/vectors.o
SysTick_Handler                                   ./build/obj/vectors.o
SystemCoreClock                                   ./build/obj/hal_lld.o (symbol from plugin)
UsageFault_Handler                                ./build/obj/vectors.o
Vector100                                         ./build/obj/vectors.o
Vector104                                         ./build/obj/vectors.o
Vector108                                         ./build/obj/vectors.o
Vector10C                                         ./build/obj/vectors.o
Vector110                                         ./build/obj/vectors.o
Vector114                                         ./build/obj/vectors.o
Vector118                                         ./build/obj/vectors.o
Vector11C                                         ./build/obj/vectors.o
Vector120                                         ./build/obj/vectors.o
Vector124                                         ./build/obj/vectors.o
Vector128                                         ./build/obj/vectors.o
Vector12C                                         ./build/obj/vectors.o
Vector130                                         ./build/obj/vectors.o
Vector134                                         ./build/obj/vectors.o
Vector138                                         ./build/obj/vectors.o
Vector13C                                         ./build/obj/vectors.o
Vector140                                         ./build/obj/vectors.o
Vector144                                         ./build/obj/vectors.o
Vector148                                         ./build/obj/vectors.o
Vector14C                                         ./build/obj/vectors.o
Vector150                                         ./build/obj/vectors.o
Vector154                                         ./build/obj/vectors.o
Vector158                                         ./build/obj/vectors.o
Vector15C                                         ./build/obj/vectors.o
Vector160                                         ./build/obj/vectors.o
Vector164                                         ./build/obj/vectors.o
Vector168                                         ./build/obj/vectors.o
Vector16C                                         ./build/obj/vectors.o
Vector170                                         ./build/obj/vectors.o
Vector174                                         ./build/obj/vectors.o
Vector178                                         ./build/obj/vectors.o
Vector17C                                         ./build/obj/vectors.o
Vector180                                         ./build/obj/vectors.o
Vector184                                         ./build/obj/vectors.o
Vector188                                         ./build/obj/vectors.o
Vector18C                                         ./build/obj/vectors.o
Vector190                                         ./build/obj/vectors.o
Vector194                                         ./build/obj/vectors.o
Vector198                                         ./build/obj/vectors.o
Vector19C                                         ./build/obj/vectors.o
Vector1A0                                         ./build/obj/vectors.o
Vector1A4                                         ./build/obj/vectors.o
Vector1A8                                         ./build/obj/vectors.o
Vector1AC                                         ./build/obj/vectors.o
Vector1B0                                         ./build/obj/vectors.o
Vector1B4                                         ./build/obj/vectors.o
Vector1B8                                         ./build/obj/vectors.o
Vector1BC                                         ./build/obj/vectors.o
Vector1C0                                         ./build/obj/vectors.o
Vector1C4                                         ./build/obj/vectors.o
Vector1C8                                         ./build/obj/vectors.o
Vector1CC                                         ./build/obj/vectors.o
Vector1D0                                         ./build/obj/vectors.o
Vector1D4                                         ./build/obj/vectors.o
Vector1D8                                         ./build/obj/vectors.o
Vector1DC                                         ./build/obj/vectors.o
Vector20                                          ./build/obj/vectors.o
Vector24                                          ./build/obj/vectors.o
Vector28                                          ./build/obj/vectors.o
Vector34                                          ./build/obj/vectors.o
Vector40                                          ./build/obj/vectors.o
Vector44                                          ./build/obj/vectors.o
Vector48                                          ./build/obj/vectors.o
Vector4C                                          ./build/obj/vectors.o
Vector50                                          ./build/obj/vectors.o
Vector54                                          ./build/obj/vectors.o
Vector58                                          ./build/obj/vectors.o
Vector5C                                          ./build/obj/vectors.o
Vector60                                          ./build/obj/vectors.o
Vector64                                          ./build/obj/vectors.o
Vector68                                          ./build/obj/vectors.o
Vector6C                                          ./build/obj/vectors.o
Vector70                                          ./build/obj/vectors.o
Vector74                                          ./build/obj/vectors.o
Vector78                                          ./build/obj/vectors.o
Vector7C                                          ./build/obj/vectors.o
Vector80                                          ./build/obj/vectors.o
Vector84                                          ./build/obj/vectors.o
Vector88                                          ./build/obj/vectors.o
Vector8C                                          ./build/obj/vectors.o
Vector90                                          ./build/obj/vectors.o
Vector94                                          ./build/obj/vectors.o
Vector98                                          ./build/obj/vectors.o
Vector9C                                          ./build/obj/vectors.o
VectorA0                                          ./build/obj/vectors.o
VectorA4                                          ./build/obj/vectors.o
VectorA8                                          ./build/obj/vectors.o
VectorAC                                          ./build/obj/vectors.o
VectorB0                                          C:\Users\Ridwane\AppData\Local\Temp\ccG6qa3f.ltrans0.ltrans.o
                                                  ./build/obj/stm32_isr.o (symbol from plugin)
                                                  ./build/obj/vectors.o
VectorB4                                          ./build/obj/vectors.o
VectorB8                                          ./build/obj/vectors.o
VectorBC                                          ./build/obj/vectors.o
VectorC0                                          ./build/obj/vectors.o
VectorC4                                          ./build/obj/vectors.o
VectorC8                                          ./build/obj/vectors.o
VectorCC                                          ./build/obj/vectors.o
VectorD0                                          ./build/obj/vectors.o
VectorD4                                          C:\Users\Ridwane\AppData\Local\Temp\ccG6qa3f.ltrans0.ltrans.o
                                                  ./build/obj/stm32_isr.o (symbol from plugin)
                                                  ./build/obj/vectors.o
VectorD8                                          C:\Users\Ridwane\AppData\Local\Temp\ccG6qa3f.ltrans0.ltrans.o
                                                  ./build/obj/stm32_isr.o (symbol from plugin)
                                                  ./build/obj/vectors.o
VectorDC                                          ./build/obj/vectors.o
VectorE0                                          ./build/obj/vectors.o
VectorE4                                          ./build/obj/vectors.o
VectorE8                                          ./build/obj/vectors.o
VectorEC                                          ./build/obj/vectors.o
VectorF0                                          ./build/obj/vectors.o
VectorF4                                          ./build/obj/vectors.o
VectorF8                                          ./build/obj/vectors.o
VectorFC                                          ./build/obj/vectors.o
__assert                                          c:/chibistudio/tools/gnu tools arm embedded/11.3 2022.08/bin/../lib/gcc/arm-none-eabi/11.3.1/thumb/v7e-m/nofp\libg_nano.a(libc_a-assert.o)
__assert_func                                     c:/chibistudio/tools/gnu tools arm embedded/11.3 2022.08/bin/../lib/gcc/arm-none-eabi/11.3.1/thumb/v7e-m/nofp\libg_nano.a(libc_a-assert.o)
                                                  c:/chibistudio/tools/gnu tools arm embedded/11.3 2022.08/bin/../lib/gcc/arm-none-eabi/11.3.1/thumb/v7e-m/nofp\libg_nano.a(libc_a-rand.o)
__bss_base__                                      C:\Users\Ridwane\AppData\Local\Temp\ccG6qa3f.ltrans1.ltrans.o
                                                  ./build/obj/ch_test.o (symbol from plugin)
                                                  ./build/obj/crt0_v7m.o
__bss_end__                                       C:\Users\Ridwane\AppData\Local\Temp\ccG6qa3f.ltrans1.ltrans.o
                                                  ./build/obj/ch_test.o (symbol from plugin)
                                                  ./build/obj/crt0_v7m.o
__ch_delegate_fn0                                 ./build/obj/chdelegates.o (symbol from plugin)
                                                  ./build/obj/oslib_test_sequence_005.o (symbol from plugin)
__ch_delegate_fn1                                 ./build/obj/chdelegates.o (symbol from plugin)
                                                  ./build/obj/oslib_test_sequence_005.o (symbol from plugin)
__ch_delegate_fn2                                 ./build/obj/chdelegates.o (symbol from plugin)
                                                  ./build/obj/oslib_test_sequence_005.o (symbol from plugin)
__ch_delegate_fn3                                 ./build/obj/chdelegates.o (symbol from plugin)
                                                  ./build/obj/oslib_test_sequence_005.o (symbol from plugin)
__ch_delegate_fn4                                 ./build/obj/chdelegates.o (symbol from plugin)
                                                  ./build/obj/oslib_test_sequence_005.o (symbol from plugin)
__core_init                                       ./build/obj/chmemcore.o (symbol from plugin)
                                                  ./build/obj/chsys.o (symbol from plugin)
__cpu_init                                        C:\Users\Ridwane\AppData\Local\Temp\ccG6qa3f.ltrans0.ltrans.o
                                                  ./build/obj/crt1.o (symbol from plugin)
                                                  ./build/obj/crt0_v7m.o
__cxa_pure_virtual                                ./build/obj/syscalls.o (symbol from plugin)
__data_base__                                     C:\Users\Ridwane\AppData\Local\Temp\ccG6qa3f.ltrans1.ltrans.o
                                                  ./build/obj/ch_test.o (symbol from plugin)
                                                  ./build/obj/crt0_v7m.o
__data_end__                                      C:\Users\Ridwane\AppData\Local\Temp\ccG6qa3f.ltrans1.ltrans.o
                                                  ./build/obj/ch_test.o (symbol from plugin)
                                                  ./build/obj/crt0_v7m.o
__default_exit                                    C:\Users\Ridwane\AppData\Local\Temp\ccG6qa3f.ltrans0.ltrans.o
                                                  ./build/obj/crt1.o (symbol from plugin)
                                                  ./build/obj/crt0_v7m.o
__early_init                                      C:\Users\Ridwane\AppData\Local\Temp\ccG6qa3f.ltrans0.ltrans.o
                                                  ./build/obj/board.o (symbol from plugin)
                                                  ./build/obj/crt1.o (symbol from plugin)
                                                  ./build/obj/crt0_v7m.o
__errno                                           c:/chibistudio/tools/gnu tools arm embedded/11.3 2022.08/bin/../lib/gcc/arm-none-eabi/11.3.1/thumb/v7e-m/nofp\libg_nano.a(libc_a-errno.o)
                                                  C:\Users\Ridwane\AppData\Local\Temp\ccG6qa3f.ltrans1.ltrans.o
                                                  ./build/obj/randombytes.o (symbol from plugin)
__factory_init                                    ./build/obj/chfactory.o (symbol from plugin)
                                                  ./build/obj/chsys.o (symbol from plugin)
__fini_array_base__                               ./build/obj/crt0_v7m.o
__fini_array_end__                                ./build/obj/crt0_v7m.o
__fp_lock_all                                     c:/chibistudio/tools/gnu tools arm embedded/11.3 2022.08/bin/../lib/gcc/arm-none-eabi/11.3.1/thumb/v7e-m/nofp\libg_nano.a(libc_a-findfp.o)
__fp_unlock_all                                   c:/chibistudio/tools/gnu tools arm embedded/11.3 2022.08/bin/../lib/gcc/arm-none-eabi/11.3.1/thumb/v7e-m/nofp\libg_nano.a(libc_a-findfp.o)
__heap_base__                                     C:\Users\Ridwane\AppData\Local\Temp\ccG6qa3f.ltrans1.ltrans.o
                                                  ./build/obj/chmemcore.o (symbol from plugin)
__heap_end__                                      C:\Users\Ridwane\AppData\Local\Temp\ccG6qa3f.ltrans1.ltrans.o
                                                  ./build/obj/chmemcore.o (symbol from plugin)
__heap_init                                       ./build/obj/chmemheaps.o (symbol from plugin)
                                                  ./build/obj/chsys.o (symbol from plugin)
__idle_thread.lto_priv.0                          C:\Users\Ridwane\AppData\Local\Temp\ccG6qa3f.ltrans0.ltrans.o
                                                  C:\Users\Ridwane\AppData\Local\Temp\ccG6qa3f.ltrans1.ltrans.o
__init_array_base__                               ./build/obj/crt0_v7m.o
__init_array_end__                                ./build/obj/crt0_v7m.o
__init_ram_areas                                  C:\Users\Ridwane\AppData\Local\Temp\ccG6qa3f.ltrans0.ltrans.o
                                                  ./build/obj/crt1.o (symbol from plugin)
                                                  ./build/obj/crt0_v7m.o
__late_init                                       C:\Users\Ridwane\AppData\Local\Temp\ccG6qa3f.ltrans0.ltrans.o
                                                  ./build/obj/crt1.o (symbol from plugin)
                                                  ./build/obj/crt0_v7m.o
__lock___arc4random_mutex                         c:/chibistudio/tools/gnu tools arm embedded/11.3 2022.08/bin/../lib/gcc/arm-none-eabi/11.3.1/thumb/v7e-m/nofp\libg_nano.a(libc_a-lock.o)
__lock___at_quick_exit_mutex                      c:/chibistudio/tools/gnu tools arm embedded/11.3 2022.08/bin/../lib/gcc/arm-none-eabi/11.3.1/thumb/v7e-m/nofp\libg_nano.a(libc_a-lock.o)
__lock___atexit_recursive_mutex                   c:/chibistudio/tools/gnu tools arm embedded/11.3 2022.08/bin/../lib/gcc/arm-none-eabi/11.3.1/thumb/v7e-m/nofp\libg_nano.a(libc_a-lock.o)
__lock___dd_hash_mutex                            c:/chibistudio/tools/gnu tools arm embedded/11.3 2022.08/bin/../lib/gcc/arm-none-eabi/11.3.1/thumb/v7e-m/nofp\libg_nano.a(libc_a-lock.o)
__lock___env_recursive_mutex                      c:/chibistudio/tools/gnu tools arm embedded/11.3 2022.08/bin/../lib/gcc/arm-none-eabi/11.3.1/thumb/v7e-m/nofp\libg_nano.a(libc_a-lock.o)
__lock___malloc_recursive_mutex                   c:/chibistudio/tools/gnu tools arm embedded/11.3 2022.08/bin/../lib/gcc/arm-none-eabi/11.3.1/thumb/v7e-m/nofp\libg_nano.a(libc_a-lock.o)
                                                  c:/chibistudio/tools/gnu tools arm embedded/11.3 2022.08/bin/../lib/gcc/arm-none-eabi/11.3.1/thumb/v7e-m/nofp\libg_nano.a(libc_a-mlock.o)
__lock___sfp_recursive_mutex                      c:/chibistudio/tools/gnu tools arm embedded/11.3 2022.08/bin/../lib/gcc/arm-none-eabi/11.3.1/thumb/v7e-m/nofp\libg_nano.a(libc_a-lock.o)
                                                  c:/chibistudio/tools/gnu tools arm embedded/11.3 2022.08/bin/../lib/gcc/arm-none-eabi/11.3.1/thumb/v7e-m/nofp\libg_nano.a(libc_a-findfp.o)
__lock___tz_mutex                                 c:/chibistudio/tools/gnu tools arm embedded/11.3 2022.08/bin/../lib/gcc/arm-none-eabi/11.3.1/thumb/v7e-m/nofp\libg_nano.a(libc_a-lock.o)
__main_stack_base__                               ./build/obj/crt0_v7m.o
__main_stack_end__                                ./build/obj/vectors.o
                                                  ./build/obj/crt0_v7m.o
__malloc_free_list                                c:/chibistudio/tools/gnu tools arm embedded/11.3 2022.08/bin/../lib/gcc/arm-none-eabi/11.3.1/thumb/v7e-m/nofp\libg_nano.a(libc_a-mallocr.o)
                                                  c:/chibistudio/tools/gnu tools arm embedded/11.3 2022.08/bin/../lib/gcc/arm-none-eabi/11.3.1/thumb/v7e-m/nofp\libg_nano.a(libc_a-freer.o)
__malloc_lock                                     c:/chibistudio/tools/gnu tools arm embedded/11.3 2022.08/bin/../lib/gcc/arm-none-eabi/11.3.1/thumb/v7e-m/nofp\libg_nano.a(libc_a-mlock.o)
                                                  c:/chibistudio/tools/gnu tools arm embedded/11.3 2022.08/bin/../lib/gcc/arm-none-eabi/11.3.1/thumb/v7e-m/nofp\libg_nano.a(libc_a-freer.o)
                                                  c:/chibistudio/tools/gnu tools arm embedded/11.3 2022.08/bin/../lib/gcc/arm-none-eabi/11.3.1/thumb/v7e-m/nofp\libg_nano.a(libc_a-mallocr.o)
__malloc_sbrk_start                               c:/chibistudio/tools/gnu tools arm embedded/11.3 2022.08/bin/../lib/gcc/arm-none-eabi/11.3.1/thumb/v7e-m/nofp\libg_nano.a(libc_a-mallocr.o)
__malloc_unlock                                   c:/chibistudio/tools/gnu tools arm embedded/11.3 2022.08/bin/../lib/gcc/arm-none-eabi/11.3.1/thumb/v7e-m/nofp\libg_nano.a(libc_a-mlock.o)
                                                  c:/chibistudio/tools/gnu tools arm embedded/11.3 2022.08/bin/../lib/gcc/arm-none-eabi/11.3.1/thumb/v7e-m/nofp\libg_nano.a(libc_a-freer.o)
                                                  c:/chibistudio/tools/gnu tools arm embedded/11.3 2022.08/bin/../lib/gcc/arm-none-eabi/11.3.1/thumb/v7e-m/nofp\libg_nano.a(libc_a-mallocr.o)
__port_exit_from_isr                              ./build/obj/chcoreasm.o
                                                  C:\Users\Ridwane\AppData\Local\Temp\ccG6qa3f.ltrans0.ltrans.o
                                                  ./build/obj/chcore.o (symbol from plugin)
__port_irq_epilogue                               ./build/obj/chcore.o (symbol from plugin)
                                                  ./build/obj/stm32_isr.o (symbol from plugin)
__port_switch                                     ./build/obj/chcoreasm.o
                                                  C:\Users\Ridwane\AppData\Local\Temp\ccG6qa3f.ltrans1.ltrans.o
                                                  C:\Users\Ridwane\AppData\Local\Temp\ccG6qa3f.ltrans0.ltrans.o
                                                  ./build/obj/chschd.o (symbol from plugin)
__port_switch_from_isr                            ./build/obj/chcoreasm.o
                                                  C:\Users\Ridwane\AppData\Local\Temp\ccG6qa3f.ltrans0.ltrans.o
                                                  ./build/obj/chcore.o (symbol from plugin)
__port_thread_start                               ./build/obj/chcoreasm.o
                                                  C:\Users\Ridwane\AppData\Local\Temp\ccG6qa3f.ltrans0.ltrans.o
                                                  ./build/obj/chthreads.o (symbol from plugin)
__process_stack_base__                            ./build/obj/crt0_v7m.o
__process_stack_end__                             ./build/obj/crt0_v7m.o
__ram0_clear__                                    C:\Users\Ridwane\AppData\Local\Temp\ccG6qa3f.ltrans0.ltrans.o
                                                  ./build/obj/crt1.o (symbol from plugin)
__ram0_init__                                     C:\Users\Ridwane\AppData\Local\Temp\ccG6qa3f.ltrans0.ltrans.o
                                                  ./build/obj/crt1.o (symbol from plugin)
__ram0_init_text__                                C:\Users\Ridwane\AppData\Local\Temp\ccG6qa3f.ltrans0.ltrans.o
                                                  ./build/obj/crt1.o (symbol from plugin)
__ram0_noinit__                                   C:\Users\Ridwane\AppData\Local\Temp\ccG6qa3f.ltrans0.ltrans.o
                                                  ./build/obj/crt1.o (symbol from plugin)
__ram1_clear__                                    C:\Users\Ridwane\AppData\Local\Temp\ccG6qa3f.ltrans0.ltrans.o
                                                  ./build/obj/crt1.o (symbol from plugin)
__ram1_init__                                     C:\Users\Ridwane\AppData\Local\Temp\ccG6qa3f.ltrans0.ltrans.o
                                                  ./build/obj/crt1.o (symbol from plugin)
__ram1_init_text__                                C:\Users\Ridwane\AppData\Local\Temp\ccG6qa3f.ltrans0.ltrans.o
                                                  ./build/obj/crt1.o (symbol from plugin)
__ram1_noinit__                                   C:\Users\Ridwane\AppData\Local\Temp\ccG6qa3f.ltrans0.ltrans.o
                                                  ./build/obj/crt1.o (symbol from plugin)
__ram2_clear__                                    C:\Users\Ridwane\AppData\Local\Temp\ccG6qa3f.ltrans0.ltrans.o
                                                  ./build/obj/crt1.o (symbol from plugin)
__ram2_init__                                     C:\Users\Ridwane\AppData\Local\Temp\ccG6qa3f.ltrans0.ltrans.o
                                                  ./build/obj/crt1.o (symbol from plugin)
__ram2_init_text__                                C:\Users\Ridwane\AppData\Local\Temp\ccG6qa3f.ltrans0.ltrans.o
                                                  ./build/obj/crt1.o (symbol from plugin)
__ram2_noinit__                                   C:\Users\Ridwane\AppData\Local\Temp\ccG6qa3f.ltrans0.ltrans.o
                                                  ./build/obj/crt1.o (symbol from plugin)
__ram3_clear__                                    C:\Users\Ridwane\AppData\Local\Temp\ccG6qa3f.ltrans0.ltrans.o
                                                  ./build/obj/crt1.o (symbol from plugin)
__ram3_init__                                     C:\Users\Ridwane\AppData\Local\Temp\ccG6qa3f.ltrans0.ltrans.o
                                                  ./build/obj/crt1.o (symbol from plugin)
__ram3_init_text__                                C:\Users\Ridwane\AppData\Local\Temp\ccG6qa3f.ltrans0.ltrans.o
                                                  ./build/obj/crt1.o (symbol from plugin)
__ram3_noinit__                                   C:\Users\Ridwane\AppData\Local\Temp\ccG6qa3f.ltrans0.ltrans.o
                                                  ./build/obj/crt1.o (symbol from plugin)
__ram4_clear__                                    C:\Users\Ridwane\AppData\Local\Temp\ccG6qa3f.ltrans0.ltrans.o
                                                  ./build/obj/crt1.o (symbol from plugin)
__ram4_init__                                     C:\Users\Ridwane\AppData\Local\Temp\ccG6qa3f.ltrans0.ltrans.o
                                                  ./build/obj/crt1.o (symbol from plugin)
__ram4_init_text__                                C:\Users\Ridwane\AppData\Local\Temp\ccG6qa3f.ltrans0.ltrans.o
                                                  ./build/obj/crt1.o (symbol from plugin)
__ram4_noinit__                                   C:\Users\Ridwane\AppData\Local\Temp\ccG6qa3f.ltrans0.ltrans.o
                                                  ./build/obj/crt1.o (symbol from plugin)
__ram5_clear__                                    C:\Users\Ridwane\AppData\Local\Temp\ccG6qa3f.ltrans0.ltrans.o
                                                  ./build/obj/crt1.o (symbol from plugin)
__ram5_init__                                     C:\Users\Ridwane\AppData\Local\Temp\ccG6qa3f.ltrans0.ltrans.o
                                                  ./build/obj/crt1.o (symbol from plugin)
__ram5_init_text__                                C:\Users\Ridwane\AppData\Local\Temp\ccG6qa3f.ltrans0.ltrans.o
                                                  ./build/obj/crt1.o (symbol from plugin)
__ram5_noinit__                                   C:\Users\Ridwane\AppData\Local\Temp\ccG6qa3f.ltrans0.ltrans.o
                                                  ./build/obj/crt1.o (symbol from plugin)
__ram6_clear__                                    C:\Users\Ridwane\AppData\Local\Temp\ccG6qa3f.ltrans0.ltrans.o
                                                  ./build/obj/crt1.o (symbol from plugin)
__ram6_init__                                     C:\Users\Ridwane\AppData\Local\Temp\ccG6qa3f.ltrans0.ltrans.o
                                                  ./build/obj/crt1.o (symbol from plugin)
__ram6_init_text__                                C:\Users\Ridwane\AppData\Local\Temp\ccG6qa3f.ltrans0.ltrans.o
                                                  ./build/obj/crt1.o (symbol from plugin)
__ram6_noinit__                                   C:\Users\Ridwane\AppData\Local\Temp\ccG6qa3f.ltrans0.ltrans.o
                                                  ./build/obj/crt1.o (symbol from plugin)
__ram7_clear__                                    C:\Users\Ridwane\AppData\Local\Temp\ccG6qa3f.ltrans0.ltrans.o
                                                  ./build/obj/crt1.o (symbol from plugin)
__ram7_init__                                     C:\Users\Ridwane\AppData\Local\Temp\ccG6qa3f.ltrans0.ltrans.o
                                                  ./build/obj/crt1.o (symbol from plugin)
__ram7_init_text__                                C:\Users\Ridwane\AppData\Local\Temp\ccG6qa3f.ltrans0.ltrans.o
                                                  ./build/obj/crt1.o (symbol from plugin)
__ram7_noinit__                                   C:\Users\Ridwane\AppData\Local\Temp\ccG6qa3f.ltrans0.ltrans.o
                                                  ./build/obj/crt1.o (symbol from plugin)
__retarget_lock_acquire                           c:/chibistudio/tools/gnu tools arm embedded/11.3 2022.08/bin/../lib/gcc/arm-none-eabi/11.3.1/thumb/v7e-m/nofp\libg_nano.a(libc_a-lock.o)
__retarget_lock_acquire_recursive                 c:/chibistudio/tools/gnu tools arm embedded/11.3 2022.08/bin/../lib/gcc/arm-none-eabi/11.3.1/thumb/v7e-m/nofp\libg_nano.a(libc_a-lock.o)
                                                  c:/chibistudio/tools/gnu tools arm embedded/11.3 2022.08/bin/../lib/gcc/arm-none-eabi/11.3.1/thumb/v7e-m/nofp\libg_nano.a(libc_a-fflush.o)
                                                  c:/chibistudio/tools/gnu tools arm embedded/11.3 2022.08/bin/../lib/gcc/arm-none-eabi/11.3.1/thumb/v7e-m/nofp\libg_nano.a(libc_a-findfp.o)
                                                  c:/chibistudio/tools/gnu tools arm embedded/11.3 2022.08/bin/../lib/gcc/arm-none-eabi/11.3.1/thumb/v7e-m/nofp\libg_nano.a(libc_a-nano-vfprintf.o)
                                                  c:/chibistudio/tools/gnu tools arm embedded/11.3 2022.08/bin/../lib/gcc/arm-none-eabi/11.3.1/thumb/v7e-m/nofp\libg_nano.a(libc_a-mlock.o)
__retarget_lock_close                             c:/chibistudio/tools/gnu tools arm embedded/11.3 2022.08/bin/../lib/gcc/arm-none-eabi/11.3.1/thumb/v7e-m/nofp\libg_nano.a(libc_a-lock.o)
__retarget_lock_close_recursive                   c:/chibistudio/tools/gnu tools arm embedded/11.3 2022.08/bin/../lib/gcc/arm-none-eabi/11.3.1/thumb/v7e-m/nofp\libg_nano.a(libc_a-lock.o)
__retarget_lock_init                              c:/chibistudio/tools/gnu tools arm embedded/11.3 2022.08/bin/../lib/gcc/arm-none-eabi/11.3.1/thumb/v7e-m/nofp\libg_nano.a(libc_a-lock.o)
__retarget_lock_init_recursive                    c:/chibistudio/tools/gnu tools arm embedded/11.3 2022.08/bin/../lib/gcc/arm-none-eabi/11.3.1/thumb/v7e-m/nofp\libg_nano.a(libc_a-lock.o)
                                                  c:/chibistudio/tools/gnu tools arm embedded/11.3 2022.08/bin/../lib/gcc/arm-none-eabi/11.3.1/thumb/v7e-m/nofp\libg_nano.a(libc_a-findfp.o)
__retarget_lock_release                           c:/chibistudio/tools/gnu tools arm embedded/11.3 2022.08/bin/../lib/gcc/arm-none-eabi/11.3.1/thumb/v7e-m/nofp\libg_nano.a(libc_a-lock.o)
__retarget_lock_release_recursive                 c:/chibistudio/tools/gnu tools arm embedded/11.3 2022.08/bin/../lib/gcc/arm-none-eabi/11.3.1/thumb/v7e-m/nofp\libg_nano.a(libc_a-lock.o)
                                                  c:/chibistudio/tools/gnu tools arm embedded/11.3 2022.08/bin/../lib/gcc/arm-none-eabi/11.3.1/thumb/v7e-m/nofp\libg_nano.a(libc_a-fflush.o)
                                                  c:/chibistudio/tools/gnu tools arm embedded/11.3 2022.08/bin/../lib/gcc/arm-none-eabi/11.3.1/thumb/v7e-m/nofp\libg_nano.a(libc_a-findfp.o)
                                                  c:/chibistudio/tools/gnu tools arm embedded/11.3 2022.08/bin/../lib/gcc/arm-none-eabi/11.3.1/thumb/v7e-m/nofp\libg_nano.a(libc_a-nano-vfprintf.o)
                                                  c:/chibistudio/tools/gnu tools arm embedded/11.3 2022.08/bin/../lib/gcc/arm-none-eabi/11.3.1/thumb/v7e-m/nofp\libg_nano.a(libc_a-mlock.o)
__retarget_lock_try_acquire                       c:/chibistudio/tools/gnu tools arm embedded/11.3 2022.08/bin/../lib/gcc/arm-none-eabi/11.3.1/thumb/v7e-m/nofp\libg_nano.a(libc_a-lock.o)
__retarget_lock_try_acquire_recursive             c:/chibistudio/tools/gnu tools arm embedded/11.3 2022.08/bin/../lib/gcc/arm-none-eabi/11.3.1/thumb/v7e-m/nofp\libg_nano.a(libc_a-lock.o)
__rodata_base__                                   C:\Users\Ridwane\AppData\Local\Temp\ccG6qa3f.ltrans1.ltrans.o
                                                  ./build/obj/ch_test.o (symbol from plugin)
__rodata_end__                                    C:\Users\Ridwane\AppData\Local\Temp\ccG6qa3f.ltrans1.ltrans.o
                                                  ./build/obj/ch_test.o (symbol from plugin)
__sch_reschedule_ahead.lto_priv.0                 C:\Users\Ridwane\AppData\Local\Temp\ccG6qa3f.ltrans0.ltrans.o
                                                  C:\Users\Ridwane\AppData\Local\Temp\ccG6qa3f.ltrans1.ltrans.o
__sch_wakeup.lto_priv.0                           C:\Users\Ridwane\AppData\Local\Temp\ccG6qa3f.ltrans0.ltrans.o
                                                  C:\Users\Ridwane\AppData\Local\Temp\ccG6qa3f.ltrans1.ltrans.o
__sclose                                          c:/chibistudio/tools/gnu tools arm embedded/11.3 2022.08/bin/../lib/gcc/arm-none-eabi/11.3.1/thumb/v7e-m/nofp\libg_nano.a(libc_a-stdio.o)
                                                  c:/chibistudio/tools/gnu tools arm embedded/11.3 2022.08/bin/../lib/gcc/arm-none-eabi/11.3.1/thumb/v7e-m/nofp\libg_nano.a(libc_a-findfp.o)
__seofread                                        c:/chibistudio/tools/gnu tools arm embedded/11.3 2022.08/bin/../lib/gcc/arm-none-eabi/11.3.1/thumb/v7e-m/nofp\libg_nano.a(libc_a-stdio.o)
__sf                                              c:/chibistudio/tools/gnu tools arm embedded/11.3 2022.08/bin/../lib/gcc/arm-none-eabi/11.3.1/thumb/v7e-m/nofp\libg_nano.a(libc_a-findfp.o)
                                                  c:/chibistudio/tools/gnu tools arm embedded/11.3 2022.08/bin/../lib/gcc/arm-none-eabi/11.3.1/thumb/v7e-m/nofp\libg_nano.a(libc_a-impure.o)
__sflush_r                                        c:/chibistudio/tools/gnu tools arm embedded/11.3 2022.08/bin/../lib/gcc/arm-none-eabi/11.3.1/thumb/v7e-m/nofp\libg_nano.a(libc_a-fflush.o)
__sfp                                             c:/chibistudio/tools/gnu tools arm embedded/11.3 2022.08/bin/../lib/gcc/arm-none-eabi/11.3.1/thumb/v7e-m/nofp\libg_nano.a(libc_a-findfp.o)
__sfp_lock_acquire                                c:/chibistudio/tools/gnu tools arm embedded/11.3 2022.08/bin/../lib/gcc/arm-none-eabi/11.3.1/thumb/v7e-m/nofp\libg_nano.a(libc_a-findfp.o)
__sfp_lock_release                                c:/chibistudio/tools/gnu tools arm embedded/11.3 2022.08/bin/../lib/gcc/arm-none-eabi/11.3.1/thumb/v7e-m/nofp\libg_nano.a(libc_a-findfp.o)
__sfputs_r                                        c:/chibistudio/tools/gnu tools arm embedded/11.3 2022.08/bin/../lib/gcc/arm-none-eabi/11.3.1/thumb/v7e-m/nofp\libg_nano.a(libc_a-nano-vfprintf.o)
__sfvwrite_r                                      c:/chibistudio/tools/gnu tools arm embedded/11.3 2022.08/bin/../lib/gcc/arm-none-eabi/11.3.1/thumb/v7e-m/nofp\libg_nano.a(libc_a-fvwrite.o)
                                                  c:/chibistudio/tools/gnu tools arm embedded/11.3 2022.08/bin/../lib/gcc/arm-none-eabi/11.3.1/thumb/v7e-m/nofp\libg_nano.a(libc_a-nano-vfprintf.o)
__sglue                                           c:/chibistudio/tools/gnu tools arm embedded/11.3 2022.08/bin/../lib/gcc/arm-none-eabi/11.3.1/thumb/v7e-m/nofp\libg_nano.a(libc_a-findfp.o)
                                                  c:/chibistudio/tools/gnu tools arm embedded/11.3 2022.08/bin/../lib/gcc/arm-none-eabi/11.3.1/thumb/v7e-m/nofp\libg_nano.a(libc_a-fflush.o)
__sigtramp                                        c:/chibistudio/tools/gnu tools arm embedded/11.3 2022.08/bin/../lib/gcc/arm-none-eabi/11.3.1/thumb/v7e-m/nofp\libg_nano.a(libc_a-signal.o)
__sigtramp_r                                      c:/chibistudio/tools/gnu tools arm embedded/11.3 2022.08/bin/../lib/gcc/arm-none-eabi/11.3.1/thumb/v7e-m/nofp\libg_nano.a(libc_a-signal.o)
__sinit                                           c:/chibistudio/tools/gnu tools arm embedded/11.3 2022.08/bin/../lib/gcc/arm-none-eabi/11.3.1/thumb/v7e-m/nofp\libg_nano.a(libc_a-findfp.o)
                                                  c:/chibistudio/tools/gnu tools arm embedded/11.3 2022.08/bin/../lib/gcc/arm-none-eabi/11.3.1/thumb/v7e-m/nofp\libg_nano.a(libc_a-fflush.o)
                                                  c:/chibistudio/tools/gnu tools arm embedded/11.3 2022.08/bin/../lib/gcc/arm-none-eabi/11.3.1/thumb/v7e-m/nofp\libg_nano.a(libc_a-wsetup.o)
                                                  c:/chibistudio/tools/gnu tools arm embedded/11.3 2022.08/bin/../lib/gcc/arm-none-eabi/11.3.1/thumb/v7e-m/nofp\libg_nano.a(libc_a-wbuf.o)
                                                  c:/chibistudio/tools/gnu tools arm embedded/11.3 2022.08/bin/../lib/gcc/arm-none-eabi/11.3.1/thumb/v7e-m/nofp\libg_nano.a(libc_a-nano-vfprintf.o)
__smakebuf_r                                      c:/chibistudio/tools/gnu tools arm embedded/11.3 2022.08/bin/../lib/gcc/arm-none-eabi/11.3.1/thumb/v7e-m/nofp\libg_nano.a(libc_a-makebuf.o)
                                                  c:/chibistudio/tools/gnu tools arm embedded/11.3 2022.08/bin/../lib/gcc/arm-none-eabi/11.3.1/thumb/v7e-m/nofp\libg_nano.a(libc_a-wsetup.o)
__sprint_r                                        c:/chibistudio/tools/gnu tools arm embedded/11.3 2022.08/bin/../lib/gcc/arm-none-eabi/11.3.1/thumb/v7e-m/nofp\libg_nano.a(libc_a-nano-vfprintf.o)
__sread                                           c:/chibistudio/tools/gnu tools arm embedded/11.3 2022.08/bin/../lib/gcc/arm-none-eabi/11.3.1/thumb/v7e-m/nofp\libg_nano.a(libc_a-stdio.o)
                                                  c:/chibistudio/tools/gnu tools arm embedded/11.3 2022.08/bin/../lib/gcc/arm-none-eabi/11.3.1/thumb/v7e-m/nofp\libg_nano.a(libc_a-findfp.o)
__sseek                                           c:/chibistudio/tools/gnu tools arm embedded/11.3 2022.08/bin/../lib/gcc/arm-none-eabi/11.3.1/thumb/v7e-m/nofp\libg_nano.a(libc_a-stdio.o)
                                                  c:/chibistudio/tools/gnu tools arm embedded/11.3 2022.08/bin/../lib/gcc/arm-none-eabi/11.3.1/thumb/v7e-m/nofp\libg_nano.a(libc_a-findfp.o)
__stdio_exit_handler                              c:/chibistudio/tools/gnu tools arm embedded/11.3 2022.08/bin/../lib/gcc/arm-none-eabi/11.3.1/thumb/v7e-m/nofp\libg_nano.a(libc_a-findfp.o)
__swbuf                                           c:/chibistudio/tools/gnu tools arm embedded/11.3 2022.08/bin/../lib/gcc/arm-none-eabi/11.3.1/thumb/v7e-m/nofp\libg_nano.a(libc_a-wbuf.o)
__swbuf_r                                         c:/chibistudio/tools/gnu tools arm embedded/11.3 2022.08/bin/../lib/gcc/arm-none-eabi/11.3.1/thumb/v7e-m/nofp\libg_nano.a(libc_a-wbuf.o)
                                                  c:/chibistudio/tools/gnu tools arm embedded/11.3 2022.08/bin/../lib/gcc/arm-none-eabi/11.3.1/thumb/v7e-m/nofp\libg_nano.a(libc_a-nano-vfprintf.o)
__swhatbuf_r                                      c:/chibistudio/tools/gnu tools arm embedded/11.3 2022.08/bin/../lib/gcc/arm-none-eabi/11.3.1/thumb/v7e-m/nofp\libg_nano.a(libc_a-makebuf.o)
__swrite                                          c:/chibistudio/tools/gnu tools arm embedded/11.3 2022.08/bin/../lib/gcc/arm-none-eabi/11.3.1/thumb/v7e-m/nofp\libg_nano.a(libc_a-stdio.o)
                                                  c:/chibistudio/tools/gnu tools arm embedded/11.3 2022.08/bin/../lib/gcc/arm-none-eabi/11.3.1/thumb/v7e-m/nofp\libg_nano.a(libc_a-findfp.o)
__swsetup_r                                       c:/chibistudio/tools/gnu tools arm embedded/11.3 2022.08/bin/../lib/gcc/arm-none-eabi/11.3.1/thumb/v7e-m/nofp\libg_nano.a(libc_a-wsetup.o)
                                                  c:/chibistudio/tools/gnu tools arm embedded/11.3 2022.08/bin/../lib/gcc/arm-none-eabi/11.3.1/thumb/v7e-m/nofp\libg_nano.a(libc_a-wbuf.o)
                                                  c:/chibistudio/tools/gnu tools arm embedded/11.3 2022.08/bin/../lib/gcc/arm-none-eabi/11.3.1/thumb/v7e-m/nofp\libg_nano.a(libc_a-fvwrite.o)
                                                  c:/chibistudio/tools/gnu tools arm embedded/11.3 2022.08/bin/../lib/gcc/arm-none-eabi/11.3.1/thumb/v7e-m/nofp\libg_nano.a(libc_a-nano-vfprintf.o)
__test_assert                                     C:\Users\Ridwane\AppData\Local\Temp\ccG6qa3f.ltrans0.ltrans.o
                                                  ./build/obj/ch_test.o (symbol from plugin)
                                                  C:\Users\Ridwane\AppData\Local\Temp\ccG6qa3f.ltrans1.ltrans.o
                                                  ./build/obj/oslib_test_sequence_009.o (symbol from plugin)
                                                  ./build/obj/oslib_test_sequence_008.o (symbol from plugin)
                                                  ./build/obj/oslib_test_sequence_007.o (symbol from plugin)
                                                  ./build/obj/oslib_test_sequence_006.o (symbol from plugin)
                                                  ./build/obj/oslib_test_sequence_005.o (symbol from plugin)
                                                  ./build/obj/oslib_test_sequence_003.o (symbol from plugin)
                                                  ./build/obj/oslib_test_sequence_002.o (symbol from plugin)
                                                  ./build/obj/rt_test_sequence_011.o (symbol from plugin)
                                                  ./build/obj/rt_test_sequence_010.o (symbol from plugin)
                                                  ./build/obj/rt_test_sequence_008.o (symbol from plugin)
                                                  ./build/obj/rt_test_sequence_007.o (symbol from plugin)
                                                  ./build/obj/rt_test_sequence_006.o (symbol from plugin)
                                                  ./build/obj/rt_test_sequence_005.o (symbol from plugin)
                                                  ./build/obj/rt_test_sequence_004.o (symbol from plugin)
                                                  ./build/obj/rt_test_sequence_003.o (symbol from plugin)
                                                  ./build/obj/rt_test_sequence_002.o (symbol from plugin)
__test_assert_sequence                            ./build/obj/ch_test.o (symbol from plugin)
                                                  ./build/obj/oslib_test_sequence_006.o (symbol from plugin)
                                                  ./build/obj/oslib_test_sequence_005.o (symbol from plugin)
                                                  ./build/obj/oslib_test_sequence_004.o (symbol from plugin)
                                                  ./build/obj/oslib_test_sequence_002.o (symbol from plugin)
                                                  ./build/obj/rt_test_sequence_011.o (symbol from plugin)
                                                  ./build/obj/rt_test_sequence_010.o (symbol from plugin)
                                                  ./build/obj/rt_test_sequence_009.o (symbol from plugin)
                                                  ./build/obj/rt_test_sequence_008.o (symbol from plugin)
                                                  ./build/obj/rt_test_sequence_007.o (symbol from plugin)
                                                  ./build/obj/rt_test_sequence_005.o (symbol from plugin)
__test_assert_time_window                         ./build/obj/ch_test.o (symbol from plugin)
                                                  ./build/obj/rt_test_sequence_010.o (symbol from plugin)
                                                  ./build/obj/rt_test_sequence_007.o (symbol from plugin)
                                                  ./build/obj/rt_test_sequence_006.o (symbol from plugin)
                                                  ./build/obj/rt_test_sequence_005.o (symbol from plugin)
__test_fail                                       ./build/obj/ch_test.o (symbol from plugin)
__text_base__                                     C:\Users\Ridwane\AppData\Local\Temp\ccG6qa3f.ltrans1.ltrans.o
                                                  ./build/obj/ch_test.o (symbol from plugin)
__text_end__                                      C:\Users\Ridwane\AppData\Local\Temp\ccG6qa3f.ltrans1.ltrans.o
                                                  ./build/obj/ch_test.o (symbol from plugin)
__textdata_base__                                 ./build/obj/crt0_v7m.o
__thd_object_init                                 ./build/obj/chthreads.o (symbol from plugin)
                                                  ./build/obj/chinstances.o (symbol from plugin)
_close_r                                          C:\Users\Ridwane\AppData\Local\Temp\ccG6qa3f.ltrans1.ltrans.o
                                                  ./build/obj/syscalls.o (symbol from plugin)
                                                  c:/chibistudio/tools/gnu tools arm embedded/11.3 2022.08/bin/../lib/gcc/arm-none-eabi/11.3.1/thumb/v7e-m/nofp\libg_nano.a(libc_a-stdio.o)
_crt0_entry                                       ./build/obj/crt0_v7m.o
                                                  ./build/obj/vectors.o
_ctl.lto_priv.0                                   C:\Users\Ridwane\AppData\Local\Temp\ccG6qa3f.ltrans0.ltrans.o
                                                  C:\Users\Ridwane\AppData\Local\Temp\ccG6qa3f.ltrans1.ltrans.o
_exit                                             C:\Users\Ridwane\AppData\Local\Temp\ccG6qa3f.ltrans1.ltrans.o
                                                  ./build/obj/syscalls.o (symbol from plugin)
                                                  c:/chibistudio/tools/gnu tools arm embedded/11.3 2022.08/bin/../lib/gcc/arm-none-eabi/11.3.1/thumb/v7e-m/nofp\libg_nano.a(libc_a-abort.o)
_fflush_r                                         c:/chibistudio/tools/gnu tools arm embedded/11.3 2022.08/bin/../lib/gcc/arm-none-eabi/11.3.1/thumb/v7e-m/nofp\libg_nano.a(libc_a-fflush.o)
                                                  c:/chibistudio/tools/gnu tools arm embedded/11.3 2022.08/bin/../lib/gcc/arm-none-eabi/11.3.1/thumb/v7e-m/nofp\libg_nano.a(libc_a-wbuf.o)
                                                  c:/chibistudio/tools/gnu tools arm embedded/11.3 2022.08/bin/../lib/gcc/arm-none-eabi/11.3.1/thumb/v7e-m/nofp\libg_nano.a(libc_a-fvwrite.o)
                                                  c:/chibistudio/tools/gnu tools arm embedded/11.3 2022.08/bin/../lib/gcc/arm-none-eabi/11.3.1/thumb/v7e-m/nofp\libg_nano.a(libc_a-findfp.o)
_fiprintf_r                                       c:/chibistudio/tools/gnu tools arm embedded/11.3 2022.08/bin/../lib/gcc/arm-none-eabi/11.3.1/thumb/v7e-m/nofp\libg_nano.a(libc_a-fprintf.o)
_fprintf_r                                        c:/chibistudio/tools/gnu tools arm embedded/11.3 2022.08/bin/../lib/gcc/arm-none-eabi/11.3.1/thumb/v7e-m/nofp\libg_nano.a(libc_a-fprintf.o)
_free_r                                           c:/chibistudio/tools/gnu tools arm embedded/11.3 2022.08/bin/../lib/gcc/arm-none-eabi/11.3.1/thumb/v7e-m/nofp\libg_nano.a(libc_a-freer.o)
                                                  c:/chibistudio/tools/gnu tools arm embedded/11.3 2022.08/bin/../lib/gcc/arm-none-eabi/11.3.1/thumb/v7e-m/nofp\libg_nano.a(libc_a-reent.o)
                                                  c:/chibistudio/tools/gnu tools arm embedded/11.3 2022.08/bin/../lib/gcc/arm-none-eabi/11.3.1/thumb/v7e-m/nofp\libg_nano.a(libc_a-fflush.o)
                                                  c:/chibistudio/tools/gnu tools arm embedded/11.3 2022.08/bin/../lib/gcc/arm-none-eabi/11.3.1/thumb/v7e-m/nofp\libg_nano.a(libc_a-reallocr.o)
                                                  c:/chibistudio/tools/gnu tools arm embedded/11.3 2022.08/bin/../lib/gcc/arm-none-eabi/11.3.1/thumb/v7e-m/nofp\libg_nano.a(libc_a-wsetup.o)
                                                  c:/chibistudio/tools/gnu tools arm embedded/11.3 2022.08/bin/../lib/gcc/arm-none-eabi/11.3.1/thumb/v7e-m/nofp\libg_nano.a(libc_a-fvwrite.o)
                                                  c:/chibistudio/tools/gnu tools arm embedded/11.3 2022.08/bin/../lib/gcc/arm-none-eabi/11.3.1/thumb/v7e-m/nofp\libg_nano.a(libc_a-malloc.o)
_fstat_r                                          C:\Users\Ridwane\AppData\Local\Temp\ccG6qa3f.ltrans1.ltrans.o
                                                  ./build/obj/syscalls.o (symbol from plugin)
                                                  c:/chibistudio/tools/gnu tools arm embedded/11.3 2022.08/bin/../lib/gcc/arm-none-eabi/11.3.1/thumb/v7e-m/nofp\libg_nano.a(libc_a-makebuf.o)
_fwalk_sglue                                      c:/chibistudio/tools/gnu tools arm embedded/11.3 2022.08/bin/../lib/gcc/arm-none-eabi/11.3.1/thumb/v7e-m/nofp\libg_nano.a(libc_a-fwalk.o)
                                                  c:/chibistudio/tools/gnu tools arm embedded/11.3 2022.08/bin/../lib/gcc/arm-none-eabi/11.3.1/thumb/v7e-m/nofp\libg_nano.a(libc_a-fflush.o)
                                                  c:/chibistudio/tools/gnu tools arm embedded/11.3 2022.08/bin/../lib/gcc/arm-none-eabi/11.3.1/thumb/v7e-m/nofp\libg_nano.a(libc_a-findfp.o)
_get.lto_priv.0                                   C:\Users\Ridwane\AppData\Local\Temp\ccG6qa3f.ltrans0.ltrans.o
                                                  C:\Users\Ridwane\AppData\Local\Temp\ccG6qa3f.ltrans1.ltrans.o
_getpid                                           C:\Users\Ridwane\AppData\Local\Temp\ccG6qa3f.ltrans1.ltrans.o
                                                  ./build/obj/syscalls.o (symbol from plugin)
                                                  c:/chibistudio/tools/gnu tools arm embedded/11.3 2022.08/bin/../lib/gcc/arm-none-eabi/11.3.1/thumb/v7e-m/nofp\libg_nano.a(libc_a-signalr.o)
_getpid_r                                         c:/chibistudio/tools/gnu tools arm embedded/11.3 2022.08/bin/../lib/gcc/arm-none-eabi/11.3.1/thumb/v7e-m/nofp\libg_nano.a(libc_a-signalr.o)
                                                  c:/chibistudio/tools/gnu tools arm embedded/11.3 2022.08/bin/../lib/gcc/arm-none-eabi/11.3.1/thumb/v7e-m/nofp\libg_nano.a(libc_a-signal.o)
_gett.lto_priv.0                                  C:\Users\Ridwane\AppData\Local\Temp\ccG6qa3f.ltrans0.ltrans.o
                                                  C:\Users\Ridwane\AppData\Local\Temp\ccG6qa3f.ltrans1.ltrans.o
_impure_data                                      c:/chibistudio/tools/gnu tools arm embedded/11.3 2022.08/bin/../lib/gcc/arm-none-eabi/11.3.1/thumb/v7e-m/nofp\libg_nano.a(libc_a-impure.o)
                                                  c:/chibistudio/tools/gnu tools arm embedded/11.3 2022.08/bin/../lib/gcc/arm-none-eabi/11.3.1/thumb/v7e-m/nofp\libg_nano.a(libc_a-fflush.o)
                                                  c:/chibistudio/tools/gnu tools arm embedded/11.3 2022.08/bin/../lib/gcc/arm-none-eabi/11.3.1/thumb/v7e-m/nofp\libg_nano.a(libc_a-findfp.o)
_impure_ptr                                       c:/chibistudio/tools/gnu tools arm embedded/11.3 2022.08/bin/../lib/gcc/arm-none-eabi/11.3.1/thumb/v7e-m/nofp\libg_nano.a(libc_a-impure.o)
                                                  c:/chibistudio/tools/gnu tools arm embedded/11.3 2022.08/bin/../lib/gcc/arm-none-eabi/11.3.1/thumb/v7e-m/nofp\libg_nano.a(libc_a-reent.o)
                                                  c:/chibistudio/tools/gnu tools arm embedded/11.3 2022.08/bin/../lib/gcc/arm-none-eabi/11.3.1/thumb/v7e-m/nofp\libg_nano.a(libc_a-fflush.o)
                                                  c:/chibistudio/tools/gnu tools arm embedded/11.3 2022.08/bin/../lib/gcc/arm-none-eabi/11.3.1/thumb/v7e-m/nofp\libg_nano.a(libc_a-signal.o)
                                                  c:/chibistudio/tools/gnu tools arm embedded/11.3 2022.08/bin/../lib/gcc/arm-none-eabi/11.3.1/thumb/v7e-m/nofp\libg_nano.a(libc_a-wsetup.o)
                                                  c:/chibistudio/tools/gnu tools arm embedded/11.3 2022.08/bin/../lib/gcc/arm-none-eabi/11.3.1/thumb/v7e-m/nofp\libg_nano.a(libc_a-wbuf.o)
                                                  c:/chibistudio/tools/gnu tools arm embedded/11.3 2022.08/bin/../lib/gcc/arm-none-eabi/11.3.1/thumb/v7e-m/nofp\libg_nano.a(libc_a-nano-vfprintf.o)
                                                  c:/chibistudio/tools/gnu tools arm embedded/11.3 2022.08/bin/../lib/gcc/arm-none-eabi/11.3.1/thumb/v7e-m/nofp\libg_nano.a(libc_a-fprintf.o)
                                                  c:/chibistudio/tools/gnu tools arm embedded/11.3 2022.08/bin/../lib/gcc/arm-none-eabi/11.3.1/thumb/v7e-m/nofp\libg_nano.a(libc_a-malloc.o)
                                                  c:/chibistudio/tools/gnu tools arm embedded/11.3 2022.08/bin/../lib/gcc/arm-none-eabi/11.3.1/thumb/v7e-m/nofp\libg_nano.a(libc_a-assert.o)
                                                  c:/chibistudio/tools/gnu tools arm embedded/11.3 2022.08/bin/../lib/gcc/arm-none-eabi/11.3.1/thumb/v7e-m/nofp\libg_nano.a(libc_a-sysread.o)
                                                  c:/chibistudio/tools/gnu tools arm embedded/11.3 2022.08/bin/../lib/gcc/arm-none-eabi/11.3.1/thumb/v7e-m/nofp\libg_nano.a(libc_a-sysopen.o)
                                                  c:/chibistudio/tools/gnu tools arm embedded/11.3 2022.08/bin/../lib/gcc/arm-none-eabi/11.3.1/thumb/v7e-m/nofp\libg_nano.a(libc_a-errno.o)
                                                  c:/chibistudio/tools/gnu tools arm embedded/11.3 2022.08/bin/../lib/gcc/arm-none-eabi/11.3.1/thumb/v7e-m/nofp\libg_nano.a(libc_a-rand.o)
_init_signal                                      c:/chibistudio/tools/gnu tools arm embedded/11.3 2022.08/bin/../lib/gcc/arm-none-eabi/11.3.1/thumb/v7e-m/nofp\libg_nano.a(libc_a-signal.o)
_init_signal_r                                    c:/chibistudio/tools/gnu tools arm embedded/11.3 2022.08/bin/../lib/gcc/arm-none-eabi/11.3.1/thumb/v7e-m/nofp\libg_nano.a(libc_a-signal.o)
_isatty_r                                         C:\Users\Ridwane\AppData\Local\Temp\ccG6qa3f.ltrans1.ltrans.o
                                                  ./build/obj/syscalls.o (symbol from plugin)
                                                  c:/chibistudio/tools/gnu tools arm embedded/11.3 2022.08/bin/../lib/gcc/arm-none-eabi/11.3.1/thumb/v7e-m/nofp\libg_nano.a(libc_a-makebuf.o)
_kill                                             C:\Users\Ridwane\AppData\Local\Temp\ccG6qa3f.ltrans1.ltrans.o
                                                  ./build/obj/syscalls.o (symbol from plugin)
                                                  c:/chibistudio/tools/gnu tools arm embedded/11.3 2022.08/bin/../lib/gcc/arm-none-eabi/11.3.1/thumb/v7e-m/nofp\libg_nano.a(libc_a-signalr.o)
_kill_r                                           c:/chibistudio/tools/gnu tools arm embedded/11.3 2022.08/bin/../lib/gcc/arm-none-eabi/11.3.1/thumb/v7e-m/nofp\libg_nano.a(libc_a-signalr.o)
                                                  c:/chibistudio/tools/gnu tools arm embedded/11.3 2022.08/bin/../lib/gcc/arm-none-eabi/11.3.1/thumb/v7e-m/nofp\libg_nano.a(libc_a-signal.o)
_lseek_r                                          C:\Users\Ridwane\AppData\Local\Temp\ccG6qa3f.ltrans1.ltrans.o
                                                  ./build/obj/syscalls.o (symbol from plugin)
                                                  c:/chibistudio/tools/gnu tools arm embedded/11.3 2022.08/bin/../lib/gcc/arm-none-eabi/11.3.1/thumb/v7e-m/nofp\libg_nano.a(libc_a-stdio.o)
_malloc_r                                         c:/chibistudio/tools/gnu tools arm embedded/11.3 2022.08/bin/../lib/gcc/arm-none-eabi/11.3.1/thumb/v7e-m/nofp\libg_nano.a(libc_a-mallocr.o)
                                                  c:/chibistudio/tools/gnu tools arm embedded/11.3 2022.08/bin/../lib/gcc/arm-none-eabi/11.3.1/thumb/v7e-m/nofp\libg_nano.a(libc_a-makebuf.o)
                                                  c:/chibistudio/tools/gnu tools arm embedded/11.3 2022.08/bin/../lib/gcc/arm-none-eabi/11.3.1/thumb/v7e-m/nofp\libg_nano.a(libc_a-reallocr.o)
                                                  c:/chibistudio/tools/gnu tools arm embedded/11.3 2022.08/bin/../lib/gcc/arm-none-eabi/11.3.1/thumb/v7e-m/nofp\libg_nano.a(libc_a-signal.o)
                                                  c:/chibistudio/tools/gnu tools arm embedded/11.3 2022.08/bin/../lib/gcc/arm-none-eabi/11.3.1/thumb/v7e-m/nofp\libg_nano.a(libc_a-fvwrite.o)
                                                  c:/chibistudio/tools/gnu tools arm embedded/11.3 2022.08/bin/../lib/gcc/arm-none-eabi/11.3.1/thumb/v7e-m/nofp\libg_nano.a(libc_a-findfp.o)
                                                  c:/chibistudio/tools/gnu tools arm embedded/11.3 2022.08/bin/../lib/gcc/arm-none-eabi/11.3.1/thumb/v7e-m/nofp\libg_nano.a(libc_a-malloc.o)
_malloc_usable_size_r                             c:/chibistudio/tools/gnu tools arm embedded/11.3 2022.08/bin/../lib/gcc/arm-none-eabi/11.3.1/thumb/v7e-m/nofp\libg_nano.a(libc_a-msizer.o)
                                                  c:/chibistudio/tools/gnu tools arm embedded/11.3 2022.08/bin/../lib/gcc/arm-none-eabi/11.3.1/thumb/v7e-m/nofp\libg_nano.a(libc_a-reallocr.o)
_open_r                                           C:\Users\Ridwane\AppData\Local\Temp\ccG6qa3f.ltrans1.ltrans.o
                                                  ./build/obj/syscalls.o (symbol from plugin)
                                                  c:/chibistudio/tools/gnu tools arm embedded/11.3 2022.08/bin/../lib/gcc/arm-none-eabi/11.3.1/thumb/v7e-m/nofp\libg_nano.a(libc_a-sysopen.o)
_pal_lld_init                                     ./build/obj/hal_pal_lld.o (symbol from plugin)
                                                  ./build/obj/hal.o (symbol from plugin)
_pal_lld_setgroupmode                             ./build/obj/hal_pal_lld.o (symbol from plugin)
                                                  ./build/obj/main.o (symbol from plugin)
                                                  ./build/obj/hal_pal.o (symbol from plugin)
_printf_common                                    c:/chibistudio/tools/gnu tools arm embedded/11.3 2022.08/bin/../lib/gcc/arm-none-eabi/11.3.1/thumb/v7e-m/nofp\libg_nano.a(libc_a-nano-vfprintf_i.o)
_printf_float                                     c:/chibistudio/tools/gnu tools arm embedded/11.3 2022.08/bin/../lib/gcc/arm-none-eabi/11.3.1/thumb/v7e-m/nofp\libg_nano.a(libc_a-nano-vfprintf.o)
_printf_i                                         c:/chibistudio/tools/gnu tools arm embedded/11.3 2022.08/bin/../lib/gcc/arm-none-eabi/11.3.1/thumb/v7e-m/nofp\libg_nano.a(libc_a-nano-vfprintf_i.o)
                                                  c:/chibistudio/tools/gnu tools arm embedded/11.3 2022.08/bin/../lib/gcc/arm-none-eabi/11.3.1/thumb/v7e-m/nofp\libg_nano.a(libc_a-nano-vfprintf.o)
_put.lto_priv.0                                   C:\Users\Ridwane\AppData\Local\Temp\ccG6qa3f.ltrans0.ltrans.o
                                                  C:\Users\Ridwane\AppData\Local\Temp\ccG6qa3f.ltrans1.ltrans.o
_putt.lto_priv.0                                  C:\Users\Ridwane\AppData\Local\Temp\ccG6qa3f.ltrans0.ltrans.o
                                                  C:\Users\Ridwane\AppData\Local\Temp\ccG6qa3f.ltrans1.ltrans.o
_raise_r                                          c:/chibistudio/tools/gnu tools arm embedded/11.3 2022.08/bin/../lib/gcc/arm-none-eabi/11.3.1/thumb/v7e-m/nofp\libg_nano.a(libc_a-signal.o)
_read.lto_priv.0                                  C:\Users\Ridwane\AppData\Local\Temp\ccG6qa3f.ltrans0.ltrans.o
                                                  C:\Users\Ridwane\AppData\Local\Temp\ccG6qa3f.ltrans1.ltrans.o
_read_r                                           C:\Users\Ridwane\AppData\Local\Temp\ccG6qa3f.ltrans1.ltrans.o
                                                  ./build/obj/syscalls.o (symbol from plugin)
                                                  c:/chibistudio/tools/gnu tools arm embedded/11.3 2022.08/bin/../lib/gcc/arm-none-eabi/11.3.1/thumb/v7e-m/nofp\libg_nano.a(libc_a-stdio.o)
                                                  c:/chibistudio/tools/gnu tools arm embedded/11.3 2022.08/bin/../lib/gcc/arm-none-eabi/11.3.1/thumb/v7e-m/nofp\libg_nano.a(libc_a-sysread.o)
_readt.lto_priv.0                                 C:\Users\Ridwane\AppData\Local\Temp\ccG6qa3f.ltrans0.ltrans.o
                                                  C:\Users\Ridwane\AppData\Local\Temp\ccG6qa3f.ltrans1.ltrans.o
_realloc_r                                        c:/chibistudio/tools/gnu tools arm embedded/11.3 2022.08/bin/../lib/gcc/arm-none-eabi/11.3.1/thumb/v7e-m/nofp\libg_nano.a(libc_a-reallocr.o)
                                                  c:/chibistudio/tools/gnu tools arm embedded/11.3 2022.08/bin/../lib/gcc/arm-none-eabi/11.3.1/thumb/v7e-m/nofp\libg_nano.a(libc_a-fvwrite.o)
_reclaim_reent                                    c:/chibistudio/tools/gnu tools arm embedded/11.3 2022.08/bin/../lib/gcc/arm-none-eabi/11.3.1/thumb/v7e-m/nofp\libg_nano.a(libc_a-reent.o)
_sbrk_r                                           C:\Users\Ridwane\AppData\Local\Temp\ccG6qa3f.ltrans1.ltrans.o
                                                  ./build/obj/syscalls.o (symbol from plugin)
                                                  c:/chibistudio/tools/gnu tools arm embedded/11.3 2022.08/bin/../lib/gcc/arm-none-eabi/11.3.1/thumb/v7e-m/nofp\libg_nano.a(libc_a-mallocr.o)
_signal_r                                         c:/chibistudio/tools/gnu tools arm embedded/11.3 2022.08/bin/../lib/gcc/arm-none-eabi/11.3.1/thumb/v7e-m/nofp\libg_nano.a(libc_a-signal.o)
_unhandled_exception                              ./build/obj/vectors.o
_vectors                                          ./build/obj/vectors.o
                                                  ./build/obj/crt0_v7m.o
_vfiprintf_r                                      c:/chibistudio/tools/gnu tools arm embedded/11.3 2022.08/bin/../lib/gcc/arm-none-eabi/11.3.1/thumb/v7e-m/nofp\libg_nano.a(libc_a-nano-vfprintf.o)
_vfprintf_r                                       c:/chibistudio/tools/gnu tools arm embedded/11.3 2022.08/bin/../lib/gcc/arm-none-eabi/11.3.1/thumb/v7e-m/nofp\libg_nano.a(libc_a-nano-vfprintf.o)
                                                  c:/chibistudio/tools/gnu tools arm embedded/11.3 2022.08/bin/../lib/gcc/arm-none-eabi/11.3.1/thumb/v7e-m/nofp\libg_nano.a(libc_a-fprintf.o)
_write.lto_priv.0                                 C:\Users\Ridwane\AppData\Local\Temp\ccG6qa3f.ltrans0.ltrans.o
                                                  C:\Users\Ridwane\AppData\Local\Temp\ccG6qa3f.ltrans1.ltrans.o
_write_r                                          C:\Users\Ridwane\AppData\Local\Temp\ccG6qa3f.ltrans1.ltrans.o
                                                  ./build/obj/syscalls.o (symbol from plugin)
                                                  c:/chibistudio/tools/gnu tools arm embedded/11.3 2022.08/bin/../lib/gcc/arm-none-eabi/11.3.1/thumb/v7e-m/nofp\libg_nano.a(libc_a-stdio.o)
_writet.lto_priv.0                                C:\Users\Ridwane\AppData\Local\Temp\ccG6qa3f.ltrans0.ltrans.o
                                                  C:\Users\Ridwane\AppData\Local\Temp\ccG6qa3f.ltrans1.ltrans.o
abort                                             c:/chibistudio/tools/gnu tools arm embedded/11.3 2022.08/bin/../lib/gcc/arm-none-eabi/11.3.1/thumb/v7e-m/nofp\libg_nano.a(libc_a-abort.o)
                                                  C:\Users\Ridwane\AppData\Local\Temp\ccG6qa3f.ltrans1.ltrans.o
                                                  c:/chibistudio/tools/gnu tools arm embedded/11.3 2022.08/bin/../lib/gcc/arm-none-eabi/11.3.1/thumb/v7e-m/nofp\libg_nano.a(libc_a-assert.o)
board.c.2b0d070b                                  C:\Users\Ridwane\AppData\Local\Temp\ccghyo0O.debug.temp.o
                                                  C:\Users\Ridwane\AppData\Local\Temp\ccG6qa3f.ltrans0.ltrans.o
boardInit                                         ./build/obj/board.o (symbol from plugin)
                                                  ./build/obj/hal.o (symbol from plugin)
bsIncomingDataI                                   ./build/obj/hal_buffered_serial.o (symbol from plugin)
bsRequestDataI                                    ./build/obj/hal_buffered_serial.o (symbol from plugin)
cache1.lto_priv.0                                 C:\Users\Ridwane\AppData\Local\Temp\ccG6qa3f.ltrans0.ltrans.o
                                                  C:\Users\Ridwane\AppData\Local\Temp\ccG6qa3f.ltrans1.ltrans.o
ch0                                               C:\Users\Ridwane\AppData\Local\Temp\ccG6qa3f.ltrans0.ltrans.o
                                                  ./build/obj/chsys.o (symbol from plugin)
                                                  C:\Users\Ridwane\AppData\Local\Temp\ccG6qa3f.ltrans1.ltrans.o
                                                  ./build/obj/main.o (symbol from plugin)
                                                  ./build/obj/oslib_test_sequence_005.o (symbol from plugin)
                                                  ./build/obj/oslib_test_sequence_004.o (symbol from plugin)
                                                  ./build/obj/rt_test_sequence_012.o (symbol from plugin)
                                                  ./build/obj/rt_test_sequence_011.o (symbol from plugin)
                                                  ./build/obj/rt_test_sequence_010.o (symbol from plugin)
                                                  ./build/obj/rt_test_sequence_009.o (symbol from plugin)
                                                  ./build/obj/rt_test_sequence_008.o (symbol from plugin)
                                                  ./build/obj/rt_test_sequence_007.o (symbol from plugin)
                                                  ./build/obj/rt_test_sequence_006.o (symbol from plugin)
                                                  ./build/obj/rt_test_sequence_005.o (symbol from plugin)
                                                  ./build/obj/chmsg.o (symbol from plugin)
                                                  ./build/obj/chevents.o (symbol from plugin)
                                                  ./build/obj/chcond.o (symbol from plugin)
                                                  ./build/obj/chmtx.o (symbol from plugin)
                                                  ./build/obj/chsem.o (symbol from plugin)
                                                  ./build/obj/chregistry.o (symbol from plugin)
                                                  ./build/obj/chthreads.o (symbol from plugin)
                                                  ./build/obj/chschd.o (symbol from plugin)
                                                  ./build/obj/chvt.o (symbol from plugin)
                                                  ./build/obj/chrfcu.o (symbol from plugin)
chCacheGetObject                                  ./build/obj/chobjcaches.o (symbol from plugin)
                                                  ./build/obj/oslib_test_sequence_006.o (symbol from plugin)
chCacheGetObject.constprop.0                      C:\Users\Ridwane\AppData\Local\Temp\ccG6qa3f.ltrans1.ltrans.o
                                                  C:\Users\Ridwane\AppData\Local\Temp\ccG6qa3f.ltrans0.ltrans.o
chCacheObjectInit                                 ./build/obj/chobjcaches.o (symbol from plugin)
                                                  ./build/obj/oslib_test_sequence_006.o (symbol from plugin)
chCacheReadObject                                 ./build/obj/chobjcaches.o (symbol from plugin)
                                                  ./build/obj/oslib_test_sequence_006.o (symbol from plugin)
chCacheReleaseObjectI                             ./build/obj/chobjcaches.o (symbol from plugin)
                                                  ./build/obj/oslib_test_sequence_006.o (symbol from plugin)
chCacheWriteObject                                ./build/obj/chobjcaches.o (symbol from plugin)
chCondBroadcast                                   ./build/obj/chcond.o (symbol from plugin)
                                                  ./build/obj/rt_test_sequence_008.o (symbol from plugin)
chCondBroadcastI                                  ./build/obj/chcond.o (symbol from plugin)
chCondObjectInit                                  ./build/obj/chcond.o (symbol from plugin)
                                                  ./build/obj/rt_test_sequence_008.o (symbol from plugin)
chCondSignal                                      ./build/obj/chcond.o (symbol from plugin)
                                                  ./build/obj/rt_test_sequence_008.o (symbol from plugin)
chCondSignalI                                     ./build/obj/chcond.o (symbol from plugin)
                                                  ./build/obj/rt_test_sequence_008.o (symbol from plugin)
chCondWait                                        ./build/obj/chcond.o (symbol from plugin)
                                                  ./build/obj/rt_test_sequence_008.o (symbol from plugin)
chCondWaitS                                       ./build/obj/chcond.o (symbol from plugin)
chCondWaitTimeout                                 ./build/obj/chcond.o (symbol from plugin)
                                                  ./build/obj/rt_test_sequence_008.o (symbol from plugin)
chCondWaitTimeoutS                                ./build/obj/chcond.o (symbol from plugin)
chCoreAllocAlignedI.lto_priv.0                    C:\Users\Ridwane\AppData\Local\Temp\ccG6qa3f.ltrans0.ltrans.o
                                                  C:\Users\Ridwane\AppData\Local\Temp\ccG6qa3f.ltrans1.ltrans.o
chCoreAllocFromBase                               ./build/obj/chmemcore.o (symbol from plugin)
                                                  ./build/obj/syscalls.o (symbol from plugin)
chCoreAllocFromBaseI                              ./build/obj/chmemcore.o (symbol from plugin)
chCoreAllocFromTop                                C:\Users\Ridwane\AppData\Local\Temp\ccG6qa3f.ltrans0.ltrans.o
                                                  ./build/obj/chmemcore.o (symbol from plugin)
                                                  C:\Users\Ridwane\AppData\Local\Temp\ccG6qa3f.ltrans1.ltrans.o
                                                  ./build/obj/chmemheaps.o (symbol from plugin)
chCoreAllocFromTopI                               ./build/obj/chmemcore.o (symbol from plugin)
                                                  ./build/obj/chfactory.o (symbol from plugin)
chCoreGetStatusX                                  ./build/obj/chmemcore.o (symbol from plugin)
chDelegateCallVeneer                              ./build/obj/chdelegates.o (symbol from plugin)
                                                  ./build/obj/oslib_test_sequence_005.o (symbol from plugin)
chDelegateDispatch                                ./build/obj/chdelegates.o (symbol from plugin)
                                                  ./build/obj/oslib_test_sequence_005.o (symbol from plugin)
chDelegateDispatchTimeout                         ./build/obj/chdelegates.o (symbol from plugin)
chEvtAddEvents                                    ./build/obj/chevents.o (symbol from plugin)
                                                  ./build/obj/rt_test_sequence_010.o (symbol from plugin)
chEvtBroadcastFlags                               ./build/obj/chevents.o (symbol from plugin)
                                                  ./build/obj/rt_test_sequence_010.o (symbol from plugin)
chEvtBroadcastFlagsI                              ./build/obj/chevents.o (symbol from plugin)
                                                  ./build/obj/hal_serial_lld.o (symbol from plugin)
                                                  ./build/obj/hal_serial.o (symbol from plugin)
                                                  ./build/obj/hal_buffered_serial.o (symbol from plugin)
chEvtDispatch                                     ./build/obj/chevents.o (symbol from plugin)
                                                  ./build/obj/rt_test_sequence_010.o (symbol from plugin)
chEvtGetAndClearEvents                            ./build/obj/chevents.o (symbol from plugin)
                                                  ./build/obj/rt_test_sequence_010.o (symbol from plugin)
chEvtGetAndClearEventsI                           ./build/obj/chevents.o (symbol from plugin)
chEvtGetAndClearFlags                             ./build/obj/chevents.o (symbol from plugin)
chEvtGetAndClearFlagsI                            ./build/obj/chevents.o (symbol from plugin)
chEvtRegisterMaskWithFlags                        ./build/obj/chevents.o (symbol from plugin)
                                                  ./build/obj/rt_test_sequence_010.o (symbol from plugin)
chEvtRegisterMaskWithFlagsI                       ./build/obj/chevents.o (symbol from plugin)
chEvtSignal                                       ./build/obj/chevents.o (symbol from plugin)
                                                  ./build/obj/rt_test_sequence_010.o (symbol from plugin)
chEvtSignalI                                      ./build/obj/chevents.o (symbol from plugin)
chEvtUnregister                                   ./build/obj/chevents.o (symbol from plugin)
                                                  ./build/obj/rt_test_sequence_010.o (symbol from plugin)
chEvtWaitAll                                      ./build/obj/chevents.o (symbol from plugin)
                                                  ./build/obj/rt_test_sequence_010.o (symbol from plugin)
chEvtWaitAllTimeout                               ./build/obj/chevents.o (symbol from plugin)
                                                  ./build/obj/rt_test_sequence_010.o (symbol from plugin)
chEvtWaitAny                                      ./build/obj/chevents.o (symbol from plugin)
                                                  ./build/obj/rt_test_sequence_010.o (symbol from plugin)
chEvtWaitAnyTimeout                               ./build/obj/chevents.o (symbol from plugin)
                                                  ./build/obj/rt_test_sequence_010.o (symbol from plugin)
chEvtWaitOne                                      ./build/obj/chevents.o (symbol from plugin)
                                                  ./build/obj/rt_test_sequence_010.o (symbol from plugin)
chEvtWaitOne.constprop.0                          C:\Users\Ridwane\AppData\Local\Temp\ccG6qa3f.ltrans1.ltrans.o
                                                  C:\Users\Ridwane\AppData\Local\Temp\ccG6qa3f.ltrans0.ltrans.o
chEvtWaitOneTimeout                               ./build/obj/chevents.o (symbol from plugin)
                                                  ./build/obj/rt_test_sequence_010.o (symbol from plugin)
chFactoryCreateBuffer                             ./build/obj/chfactory.o (symbol from plugin)
                                                  ./build/obj/oslib_test_sequence_009.o (symbol from plugin)
chFactoryCreateMailbox                            ./build/obj/chfactory.o (symbol from plugin)
                                                  ./build/obj/oslib_test_sequence_009.o (symbol from plugin)
chFactoryCreateObjectsFIFO                        ./build/obj/chfactory.o (symbol from plugin)
                                                  ./build/obj/oslib_test_sequence_009.o (symbol from plugin)
chFactoryCreatePipe                               ./build/obj/chfactory.o (symbol from plugin)
                                                  ./build/obj/oslib_test_sequence_009.o (symbol from plugin)
chFactoryCreateSemaphore                          ./build/obj/chfactory.o (symbol from plugin)
                                                  ./build/obj/oslib_test_sequence_009.o (symbol from plugin)
chFactoryFindBuffer                               ./build/obj/chfactory.o (symbol from plugin)
                                                  ./build/obj/oslib_test_sequence_009.o (symbol from plugin)
chFactoryFindMailbox                              ./build/obj/chfactory.o (symbol from plugin)
                                                  ./build/obj/oslib_test_sequence_009.o (symbol from plugin)
chFactoryFindObject                               ./build/obj/chfactory.o (symbol from plugin)
                                                  ./build/obj/oslib_test_sequence_009.o (symbol from plugin)
chFactoryFindObjectByPointer                      ./build/obj/chfactory.o (symbol from plugin)
chFactoryFindObjectsFIFO                          ./build/obj/chfactory.o (symbol from plugin)
                                                  ./build/obj/oslib_test_sequence_009.o (symbol from plugin)
chFactoryFindPipe                                 ./build/obj/chfactory.o (symbol from plugin)
                                                  ./build/obj/oslib_test_sequence_009.o (symbol from plugin)
chFactoryFindSemaphore                            ./build/obj/chfactory.o (symbol from plugin)
                                                  ./build/obj/oslib_test_sequence_009.o (symbol from plugin)
chFactoryRegisterObject                           ./build/obj/chfactory.o (symbol from plugin)
                                                  ./build/obj/oslib_test_sequence_009.o (symbol from plugin)
chFactoryReleaseBuffer                            C:\Users\Ridwane\AppData\Local\Temp\ccG6qa3f.ltrans0.ltrans.o
                                                  ./build/obj/chfactory.o (symbol from plugin)
                                                  C:\Users\Ridwane\AppData\Local\Temp\ccG6qa3f.ltrans1.ltrans.o
                                                  ./build/obj/oslib_test_sequence_009.o (symbol from plugin)
chFactoryReleaseMailbox                           C:\Users\Ridwane\AppData\Local\Temp\ccG6qa3f.ltrans0.ltrans.o
                                                  ./build/obj/chfactory.o (symbol from plugin)
                                                  C:\Users\Ridwane\AppData\Local\Temp\ccG6qa3f.ltrans1.ltrans.o
                                                  ./build/obj/oslib_test_sequence_009.o (symbol from plugin)
chFactoryReleaseObject                            C:\Users\Ridwane\AppData\Local\Temp\ccG6qa3f.ltrans0.ltrans.o
                                                  ./build/obj/chfactory.o (symbol from plugin)
                                                  C:\Users\Ridwane\AppData\Local\Temp\ccG6qa3f.ltrans1.ltrans.o
                                                  ./build/obj/oslib_test_sequence_009.o (symbol from plugin)
chFactoryReleaseObjectsFIFO                       C:\Users\Ridwane\AppData\Local\Temp\ccG6qa3f.ltrans0.ltrans.o
                                                  ./build/obj/chfactory.o (symbol from plugin)
                                                  C:\Users\Ridwane\AppData\Local\Temp\ccG6qa3f.ltrans1.ltrans.o
                                                  ./build/obj/oslib_test_sequence_009.o (symbol from plugin)
chFactoryReleasePipe                              C:\Users\Ridwane\AppData\Local\Temp\ccG6qa3f.ltrans0.ltrans.o
                                                  ./build/obj/chfactory.o (symbol from plugin)
                                                  C:\Users\Ridwane\AppData\Local\Temp\ccG6qa3f.ltrans1.ltrans.o
                                                  ./build/obj/oslib_test_sequence_009.o (symbol from plugin)
chFactoryReleaseSemaphore                         C:\Users\Ridwane\AppData\Local\Temp\ccG6qa3f.ltrans0.ltrans.o
                                                  ./build/obj/chfactory.o (symbol from plugin)
                                                  C:\Users\Ridwane\AppData\Local\Temp\ccG6qa3f.ltrans1.ltrans.o
                                                  ./build/obj/oslib_test_sequence_009.o (symbol from plugin)
chGuardedPoolAllocTimeout                         ./build/obj/chmempools.o (symbol from plugin)
                                                  ./build/obj/oslib_test_sequence_007.o (symbol from plugin)
                                                  ./build/obj/oslib_test_sequence_004.o (symbol from plugin)
chGuardedPoolAllocTimeoutS                        ./build/obj/chmempools.o (symbol from plugin)
chGuardedPoolFree                                 ./build/obj/chmempools.o (symbol from plugin)
                                                  ./build/obj/oslib_test_sequence_007.o (symbol from plugin)
                                                  ./build/obj/oslib_test_sequence_004.o (symbol from plugin)
chGuardedPoolLoadArray                            ./build/obj/chmempools.o (symbol from plugin)
                                                  ./build/obj/oslib_test_sequence_007.o (symbol from plugin)
                                                  ./build/obj/oslib_test_sequence_004.o (symbol from plugin)
                                                  ./build/obj/chfactory.o (symbol from plugin)
chGuardedPoolObjectInitAligned                    ./build/obj/chmempools.o (symbol from plugin)
                                                  ./build/obj/oslib_test_sequence_007.o (symbol from plugin)
                                                  ./build/obj/oslib_test_sequence_004.o (symbol from plugin)
                                                  ./build/obj/chfactory.o (symbol from plugin)
chHeapAllocAligned                                C:\Users\Ridwane\AppData\Local\Temp\ccG6qa3f.ltrans0.ltrans.o
                                                  ./build/obj/chmemheaps.o (symbol from plugin)
                                                  C:\Users\Ridwane\AppData\Local\Temp\ccG6qa3f.ltrans1.ltrans.o
                                                  ./build/obj/oslib_test_sequence_008.o (symbol from plugin)
                                                  ./build/obj/chfactory.o (symbol from plugin)
                                                  ./build/obj/chdynamic.o (symbol from plugin)
chHeapFree                                        C:\Users\Ridwane\AppData\Local\Temp\ccG6qa3f.ltrans0.ltrans.o
                                                  ./build/obj/chmemheaps.o (symbol from plugin)
                                                  C:\Users\Ridwane\AppData\Local\Temp\ccG6qa3f.ltrans1.ltrans.o
                                                  ./build/obj/oslib_test_sequence_008.o (symbol from plugin)
                                                  ./build/obj/chfactory.o (symbol from plugin)
                                                  ./build/obj/chthreads.o (symbol from plugin)
chHeapObjectInit                                  ./build/obj/chmemheaps.o (symbol from plugin)
                                                  ./build/obj/oslib_test_sequence_008.o (symbol from plugin)
                                                  ./build/obj/rt_test_sequence_011.o (symbol from plugin)
chHeapStatus                                      C:\Users\Ridwane\AppData\Local\Temp\ccG6qa3f.ltrans0.ltrans.o
                                                  ./build/obj/chmemheaps.o (symbol from plugin)
                                                  ./build/obj/oslib_test_sequence_008.o (symbol from plugin)
                                                  ./build/obj/rt_test_sequence_011.o (symbol from plugin)
chInstanceObjectInit                              ./build/obj/chinstances.o (symbol from plugin)
                                                  ./build/obj/chsys.o (symbol from plugin)
chMBFetchI                                        ./build/obj/chmboxes.o (symbol from plugin)
                                                  ./build/obj/oslib_test_sequence_002.o (symbol from plugin)
chMBFetchTimeout                                  ./build/obj/chmboxes.o (symbol from plugin)
                                                  ./build/obj/oslib_test_sequence_004.o (symbol from plugin)
                                                  ./build/obj/oslib_test_sequence_002.o (symbol from plugin)
chMBFetchTimeoutS                                 ./build/obj/chmboxes.o (symbol from plugin)
chMBObjectInit                                    ./build/obj/chmboxes.o (symbol from plugin)
                                                  ./build/obj/oslib_test_sequence_004.o (symbol from plugin)
                                                  ./build/obj/oslib_test_sequence_002.o (symbol from plugin)
                                                  ./build/obj/chfactory.o (symbol from plugin)
chMBPostAheadI                                    ./build/obj/chmboxes.o (symbol from plugin)
                                                  ./build/obj/oslib_test_sequence_002.o (symbol from plugin)
chMBPostAheadI.constprop.0                        C:\Users\Ridwane\AppData\Local\Temp\ccG6qa3f.ltrans1.ltrans.o
                                                  C:\Users\Ridwane\AppData\Local\Temp\ccG6qa3f.ltrans0.ltrans.o
chMBPostAheadTimeout                              ./build/obj/chmboxes.o (symbol from plugin)
                                                  ./build/obj/oslib_test_sequence_002.o (symbol from plugin)
chMBPostAheadTimeout.constprop.0                  C:\Users\Ridwane\AppData\Local\Temp\ccG6qa3f.ltrans1.ltrans.o
                                                  C:\Users\Ridwane\AppData\Local\Temp\ccG6qa3f.ltrans0.ltrans.o
chMBPostAheadTimeoutS                             ./build/obj/chmboxes.o (symbol from plugin)
chMBPostI                                         ./build/obj/chmboxes.o (symbol from plugin)
                                                  ./build/obj/oslib_test_sequence_002.o (symbol from plugin)
chMBPostTimeout                                   ./build/obj/chmboxes.o (symbol from plugin)
                                                  ./build/obj/oslib_test_sequence_004.o (symbol from plugin)
                                                  ./build/obj/oslib_test_sequence_002.o (symbol from plugin)
chMBPostTimeoutS                                  ./build/obj/chmboxes.o (symbol from plugin)
chMBReset                                         ./build/obj/chmboxes.o (symbol from plugin)
                                                  ./build/obj/oslib_test_sequence_002.o (symbol from plugin)
chMBReset.constprop.0                             C:\Users\Ridwane\AppData\Local\Temp\ccG6qa3f.ltrans1.ltrans.o
                                                  C:\Users\Ridwane\AppData\Local\Temp\ccG6qa3f.ltrans0.ltrans.o
chMBResetI                                        ./build/obj/chmboxes.o (symbol from plugin)
                                                  ./build/obj/oslib_test_sequence_002.o (symbol from plugin)
chMsgPollS                                        ./build/obj/chmsg.o (symbol from plugin)
chMsgRelease                                      ./build/obj/chmsg.o (symbol from plugin)
                                                  ./build/obj/rt_test_sequence_012.o (symbol from plugin)
                                                  ./build/obj/rt_test_sequence_009.o (symbol from plugin)
                                                  ./build/obj/chdelegates.o (symbol from plugin)
chMsgSend                                         ./build/obj/chmsg.o (symbol from plugin)
                                                  ./build/obj/rt_test_sequence_012.o (symbol from plugin)
                                                  ./build/obj/rt_test_sequence_009.o (symbol from plugin)
                                                  ./build/obj/chdelegates.o (symbol from plugin)
chMsgWaitS                                        ./build/obj/chmsg.o (symbol from plugin)
                                                  ./build/obj/rt_test_sequence_012.o (symbol from plugin)
                                                  ./build/obj/rt_test_sequence_009.o (symbol from plugin)
                                                  ./build/obj/chdelegates.o (symbol from plugin)
chMsgWaitTimeoutS                                 ./build/obj/chmsg.o (symbol from plugin)
                                                  ./build/obj/chdelegates.o (symbol from plugin)
chMtxLock                                         ./build/obj/chmtx.o (symbol from plugin)
                                                  ./build/obj/rt_test_sequence_012.o (symbol from plugin)
                                                  ./build/obj/rt_test_sequence_008.o (symbol from plugin)
                                                  ./build/obj/chfactory.o (symbol from plugin)
                                                  ./build/obj/chpipes.o (symbol from plugin)
                                                  ./build/obj/chmemheaps.o (symbol from plugin)
chMtxLockS                                        C:\Users\Ridwane\AppData\Local\Temp\ccG6qa3f.ltrans0.ltrans.o
                                                  ./build/obj/chmtx.o (symbol from plugin)
                                                  C:\Users\Ridwane\AppData\Local\Temp\ccG6qa3f.ltrans1.ltrans.o
                                                  ./build/obj/rt_test_sequence_008.o (symbol from plugin)
                                                  ./build/obj/chcond.o (symbol from plugin)
chMtxObjectInit                                   ./build/obj/chmtx.o (symbol from plugin)
                                                  ./build/obj/rt_test_sequence_012.o (symbol from plugin)
                                                  ./build/obj/rt_test_sequence_008.o (symbol from plugin)
                                                  ./build/obj/chfactory.o (symbol from plugin)
                                                  ./build/obj/chpipes.o (symbol from plugin)
                                                  ./build/obj/chmemheaps.o (symbol from plugin)
chMtxTryLock                                      ./build/obj/chmtx.o (symbol from plugin)
                                                  ./build/obj/rt_test_sequence_008.o (symbol from plugin)
chMtxTryLockS                                     ./build/obj/chmtx.o (symbol from plugin)
chMtxUnlock                                       C:\Users\Ridwane\AppData\Local\Temp\ccG6qa3f.ltrans0.ltrans.o
                                                  ./build/obj/chmtx.o (symbol from plugin)
                                                  C:\Users\Ridwane\AppData\Local\Temp\ccG6qa3f.ltrans1.ltrans.o
                                                  ./build/obj/rt_test_sequence_012.o (symbol from plugin)
                                                  ./build/obj/rt_test_sequence_008.o (symbol from plugin)
                                                  ./build/obj/chfactory.o (symbol from plugin)
                                                  ./build/obj/chpipes.o (symbol from plugin)
                                                  ./build/obj/chmemheaps.o (symbol from plugin)
chMtxUnlockAll                                    ./build/obj/chmtx.o (symbol from plugin)
                                                  ./build/obj/rt_test_sequence_008.o (symbol from plugin)
chMtxUnlockAllS                                   ./build/obj/chmtx.o (symbol from plugin)
chMtxUnlockS                                      ./build/obj/chmtx.o (symbol from plugin)
                                                  ./build/obj/rt_test_sequence_008.o (symbol from plugin)
                                                  ./build/obj/chcond.o (symbol from plugin)
chPipeObjectInit                                  ./build/obj/chpipes.o (symbol from plugin)
                                                  ./build/obj/oslib_test_sequence_003.o (symbol from plugin)
                                                  ./build/obj/chfactory.o (symbol from plugin)
chPipeReadTimeout                                 ./build/obj/chpipes.o (symbol from plugin)
                                                  ./build/obj/oslib_test_sequence_003.o (symbol from plugin)
chPipeReadTimeout.part.0.constprop.0              C:\Users\Ridwane\AppData\Local\Temp\ccG6qa3f.ltrans1.ltrans.o
                                                  C:\Users\Ridwane\AppData\Local\Temp\ccG6qa3f.ltrans0.ltrans.o
chPipeReset                                       ./build/obj/chpipes.o (symbol from plugin)
                                                  ./build/obj/oslib_test_sequence_003.o (symbol from plugin)
chPipeWriteTimeout                                ./build/obj/chpipes.o (symbol from plugin)
                                                  ./build/obj/oslib_test_sequence_003.o (symbol from plugin)
chPipeWriteTimeout.part.0.constprop.0             C:\Users\Ridwane\AppData\Local\Temp\ccG6qa3f.ltrans1.ltrans.o
                                                  C:\Users\Ridwane\AppData\Local\Temp\ccG6qa3f.ltrans0.ltrans.o
chPoolAlloc                                       ./build/obj/chmempools.o (symbol from plugin)
                                                  ./build/obj/oslib_test_sequence_007.o (symbol from plugin)
                                                  ./build/obj/rt_test_sequence_011.o (symbol from plugin)
                                                  ./build/obj/chfactory.o (symbol from plugin)
                                                  ./build/obj/chdynamic.o (symbol from plugin)
chPoolAllocI                                      ./build/obj/chmempools.o (symbol from plugin)
chPoolFree                                        ./build/obj/chmempools.o (symbol from plugin)
                                                  ./build/obj/oslib_test_sequence_007.o (symbol from plugin)
                                                  ./build/obj/rt_test_sequence_011.o (symbol from plugin)
                                                  ./build/obj/chfactory.o (symbol from plugin)
                                                  ./build/obj/chthreads.o (symbol from plugin)
chPoolFreeI                                       ./build/obj/chmempools.o (symbol from plugin)
chPoolLoadArray                                   ./build/obj/chmempools.o (symbol from plugin)
                                                  ./build/obj/oslib_test_sequence_007.o (symbol from plugin)
chPoolObjectInitAligned                           ./build/obj/chmempools.o (symbol from plugin)
                                                  ./build/obj/oslib_test_sequence_007.o (symbol from plugin)
                                                  ./build/obj/rt_test_sequence_011.o (symbol from plugin)
                                                  ./build/obj/chfactory.o (symbol from plugin)
chRFCUCollectFaultsI                              ./build/obj/chrfcu.o (symbol from plugin)
                                                  ./build/obj/chvt.o (symbol from plugin)
chRFCUGetAndClearFaultsI                          ./build/obj/chrfcu.o (symbol from plugin)
chRegFindThreadByName                             ./build/obj/chregistry.o (symbol from plugin)
chRegFindThreadByPointer                          ./build/obj/chregistry.o (symbol from plugin)
chRegFindThreadByWorkingArea                      ./build/obj/chregistry.o (symbol from plugin)
chRegFirstThread                                  ./build/obj/chregistry.o (symbol from plugin)
chRegNextThread                                   ./build/obj/chregistry.o (symbol from plugin)
chSchDoPreemption                                 C:\Users\Ridwane\AppData\Local\Temp\ccG6qa3f.ltrans0.ltrans.o
                                                  ./build/obj/chschd.o (symbol from plugin)
                                                  ./build/obj/chcoreasm.o
chSchDoYieldS                                     ./build/obj/chschd.o (symbol from plugin)
                                                  ./build/obj/chthreads.o (symbol from plugin)
chSchGoSleepS                                     ./build/obj/chschd.o (symbol from plugin)
                                                  ./build/obj/rt_test_sequence_012.o (symbol from plugin)
                                                  ./build/obj/chmsg.o (symbol from plugin)
                                                  ./build/obj/chevents.o (symbol from plugin)
                                                  ./build/obj/chcond.o (symbol from plugin)
                                                  ./build/obj/chmtx.o (symbol from plugin)
                                                  ./build/obj/chsem.o (symbol from plugin)
                                                  ./build/obj/chthreads.o (symbol from plugin)
chSchGoSleepTimeoutS                              C:\Users\Ridwane\AppData\Local\Temp\ccG6qa3f.ltrans0.ltrans.o
                                                  ./build/obj/chschd.o (symbol from plugin)
                                                  C:\Users\Ridwane\AppData\Local\Temp\ccG6qa3f.ltrans1.ltrans.o
                                                  ./build/obj/chmsg.o (symbol from plugin)
                                                  ./build/obj/chevents.o (symbol from plugin)
                                                  ./build/obj/chcond.o (symbol from plugin)
                                                  ./build/obj/chsem.o (symbol from plugin)
                                                  ./build/obj/chthreads.o (symbol from plugin)
chSchIsPreemptionRequired                         ./build/obj/chschd.o (symbol from plugin)
                                                  ./build/obj/chcore.o (symbol from plugin)
chSchPreemption                                   ./build/obj/chschd.o (symbol from plugin)
chSchReadyI                                       ./build/obj/chschd.o (symbol from plugin)
                                                  ./build/obj/chmsg.o (symbol from plugin)
                                                  ./build/obj/chevents.o (symbol from plugin)
                                                  ./build/obj/chcond.o (symbol from plugin)
                                                  ./build/obj/chmtx.o (symbol from plugin)
                                                  ./build/obj/chsem.o (symbol from plugin)
                                                  ./build/obj/chthreads.o (symbol from plugin)
chSchRescheduleS                                  ./build/obj/chschd.o (symbol from plugin)
                                                  ./build/obj/oslib_test_sequence_006.o (symbol from plugin)
                                                  ./build/obj/rt_test_sequence_008.o (symbol from plugin)
                                                  ./build/obj/rt_test_sequence_007.o (symbol from plugin)
                                                  ./build/obj/rt_test_sequence_006.o (symbol from plugin)
                                                  ./build/obj/chpipes.o (symbol from plugin)
                                                  ./build/obj/chmempools.o (symbol from plugin)
                                                  ./build/obj/chmboxes.o (symbol from plugin)
                                                  ./build/obj/chevents.o (symbol from plugin)
                                                  ./build/obj/chcond.o (symbol from plugin)
                                                  ./build/obj/chmtx.o (symbol from plugin)
                                                  ./build/obj/chsem.o (symbol from plugin)
                                                  ./build/obj/chthreads.o (symbol from plugin)
                                                  ./build/obj/chsys.o (symbol from plugin)
                                                  ./build/obj/hal_serial.o (symbol from plugin)
chSchSelectFirst                                  ./build/obj/chschd.o (symbol from plugin)
chSchWakeupS                                      C:\Users\Ridwane\AppData\Local\Temp\ccG6qa3f.ltrans0.ltrans.o
                                                  ./build/obj/chschd.o (symbol from plugin)
                                                  C:\Users\Ridwane\AppData\Local\Temp\ccG6qa3f.ltrans1.ltrans.o
                                                  ./build/obj/rt_test_sequence_012.o (symbol from plugin)
                                                  ./build/obj/chdynamic.o (symbol from plugin)
                                                  ./build/obj/chmsg.o (symbol from plugin)
                                                  ./build/obj/chcond.o (symbol from plugin)
                                                  ./build/obj/chsem.o (symbol from plugin)
                                                  ./build/obj/chthreads.o (symbol from plugin)
chSemAddCounterI                                  ./build/obj/chsem.o (symbol from plugin)
                                                  ./build/obj/rt_test_sequence_007.o (symbol from plugin)
chSemObjectInit                                   ./build/obj/chsem.o (symbol from plugin)
                                                  ./build/obj/rt_test_sequence_012.o (symbol from plugin)
                                                  ./build/obj/rt_test_sequence_007.o (symbol from plugin)
                                                  ./build/obj/chfactory.o (symbol from plugin)
                                                  ./build/obj/chobjcaches.o (symbol from plugin)
                                                  ./build/obj/chmempools.o (symbol from plugin)
chSemResetWithMessage                             ./build/obj/chsem.o (symbol from plugin)
                                                  ./build/obj/rt_test_sequence_012.o (symbol from plugin)
                                                  ./build/obj/rt_test_sequence_007.o (symbol from plugin)
chSemResetWithMessage.constprop.0                 C:\Users\Ridwane\AppData\Local\Temp\ccG6qa3f.ltrans1.ltrans.o
                                                  C:\Users\Ridwane\AppData\Local\Temp\ccG6qa3f.ltrans0.ltrans.o
chSemResetWithMessageI                            ./build/obj/chsem.o (symbol from plugin)
chSemSignal                                       ./build/obj/chsem.o (symbol from plugin)
                                                  ./build/obj/rt_test_sequence_012.o (symbol from plugin)
                                                  ./build/obj/rt_test_sequence_007.o (symbol from plugin)
chSemSignalI                                      C:\Users\Ridwane\AppData\Local\Temp\ccG6qa3f.ltrans0.ltrans.o
                                                  ./build/obj/chsem.o (symbol from plugin)
                                                  ./build/obj/rt_test_sequence_007.o (symbol from plugin)
                                                  ./build/obj/chobjcaches.o (symbol from plugin)
                                                  ./build/obj/chmempools.o (symbol from plugin)
chSemSignalWait                                   ./build/obj/chsem.o (symbol from plugin)
                                                  ./build/obj/rt_test_sequence_007.o (symbol from plugin)
chSemSignalWait.constprop.0.isra.0                C:\Users\Ridwane\AppData\Local\Temp\ccG6qa3f.ltrans1.ltrans.o
                                                  C:\Users\Ridwane\AppData\Local\Temp\ccG6qa3f.ltrans0.ltrans.o
chSemWait                                         ./build/obj/chsem.o (symbol from plugin)
                                                  ./build/obj/rt_test_sequence_012.o (symbol from plugin)
                                                  ./build/obj/rt_test_sequence_007.o (symbol from plugin)
chSemWaitS                                        ./build/obj/chsem.o (symbol from plugin)
                                                  ./build/obj/chobjcaches.o (symbol from plugin)
chSemWaitTimeout                                  ./build/obj/chsem.o (symbol from plugin)
                                                  ./build/obj/rt_test_sequence_007.o (symbol from plugin)
chSemWaitTimeoutS                                 ./build/obj/chsem.o (symbol from plugin)
                                                  ./build/obj/chmempools.o (symbol from plugin)
chSysGetIdleThreadX                               ./build/obj/chsys.o (symbol from plugin)
chSysGetStatusAndLockX                            ./build/obj/chsys.o (symbol from plugin)
                                                  ./build/obj/rt_test_sequence_002.o (symbol from plugin)
chSysHalt                                         ./build/obj/chsys.o (symbol from plugin)
                                                  ./build/obj/syscalls.o (symbol from plugin)
chSysInit                                         ./build/obj/chsys.o (symbol from plugin)
                                                  ./build/obj/main.o (symbol from plugin)
chSysIntegrityCheckI                              ./build/obj/chsys.o (symbol from plugin)
                                                  ./build/obj/rt_test_sequence_002.o (symbol from plugin)
chSysIsCounterWithinX                             ./build/obj/chsys.o (symbol from plugin)
chSysPolledDelayX                                 ./build/obj/chsys.o (symbol from plugin)
chSysRestoreStatusX                               ./build/obj/chsys.o (symbol from plugin)
                                                  ./build/obj/rt_test_sequence_002.o (symbol from plugin)
chSysTimerHandlerI                                ./build/obj/chsys.o (symbol from plugin)
                                                  ./build/obj/hal_st_lld.o (symbol from plugin)
chSysWaitSystemState                              ./build/obj/chsys.o (symbol from plugin)
chTMChainMeasurementToX                           ./build/obj/chtm.o (symbol from plugin)
chTMObjectInit                                    ./build/obj/chtm.o (symbol from plugin)
                                                  ./build/obj/chsys.o (symbol from plugin)
chTMStartMeasurementX                             C:\Users\Ridwane\AppData\Local\Temp\ccG6qa3f.ltrans0.ltrans.o
                                                  ./build/obj/chtm.o (symbol from plugin)
                                                  C:\Users\Ridwane\AppData\Local\Temp\ccG6qa3f.ltrans1.ltrans.o
                                                  ./build/obj/chsys.o (symbol from plugin)
chTMStopMeasurementX                              C:\Users\Ridwane\AppData\Local\Temp\ccG6qa3f.ltrans0.ltrans.o
                                                  ./build/obj/chtm.o (symbol from plugin)
                                                  C:\Users\Ridwane\AppData\Local\Temp\ccG6qa3f.ltrans1.ltrans.o
                                                  ./build/obj/chsys.o (symbol from plugin)
chThdAddRef                                       ./build/obj/chthreads.o (symbol from plugin)
chThdCreate                                       ./build/obj/chthreads.o (symbol from plugin)
                                                  ./build/obj/oslib_test_sequence_005.o (symbol from plugin)
                                                  ./build/obj/oslib_test_sequence_004.o (symbol from plugin)
chThdCreateFromHeap                               ./build/obj/chdynamic.o (symbol from plugin)
                                                  ./build/obj/rt_test_sequence_011.o (symbol from plugin)
chThdCreateFromHeap.constprop.0                   C:\Users\Ridwane\AppData\Local\Temp\ccG6qa3f.ltrans1.ltrans.o
                                                  C:\Users\Ridwane\AppData\Local\Temp\ccG6qa3f.ltrans0.ltrans.o
chThdCreateFromMemoryPool                         ./build/obj/chdynamic.o (symbol from plugin)
                                                  ./build/obj/rt_test_sequence_011.o (symbol from plugin)
chThdCreateFromMemoryPool.constprop.0             C:\Users\Ridwane\AppData\Local\Temp\ccG6qa3f.ltrans1.ltrans.o
                                                  C:\Users\Ridwane\AppData\Local\Temp\ccG6qa3f.ltrans0.ltrans.o
chThdCreateI                                      ./build/obj/chthreads.o (symbol from plugin)
                                                  ./build/obj/chinstances.o (symbol from plugin)
chThdCreateStatic                                 C:\Users\Ridwane\AppData\Local\Temp\ccG6qa3f.ltrans0.ltrans.o
                                                  ./build/obj/chthreads.o (symbol from plugin)
                                                  C:\Users\Ridwane\AppData\Local\Temp\ccG6qa3f.ltrans1.ltrans.o
                                                  ./build/obj/main.o (symbol from plugin)
                                                  ./build/obj/rt_test_sequence_012.o (symbol from plugin)
                                                  ./build/obj/rt_test_sequence_010.o (symbol from plugin)
                                                  ./build/obj/rt_test_sequence_009.o (symbol from plugin)
                                                  ./build/obj/rt_test_sequence_008.o (symbol from plugin)
                                                  ./build/obj/rt_test_sequence_007.o (symbol from plugin)
                                                  ./build/obj/rt_test_sequence_006.o (symbol from plugin)
                                                  ./build/obj/rt_test_sequence_005.o (symbol from plugin)
chThdCreateSuspended                              ./build/obj/chthreads.o (symbol from plugin)
chThdCreateSuspendedI                             C:\Users\Ridwane\AppData\Local\Temp\ccG6qa3f.ltrans0.ltrans.o
                                                  ./build/obj/chthreads.o (symbol from plugin)
                                                  C:\Users\Ridwane\AppData\Local\Temp\ccG6qa3f.ltrans1.ltrans.o
                                                  ./build/obj/chdynamic.o (symbol from plugin)
chThdDequeueAllI                                  ./build/obj/chthreads.o (symbol from plugin)
                                                  ./build/obj/chmboxes.o (symbol from plugin)
                                                  ./build/obj/hal_queues.o (symbol from plugin)
                                                  ./build/obj/hal_buffers.o (symbol from plugin)
chThdDequeueNextI                                 ./build/obj/chthreads.o (symbol from plugin)
                                                  ./build/obj/chmboxes.o (symbol from plugin)
                                                  ./build/obj/hal_queues.o (symbol from plugin)
                                                  ./build/obj/hal_buffers.o (symbol from plugin)
chThdEnqueueTimeoutS                              ./build/obj/chthreads.o (symbol from plugin)
                                                  ./build/obj/chmboxes.o (symbol from plugin)
                                                  ./build/obj/hal_queues.o (symbol from plugin)
                                                  ./build/obj/hal_buffers.o (symbol from plugin)
chThdExit                                         C:\Users\Ridwane\AppData\Local\Temp\ccG6qa3f.ltrans0.ltrans.o
                                                  ./build/obj/chthreads.o (symbol from plugin)
                                                  ./build/obj/oslib_test_sequence_005.o (symbol from plugin)
                                                  ./build/obj/rt_test_sequence_012.o (symbol from plugin)
                                                  ./build/obj/chcoreasm.o
chThdExitS                                        ./build/obj/chthreads.o (symbol from plugin)
chThdRelease                                      ./build/obj/chthreads.o (symbol from plugin)
                                                  ./build/obj/rt_test_sequence_012.o (symbol from plugin)
                                                  ./build/obj/chregistry.o (symbol from plugin)
chThdResume                                       ./build/obj/chthreads.o (symbol from plugin)
                                                  ./build/obj/chpipes.o (symbol from plugin)
chThdResumeI                                      ./build/obj/chthreads.o (symbol from plugin)
                                                  ./build/obj/rt_test_sequence_006.o (symbol from plugin)
                                                  ./build/obj/chpipes.o (symbol from plugin)
chThdResumeS                                      ./build/obj/chthreads.o (symbol from plugin)
chThdSetPriority                                  ./build/obj/chthreads.o (symbol from plugin)
                                                  ./build/obj/rt_test_sequence_005.o (symbol from plugin)
chThdSleep                                        ./build/obj/chthreads.o (symbol from plugin)
                                                  ./build/obj/main.o (symbol from plugin)
                                                  ./build/obj/oslib_test_sequence_004.o (symbol from plugin)
                                                  ./build/obj/rt_test_sequence_012.o (symbol from plugin)
                                                  ./build/obj/rt_test_sequence_010.o (symbol from plugin)
                                                  ./build/obj/rt_test_sequence_008.o (symbol from plugin)
                                                  ./build/obj/rt_test_sequence_007.o (symbol from plugin)
                                                  ./build/obj/rt_test_sequence_005.o (symbol from plugin)
                                                  ./build/obj/rt_test_sequence_002.o (symbol from plugin)
                                                  ./build/obj/rt_test_root.o (symbol from plugin)
                                                  ./build/obj/ch_test.o (symbol from plugin)
                                                  ./build/obj/hal_flash.o (symbol from plugin)
chThdSleepUntil                                   ./build/obj/chthreads.o (symbol from plugin)
                                                  ./build/obj/rt_test_sequence_005.o (symbol from plugin)
chThdSleepUntilWindowed                           ./build/obj/chthreads.o (symbol from plugin)
chThdStart                                        ./build/obj/chthreads.o (symbol from plugin)
chThdSuspendS                                     ./build/obj/chthreads.o (symbol from plugin)
chThdSuspendTimeoutS                              ./build/obj/chthreads.o (symbol from plugin)
                                                  ./build/obj/rt_test_sequence_006.o (symbol from plugin)
                                                  ./build/obj/chpipes.o (symbol from plugin)
chThdTerminate                                    ./build/obj/chthreads.o (symbol from plugin)
                                                  ./build/obj/rt_test_root.o (symbol from plugin)
chThdWait                                         ./build/obj/chthreads.o (symbol from plugin)
                                                  ./build/obj/oslib_test_sequence_005.o (symbol from plugin)
                                                  ./build/obj/oslib_test_sequence_004.o (symbol from plugin)
                                                  ./build/obj/rt_test_sequence_012.o (symbol from plugin)
                                                  ./build/obj/rt_test_root.o (symbol from plugin)
chThdYield                                        ./build/obj/chthreads.o (symbol from plugin)
                                                  ./build/obj/rt_test_sequence_012.o (symbol from plugin)
chVTDoResetI                                      C:\Users\Ridwane\AppData\Local\Temp\ccG6qa3f.ltrans0.ltrans.o
                                                  ./build/obj/chvt.o (symbol from plugin)
                                                  C:\Users\Ridwane\AppData\Local\Temp\ccG6qa3f.ltrans1.ltrans.o
                                                  ./build/obj/rt_test_sequence_012.o (symbol from plugin)
                                                  ./build/obj/rt_test_sequence_002.o (symbol from plugin)
                                                  ./build/obj/chschd.o (symbol from plugin)
chVTDoSetContinuousI                              ./build/obj/chvt.o (symbol from plugin)
chVTDoSetI                                        ./build/obj/chvt.o (symbol from plugin)
                                                  ./build/obj/rt_test_sequence_012.o (symbol from plugin)
                                                  ./build/obj/rt_test_sequence_002.o (symbol from plugin)
                                                  ./build/obj/chschd.o (symbol from plugin)
chVTDoTickI                                       ./build/obj/chvt.o (symbol from plugin)
                                                  ./build/obj/chsys.o (symbol from plugin)
chVTGetRemainingIntervalI                         ./build/obj/chvt.o (symbol from plugin)
chVTGetTimeStampI                                 ./build/obj/chvt.o (symbol from plugin)
                                                  ./build/obj/rt_test_sequence_004.o (symbol from plugin)
chVTResetTimeStampI                               ./build/obj/chvt.o (symbol from plugin)
ch_core0_cfg                                      ./build/obj/chsys.o (symbol from plugin)
ch_debug                                          ./build/obj/chregistry.o (symbol from plugin)
                                                  ./build/obj/chinstances.o (symbol from plugin)
ch_factory                                        C:\Users\Ridwane\AppData\Local\Temp\ccG6qa3f.ltrans0.ltrans.o
                                                  ./build/obj/chfactory.o (symbol from plugin)
                                                  C:\Users\Ridwane\AppData\Local\Temp\ccG6qa3f.ltrans1.ltrans.o
ch_memcore                                        C:\Users\Ridwane\AppData\Local\Temp\ccG6qa3f.ltrans0.ltrans.o
                                                  ./build/obj/chmemcore.o (symbol from plugin)
                                                  C:\Users\Ridwane\AppData\Local\Temp\ccG6qa3f.ltrans1.ltrans.o
ch_system                                         C:\Users\Ridwane\AppData\Local\Temp\ccG6qa3f.ltrans0.ltrans.o
                                                  ./build/obj/chsys.o (symbol from plugin)
                                                  C:\Users\Ridwane\AppData\Local\Temp\ccG6qa3f.ltrans1.ltrans.o
                                                  ./build/obj/chtm.o (symbol from plugin)
                                                  ./build/obj/chinstances.o (symbol from plugin)
ch_test.c.94a846e5                                C:\Users\Ridwane\AppData\Local\Temp\ccUVh20y.debug.temp.o
                                                  C:\Users\Ridwane\AppData\Local\Temp\ccG6qa3f.ltrans1.ltrans.o
                                                  C:\Users\Ridwane\AppData\Local\Temp\ccG6qa3f.ltrans0.ltrans.o
ch_test_printf.c.93746ef5                         C:\Users\Ridwane\AppData\Local\Temp\cccZNeKT.debug.temp.o
                                                  C:\Users\Ridwane\AppData\Local\Temp\ccG6qa3f.ltrans1.ltrans.o
                                                  C:\Users\Ridwane\AppData\Local\Temp\ccG6qa3f.ltrans0.ltrans.o
chcond.c.93e344b4                                 C:\Users\Ridwane\AppData\Local\Temp\ccuW1bjN.debug.temp.o
                                                  C:\Users\Ridwane\AppData\Local\Temp\ccG6qa3f.ltrans0.ltrans.o
chcore.c.540d11dd                                 C:\Users\Ridwane\AppData\Local\Temp\ccmYMode.debug.temp.o
                                                  C:\Users\Ridwane\AppData\Local\Temp\ccG6qa3f.ltrans1.ltrans.o
                                                  C:\Users\Ridwane\AppData\Local\Temp\ccG6qa3f.ltrans0.ltrans.o
chdebug.c.b90ba271                                C:\Users\Ridwane\AppData\Local\Temp\ccq02xrY.debug.temp.o
chdelegates.c.1a18d48d                            C:\Users\Ridwane\AppData\Local\Temp\ccKmzVTy.debug.temp.o
                                                  C:\Users\Ridwane\AppData\Local\Temp\ccG6qa3f.ltrans0.ltrans.o
chdynamic.c.9ed1ec2e                              C:\Users\Ridwane\AppData\Local\Temp\cc46ELNB.debug.temp.o
                                                  C:\Users\Ridwane\AppData\Local\Temp\ccG6qa3f.ltrans1.ltrans.o
chevents.c.ce959448                               C:\Users\Ridwane\AppData\Local\Temp\ccUnytL4.debug.temp.o
                                                  C:\Users\Ridwane\AppData\Local\Temp\ccG6qa3f.ltrans1.ltrans.o
                                                  C:\Users\Ridwane\AppData\Local\Temp\ccG6qa3f.ltrans0.ltrans.o
chfactory.c.613ce71c                              C:\Users\Ridwane\AppData\Local\Temp\ccExP4rT.debug.temp.o
                                                  C:\Users\Ridwane\AppData\Local\Temp\ccG6qa3f.ltrans1.ltrans.o
                                                  C:\Users\Ridwane\AppData\Local\Temp\ccG6qa3f.ltrans0.ltrans.o
chinstances.c.3a410b6c                            C:\Users\Ridwane\AppData\Local\Temp\ccGGihE7.debug.temp.o
                                                  C:\Users\Ridwane\AppData\Local\Temp\ccG6qa3f.ltrans1.ltrans.o
                                                  C:\Users\Ridwane\AppData\Local\Temp\ccG6qa3f.ltrans0.ltrans.o
chmboxes.c.90e6b26f                               C:\Users\Ridwane\AppData\Local\Temp\cckVnQrS.debug.temp.o
                                                  C:\Users\Ridwane\AppData\Local\Temp\ccG6qa3f.ltrans1.ltrans.o
                                                  C:\Users\Ridwane\AppData\Local\Temp\ccG6qa3f.ltrans0.ltrans.o
chmemcore.c.b86b97a6                              C:\Users\Ridwane\AppData\Local\Temp\ccczVU08.debug.temp.o
                                                  C:\Users\Ridwane\AppData\Local\Temp\ccG6qa3f.ltrans1.ltrans.o
                                                  C:\Users\Ridwane\AppData\Local\Temp\ccG6qa3f.ltrans0.ltrans.o
chmemheaps.c.4e76e883                             C:\Users\Ridwane\AppData\Local\Temp\ccWCOINp.debug.temp.o
                                                  C:\Users\Ridwane\AppData\Local\Temp\ccG6qa3f.ltrans1.ltrans.o
                                                  C:\Users\Ridwane\AppData\Local\Temp\ccG6qa3f.ltrans0.ltrans.o
chmempools.c.93d96411                             C:\Users\Ridwane\AppData\Local\Temp\cciwwwvG.debug.temp.o
                                                  C:\Users\Ridwane\AppData\Local\Temp\ccG6qa3f.ltrans1.ltrans.o
                                                  C:\Users\Ridwane\AppData\Local\Temp\ccG6qa3f.ltrans0.ltrans.o
chmsg.c.aeca3615                                  C:\Users\Ridwane\AppData\Local\Temp\ccyGUfgl.debug.temp.o
                                                  C:\Users\Ridwane\AppData\Local\Temp\ccG6qa3f.ltrans0.ltrans.o
chmtx.c.ffd45bea                                  C:\Users\Ridwane\AppData\Local\Temp\ccOAwtMv.debug.temp.o
                                                  C:\Users\Ridwane\AppData\Local\Temp\ccG6qa3f.ltrans1.ltrans.o
                                                  C:\Users\Ridwane\AppData\Local\Temp\ccG6qa3f.ltrans0.ltrans.o
chobjcaches.c.992f4ac2                            C:\Users\Ridwane\AppData\Local\Temp\cc4M6tfe.debug.temp.o
                                                  C:\Users\Ridwane\AppData\Local\Temp\ccG6qa3f.ltrans1.ltrans.o
                                                  C:\Users\Ridwane\AppData\Local\Temp\ccG6qa3f.ltrans0.ltrans.o
chpipes.c.beca24ab                                C:\Users\Ridwane\AppData\Local\Temp\ccgVACmX.debug.temp.o
                                                  C:\Users\Ridwane\AppData\Local\Temp\ccG6qa3f.ltrans1.ltrans.o
                                                  C:\Users\Ridwane\AppData\Local\Temp\ccG6qa3f.ltrans0.ltrans.o
chprintf                                          ./build/obj/chprintf.o (symbol from plugin)
chprintf.c.5500e19a                               C:\Users\Ridwane\AppData\Local\Temp\ccYRMgLW.debug.temp.o
chregistry.c.42f5f782                             C:\Users\Ridwane\AppData\Local\Temp\ccQBiv5W.debug.temp.o
                                                  C:\Users\Ridwane\AppData\Local\Temp\ccG6qa3f.ltrans1.ltrans.o
chrfcu.c.c7969ed8                                 C:\Users\Ridwane\AppData\Local\Temp\ccWok8yG.debug.temp.o
                                                  C:\Users\Ridwane\AppData\Local\Temp\ccG6qa3f.ltrans1.ltrans.o
                                                  C:\Users\Ridwane\AppData\Local\Temp\ccG6qa3f.ltrans0.ltrans.o
chschd.c.86e79446                                 C:\Users\Ridwane\AppData\Local\Temp\ccyqppzQ.debug.temp.o
                                                  C:\Users\Ridwane\AppData\Local\Temp\ccG6qa3f.ltrans1.ltrans.o
                                                  C:\Users\Ridwane\AppData\Local\Temp\ccG6qa3f.ltrans0.ltrans.o
chsem.c.f064d69e                                  C:\Users\Ridwane\AppData\Local\Temp\cc0Emute.debug.temp.o
                                                  C:\Users\Ridwane\AppData\Local\Temp\ccG6qa3f.ltrans1.ltrans.o
                                                  C:\Users\Ridwane\AppData\Local\Temp\ccG6qa3f.ltrans0.ltrans.o
chsnprintf                                        ./build/obj/chprintf.o (symbol from plugin)
chsys.c.0617e8e0                                  C:\Users\Ridwane\AppData\Local\Temp\cccTChCo.debug.temp.o
                                                  C:\Users\Ridwane\AppData\Local\Temp\ccG6qa3f.ltrans1.ltrans.o
                                                  C:\Users\Ridwane\AppData\Local\Temp\ccG6qa3f.ltrans0.ltrans.o
chtest                                            C:\Users\Ridwane\AppData\Local\Temp\ccG6qa3f.ltrans0.ltrans.o
                                                  ./build/obj/ch_test.o (symbol from plugin)
                                                  C:\Users\Ridwane\AppData\Local\Temp\ccG6qa3f.ltrans1.ltrans.o
                                                  ./build/obj/oslib_test_sequence_009.o (symbol from plugin)
                                                  ./build/obj/oslib_test_sequence_008.o (symbol from plugin)
                                                  ./build/obj/oslib_test_sequence_007.o (symbol from plugin)
                                                  ./build/obj/oslib_test_sequence_006.o (symbol from plugin)
                                                  ./build/obj/oslib_test_sequence_005.o (symbol from plugin)
                                                  ./build/obj/oslib_test_sequence_004.o (symbol from plugin)
                                                  ./build/obj/oslib_test_sequence_003.o (symbol from plugin)
                                                  ./build/obj/oslib_test_sequence_002.o (symbol from plugin)
                                                  ./build/obj/oslib_test_sequence_001.o (symbol from plugin)
                                                  ./build/obj/rt_test_sequence_012.o (symbol from plugin)
                                                  ./build/obj/rt_test_sequence_011.o (symbol from plugin)
                                                  ./build/obj/rt_test_sequence_010.o (symbol from plugin)
                                                  ./build/obj/rt_test_sequence_009.o (symbol from plugin)
                                                  ./build/obj/rt_test_sequence_008.o (symbol from plugin)
                                                  ./build/obj/rt_test_sequence_007.o (symbol from plugin)
                                                  ./build/obj/rt_test_sequence_006.o (symbol from plugin)
                                                  ./build/obj/rt_test_sequence_005.o (symbol from plugin)
                                                  ./build/obj/rt_test_sequence_004.o (symbol from plugin)
                                                  ./build/obj/rt_test_sequence_003.o (symbol from plugin)
                                                  ./build/obj/rt_test_sequence_002.o (symbol from plugin)
                                                  ./build/obj/rt_test_sequence_001.o (symbol from plugin)
                                                  ./build/obj/ch_test_printf.o (symbol from plugin)
chthreads.c.18757f10                              C:\Users\Ridwane\AppData\Local\Temp\ccGEczMo.debug.temp.o
                                                  C:\Users\Ridwane\AppData\Local\Temp\ccG6qa3f.ltrans1.ltrans.o
                                                  C:\Users\Ridwane\AppData\Local\Temp\ccG6qa3f.ltrans0.ltrans.o
chtm.c.58ef772a                                   C:\Users\Ridwane\AppData\Local\Temp\ccqI7pQF.debug.temp.o
                                                  C:\Users\Ridwane\AppData\Local\Temp\ccG6qa3f.ltrans1.ltrans.o
                                                  C:\Users\Ridwane\AppData\Local\Temp\ccG6qa3f.ltrans0.ltrans.o
chtrace.c.6ef04d22                                C:\Users\Ridwane\AppData\Local\Temp\ccABK2ng.debug.temp.o
chvprintf                                         ./build/obj/chprintf.o (symbol from plugin)
chvsnprintf                                       ./build/obj/chprintf.o (symbol from plugin)
chvt.c.2359b34f                                   C:\Users\Ridwane\AppData\Local\Temp\ccGWqWvy.debug.temp.o
                                                  C:\Users\Ridwane\AppData\Local\Temp\ccG6qa3f.ltrans1.ltrans.o
                                                  C:\Users\Ridwane\AppData\Local\Temp\ccG6qa3f.ltrans0.ltrans.o
consts.c.08fe0f3d                                 C:\Users\Ridwane\AppData\Local\Temp\ccAZzsUR.debug.temp.o
                                                  C:\Users\Ridwane\AppData\Local\Temp\ccG6qa3f.ltrans1.ltrans.o
crt1.c.cd6fc941                                   C:\Users\Ridwane\AppData\Local\Temp\ccMjm6eA.debug.temp.o
                                                  C:\Users\Ridwane\AppData\Local\Temp\ccG6qa3f.ltrans0.ltrans.o
default_heap.lto_priv.0                           C:\Users\Ridwane\AppData\Local\Temp\ccG6qa3f.ltrans0.ltrans.o
                                                  C:\Users\Ridwane\AppData\Local\Temp\ccG6qa3f.ltrans1.ltrans.o
dyn_create_object_heap.lto_priv.0                 C:\Users\Ridwane\AppData\Local\Temp\ccG6qa3f.ltrans0.ltrans.o
                                                  C:\Users\Ridwane\AppData\Local\Temp\ccG6qa3f.ltrans1.ltrans.o
dyn_thread1.lto_priv.0                            C:\Users\Ridwane\AppData\Local\Temp\ccG6qa3f.ltrans0.ltrans.o
                                                  C:\Users\Ridwane\AppData\Local\Temp\ccG6qa3f.ltrans1.ltrans.o
errno                                             c:/chibistudio/tools/gnu tools arm embedded/11.3 2022.08/bin/../lib/gcc/arm-none-eabi/11.3.1/thumb/v7e-m/nofp\libg_nano.a(libc_a-reent.o)
                                                  c:/chibistudio/tools/gnu tools arm embedded/11.3 2022.08/bin/../lib/gcc/arm-none-eabi/11.3.1/thumb/v7e-m/nofp\libg_nano.a(libc_a-signalr.o)
fflush                                            c:/chibistudio/tools/gnu tools arm embedded/11.3 2022.08/bin/../lib/gcc/arm-none-eabi/11.3.1/thumb/v7e-m/nofp\libg_nano.a(libc_a-fflush.o)
fiprintf                                          c:/chibistudio/tools/gnu tools arm embedded/11.3 2022.08/bin/../lib/gcc/arm-none-eabi/11.3.1/thumb/v7e-m/nofp\libg_nano.a(libc_a-fprintf.o)
                                                  c:/chibistudio/tools/gnu tools arm embedded/11.3 2022.08/bin/../lib/gcc/arm-none-eabi/11.3.1/thumb/v7e-m/nofp\libg_nano.a(libc_a-assert.o)
fips202.c.29d54800                                C:\Users\Ridwane\AppData\Local\Temp\cc0aUPYa.debug.temp.o
                                                  C:\Users\Ridwane\AppData\Local\Temp\ccG6qa3f.ltrans1.ltrans.o
flashGetAddressOffset                             ./build/obj/hal_flash.o (symbol from plugin)
flashGetOffsetAddress                             ./build/obj/hal_flash.o (symbol from plugin)
flashGetOffsetSector                              ./build/obj/hal_flash.o (symbol from plugin)
flashGetSectorOffset                              ./build/obj/hal_flash.o (symbol from plugin)
flashGetSectorSize                                ./build/obj/hal_flash.o (symbol from plugin)
flashWaitErase                                    ./build/obj/hal_flash.o (symbol from plugin)
fprintf                                           c:/chibistudio/tools/gnu tools arm embedded/11.3 2022.08/bin/../lib/gcc/arm-none-eabi/11.3.1/thumb/v7e-m/nofp\libg_nano.a(libc_a-fprintf.o)
free                                              c:/chibistudio/tools/gnu tools arm embedded/11.3 2022.08/bin/../lib/gcc/arm-none-eabi/11.3.1/thumb/v7e-m/nofp\libg_nano.a(libc_a-malloc.o)
hal.c.98cb26bd                                    C:\Users\Ridwane\AppData\Local\Temp\ccmIIEHO.debug.temp.o
                                                  C:\Users\Ridwane\AppData\Local\Temp\ccG6qa3f.ltrans1.ltrans.o
halInit                                           ./build/obj/hal.o (symbol from plugin)
                                                  ./build/obj/main.o (symbol from plugin)
hal_buffered_serial.c.224a7a18                    C:\Users\Ridwane\AppData\Local\Temp\ccM3mEvh.debug.temp.o
hal_buffers.c.d0d3f49e                            C:\Users\Ridwane\AppData\Local\Temp\ccQHTV6v.debug.temp.o
hal_efl_lld.c.0c9a4dc5                            C:\Users\Ridwane\AppData\Local\Temp\ccwxClY3.debug.temp.o
hal_flash.c.864d59c0                              C:\Users\Ridwane\AppData\Local\Temp\cc6pSUcZ.debug.temp.o
hal_lld.c.7885cef6                                C:\Users\Ridwane\AppData\Local\Temp\ccATrKuL.debug.temp.o
                                                  C:\Users\Ridwane\AppData\Local\Temp\ccG6qa3f.ltrans1.ltrans.o
                                                  C:\Users\Ridwane\AppData\Local\Temp\ccG6qa3f.ltrans0.ltrans.o
hal_lld_init                                      ./build/obj/hal_lld.o (symbol from plugin)
                                                  ./build/obj/hal.o (symbol from plugin)
hal_mmcsd.c.405e8601                              C:\Users\Ridwane\AppData\Local\Temp\cc6PAfvh.debug.temp.o
hal_pal.c.ea406bd9                                C:\Users\Ridwane\AppData\Local\Temp\ccWIePGz.debug.temp.o
hal_pal_lld.c.36f076d4                            C:\Users\Ridwane\AppData\Local\Temp\ccOI6H1X.debug.temp.o
                                                  C:\Users\Ridwane\AppData\Local\Temp\ccG6qa3f.ltrans1.ltrans.o
hal_queues.c.cc6d76c1                             C:\Users\Ridwane\AppData\Local\Temp\ccErrMDK.debug.temp.o
                                                  C:\Users\Ridwane\AppData\Local\Temp\ccG6qa3f.ltrans1.ltrans.o
                                                  C:\Users\Ridwane\AppData\Local\Temp\ccG6qa3f.ltrans0.ltrans.o
hal_serial.c.c818b30e                             C:\Users\Ridwane\AppData\Local\Temp\ccE1d85R.debug.temp.o
                                                  C:\Users\Ridwane\AppData\Local\Temp\ccG6qa3f.ltrans1.ltrans.o
                                                  C:\Users\Ridwane\AppData\Local\Temp\ccG6qa3f.ltrans0.ltrans.o
hal_serial_lld.c.f13e4308                         C:\Users\Ridwane\AppData\Local\Temp\ccYNgGnx.debug.temp.o
                                                  C:\Users\Ridwane\AppData\Local\Temp\ccG6qa3f.ltrans1.ltrans.o
                                                  C:\Users\Ridwane\AppData\Local\Temp\ccG6qa3f.ltrans0.ltrans.o
hal_st.c.22b8dabc                                 C:\Users\Ridwane\AppData\Local\Temp\ccGc6L52.debug.temp.o
                                                  C:\Users\Ridwane\AppData\Local\Temp\ccG6qa3f.ltrans1.ltrans.o
                                                  C:\Users\Ridwane\AppData\Local\Temp\ccG6qa3f.ltrans0.ltrans.o
hal_st_lld.c.c2e7e402                             C:\Users\Ridwane\AppData\Local\Temp\ccsthxGf.debug.temp.o
                                                  C:\Users\Ridwane\AppData\Local\Temp\ccG6qa3f.ltrans1.ltrans.o
                                                  C:\Users\Ridwane\AppData\Local\Temp\ccG6qa3f.ltrans0.ltrans.o
heap1.lto_priv.0                                  C:\Users\Ridwane\AppData\Local\Temp\ccG6qa3f.ltrans0.ltrans.o
                                                  C:\Users\Ridwane\AppData\Local\Temp\ccG6qa3f.ltrans1.ltrans.o
ibqGetEmptyBufferI                                ./build/obj/hal_buffers.o (symbol from plugin)
ibqGetFullBufferTimeout                           ./build/obj/hal_buffers.o (symbol from plugin)
ibqGetFullBufferTimeoutS                          ./build/obj/hal_buffers.o (symbol from plugin)
ibqGetTimeout                                     ./build/obj/hal_buffers.o (symbol from plugin)
ibqObjectInit                                     ./build/obj/hal_buffers.o (symbol from plugin)
ibqPostFullBufferI                                ./build/obj/hal_buffers.o (symbol from plugin)
ibqReadTimeout                                    ./build/obj/hal_buffers.o (symbol from plugin)
ibqReleaseEmptyBuffer                             ./build/obj/hal_buffers.o (symbol from plugin)
ibqReleaseEmptyBufferS                            ./build/obj/hal_buffers.o (symbol from plugin)
ibqResetI                                         ./build/obj/hal_buffers.o (symbol from plugin)
iqGetI                                            ./build/obj/hal_queues.o (symbol from plugin)
iqGetTimeout                                      ./build/obj/hal_queues.o (symbol from plugin)
                                                  ./build/obj/hal_serial.o (symbol from plugin)
iqObjectInit                                      ./build/obj/hal_queues.o (symbol from plugin)
                                                  ./build/obj/hal_serial.o (symbol from plugin)
iqPutI                                            ./build/obj/hal_queues.o (symbol from plugin)
                                                  ./build/obj/hal_serial.o (symbol from plugin)
                                                  ./build/obj/hal_buffered_serial.o (symbol from plugin)
iqReadI                                           ./build/obj/hal_queues.o (symbol from plugin)
iqReadTimeout                                     ./build/obj/hal_queues.o (symbol from plugin)
                                                  ./build/obj/hal_serial.o (symbol from plugin)
iqResetI                                          ./build/obj/hal_queues.o (symbol from plugin)
                                                  ./build/obj/hal_serial.o (symbol from plugin)
irqDeinit                                         ./build/obj/stm32_isr.o (symbol from plugin)
irqInit                                           ./build/obj/stm32_isr.o (symbol from plugin)
                                                  ./build/obj/hal_lld.o (symbol from plugin)
main                                              C:\Users\Ridwane\AppData\Local\Temp\ccG6qa3f.ltrans1.ltrans.o
                                                  ./build/obj/main.o (symbol from plugin)
                                                  ./build/obj/crt0_v7m.o
main.c.6c889345                                   C:\Users\Ridwane\AppData\Local\Temp\cc4k1FNf.debug.temp.o
                                                  C:\Users\Ridwane\AppData\Local\Temp\ccG6qa3f.ltrans1.ltrans.o
malloc                                            c:/chibistudio/tools/gnu tools arm embedded/11.3 2022.08/bin/../lib/gcc/arm-none-eabi/11.3.1/thumb/v7e-m/nofp\libg_nano.a(libc_a-malloc.o)
                                                  c:/chibistudio/tools/gnu tools arm embedded/11.3 2022.08/bin/../lib/gcc/arm-none-eabi/11.3.1/thumb/v7e-m/nofp\libg_nano.a(libc_a-rand.o)
mb1.lto_priv.0                                    C:\Users\Ridwane\AppData\Local\Temp\ccG6qa3f.ltrans0.ltrans.o
                                                  C:\Users\Ridwane\AppData\Local\Temp\ccG6qa3f.ltrans1.ltrans.o
memchr                                            c:/chibistudio/tools/gnu tools arm embedded/11.3 2022.08/bin/../lib/gcc/arm-none-eabi/11.3.1/thumb/v7e-m/nofp\libg_nano.a(libc_a-memchr.o)
                                                  c:/chibistudio/tools/gnu tools arm embedded/11.3 2022.08/bin/../lib/gcc/arm-none-eabi/11.3.1/thumb/v7e-m/nofp\libg_nano.a(libc_a-fvwrite.o)
                                                  c:/chibistudio/tools/gnu tools arm embedded/11.3 2022.08/bin/../lib/gcc/arm-none-eabi/11.3.1/thumb/v7e-m/nofp\libg_nano.a(libc_a-nano-vfprintf_i.o)
                                                  c:/chibistudio/tools/gnu tools arm embedded/11.3 2022.08/bin/../lib/gcc/arm-none-eabi/11.3.1/thumb/v7e-m/nofp\libg_nano.a(libc_a-nano-vfprintf.o)
memcmp                                            c:/chibistudio/tools/gnu tools arm embedded/11.3 2022.08/bin/../lib/gcc/arm-none-eabi/11.3.1/thumb/v7e-m/nofp\libg_nano.a(libc_a-memcmp.o)
                                                  C:\Users\Ridwane\AppData\Local\Temp\ccG6qa3f.ltrans0.ltrans.o
memcpy                                            c:/chibistudio/tools/gnu tools arm embedded/11.3 2022.08/bin/../lib/gcc/arm-none-eabi/11.3.1/thumb/v7e-m/nofp\libg_nano.a(libc_a-memcpy-stub.o)
                                                  C:\Users\Ridwane\AppData\Local\Temp\ccG6qa3f.ltrans1.ltrans.o
                                                  C:\Users\Ridwane\AppData\Local\Temp\ccG6qa3f.ltrans0.ltrans.o
                                                  c:/chibistudio/tools/gnu tools arm embedded/11.3 2022.08/bin/../lib/gcc/arm-none-eabi/11.3.1/thumb/v7e-m/nofp\libg_nano.a(libc_a-reallocr.o)
                                                  c:/chibistudio/tools/gnu tools arm embedded/11.3 2022.08/bin/../lib/gcc/arm-none-eabi/11.3.1/thumb/v7e-m/nofp\libg_nano.a(libc_a-fvwrite.o)
memmove                                           c:/chibistudio/tools/gnu tools arm embedded/11.3 2022.08/bin/../lib/gcc/arm-none-eabi/11.3.1/thumb/v7e-m/nofp\libg_nano.a(libc_a-memmove.o)
                                                  c:/chibistudio/tools/gnu tools arm embedded/11.3 2022.08/bin/../lib/gcc/arm-none-eabi/11.3.1/thumb/v7e-m/nofp\libg_nano.a(libc_a-fvwrite.o)
memset                                            c:/chibistudio/tools/gnu tools arm embedded/11.3 2022.08/bin/../lib/gcc/arm-none-eabi/11.3.1/thumb/v7e-m/nofp\libg_nano.a(libc_a-memset.o)
                                                  C:\Users\Ridwane\AppData\Local\Temp\ccG6qa3f.ltrans1.ltrans.o
                                                  C:\Users\Ridwane\AppData\Local\Temp\ccG6qa3f.ltrans0.ltrans.o
                                                  c:/chibistudio/tools/gnu tools arm embedded/11.3 2022.08/bin/../lib/gcc/arm-none-eabi/11.3.1/thumb/v7e-m/nofp\libg_nano.a(libc_a-findfp.o)
mp1.lto_priv.0                                    C:\Users\Ridwane\AppData\Local\Temp\ccG6qa3f.ltrans0.ltrans.o
                                                  C:\Users\Ridwane\AppData\Local\Temp\ccG6qa3f.ltrans1.ltrans.o
msObjectInit                                      ./build/obj/chprintf.o (symbol from plugin)
notify1.lto_priv.0                                C:\Users\Ridwane\AppData\Local\Temp\ccG6qa3f.ltrans0.ltrans.o
                                                  C:\Users\Ridwane\AppData\Local\Temp\ccG6qa3f.ltrans1.ltrans.o
notify2.lto_priv.0                                C:\Users\Ridwane\AppData\Local\Temp\ccG6qa3f.ltrans0.ltrans.o
                                                  C:\Users\Ridwane\AppData\Local\Temp\ccG6qa3f.ltrans1.ltrans.o
nvic.c.5d57f6da                                   C:\Users\Ridwane\AppData\Local\Temp\ccgXiLxa.debug.temp.o
                                                  C:\Users\Ridwane\AppData\Local\Temp\ccG6qa3f.ltrans1.ltrans.o
nvicClearPending                                  ./build/obj/nvic.o (symbol from plugin)
nvicDisableVector                                 ./build/obj/nvic.o (symbol from plugin)
                                                  ./build/obj/stm32_isr.o (symbol from plugin)
nvicEnableVector                                  ./build/obj/nvic.o (symbol from plugin)
                                                  ./build/obj/stm32_isr.o (symbol from plugin)
nvicInit                                          ./build/obj/nvic.o (symbol from plugin)
nvicSetPending                                    ./build/obj/nvic.o (symbol from plugin)
nvicSetSystemHandlerPriority                      ./build/obj/nvic.o (symbol from plugin)
obqFlush                                          ./build/obj/hal_buffers.o (symbol from plugin)
obqGetEmptyBufferTimeout                          ./build/obj/hal_buffers.o (symbol from plugin)
obqGetEmptyBufferTimeoutS                         ./build/obj/hal_buffers.o (symbol from plugin)
obqGetFullBufferI                                 ./build/obj/hal_buffers.o (symbol from plugin)
obqObjectInit                                     ./build/obj/hal_buffers.o (symbol from plugin)
obqPostFullBuffer                                 ./build/obj/hal_buffers.o (symbol from plugin)
obqPostFullBufferS                                ./build/obj/hal_buffers.o (symbol from plugin)
obqPutTimeout                                     ./build/obj/hal_buffers.o (symbol from plugin)
obqReleaseEmptyBufferI                            ./build/obj/hal_buffers.o (symbol from plugin)
obqResetI                                         ./build/obj/hal_buffers.o (symbol from plugin)
obqTryFlushI                                      ./build/obj/hal_buffers.o (symbol from plugin)
obqWriteTimeout                                   ./build/obj/hal_buffers.o (symbol from plugin)
open                                              c:/chibistudio/tools/gnu tools arm embedded/11.3 2022.08/bin/../lib/gcc/arm-none-eabi/11.3.1/thumb/v7e-m/nofp\libg_nano.a(libc_a-sysopen.o)
                                                  C:\Users\Ridwane\AppData\Local\Temp\ccG6qa3f.ltrans1.ltrans.o
                                                  ./build/obj/randombytes.o (symbol from plugin)
oqGetI                                            ./build/obj/hal_queues.o (symbol from plugin)
                                                  ./build/obj/hal_serial_lld.o (symbol from plugin)
                                                  ./build/obj/hal_serial.o (symbol from plugin)
                                                  ./build/obj/hal_buffered_serial.o (symbol from plugin)
oqObjectInit                                      ./build/obj/hal_queues.o (symbol from plugin)
                                                  ./build/obj/hal_serial.o (symbol from plugin)
oqPutI                                            ./build/obj/hal_queues.o (symbol from plugin)
oqPutTimeout                                      ./build/obj/hal_queues.o (symbol from plugin)
                                                  ./build/obj/hal_serial.o (symbol from plugin)
oqResetI                                          ./build/obj/hal_queues.o (symbol from plugin)
                                                  ./build/obj/hal_serial.o (symbol from plugin)
oqWriteI                                          ./build/obj/hal_queues.o (symbol from plugin)
oqWriteTimeout                                    ./build/obj/hal_queues.o (symbol from plugin)
                                                  ./build/obj/hal_serial.o (symbol from plugin)
osal.c.1a0c3868                                   C:\Users\Ridwane\AppData\Local\Temp\ccqabQQ6.debug.temp.o
oslib_test_001_001_execute.lto_priv.0             C:\Users\Ridwane\AppData\Local\Temp\ccG6qa3f.ltrans0.ltrans.o
                                                  C:\Users\Ridwane\AppData\Local\Temp\ccG6qa3f.ltrans1.ltrans.o
oslib_test_001_002_execute.lto_priv.0             C:\Users\Ridwane\AppData\Local\Temp\ccG6qa3f.ltrans0.ltrans.o
                                                  C:\Users\Ridwane\AppData\Local\Temp\ccG6qa3f.ltrans1.ltrans.o
oslib_test_001_003_execute.lto_priv.0             C:\Users\Ridwane\AppData\Local\Temp\ccG6qa3f.ltrans0.ltrans.o
                                                  C:\Users\Ridwane\AppData\Local\Temp\ccG6qa3f.ltrans1.ltrans.o
oslib_test_002_001_execute.lto_priv.0             C:\Users\Ridwane\AppData\Local\Temp\ccG6qa3f.ltrans0.ltrans.o
                                                  C:\Users\Ridwane\AppData\Local\Temp\ccG6qa3f.ltrans1.ltrans.o
oslib_test_002_001_setup.lto_priv.0               C:\Users\Ridwane\AppData\Local\Temp\ccG6qa3f.ltrans0.ltrans.o
                                                  C:\Users\Ridwane\AppData\Local\Temp\ccG6qa3f.ltrans1.ltrans.o
oslib_test_002_001_teardown.lto_priv.0            C:\Users\Ridwane\AppData\Local\Temp\ccG6qa3f.ltrans0.ltrans.o
                                                  C:\Users\Ridwane\AppData\Local\Temp\ccG6qa3f.ltrans1.ltrans.o
oslib_test_002_002_execute.lto_priv.0             C:\Users\Ridwane\AppData\Local\Temp\ccG6qa3f.ltrans0.ltrans.o
                                                  C:\Users\Ridwane\AppData\Local\Temp\ccG6qa3f.ltrans1.ltrans.o
oslib_test_002_002_setup.lto_priv.0               C:\Users\Ridwane\AppData\Local\Temp\ccG6qa3f.ltrans0.ltrans.o
                                                  C:\Users\Ridwane\AppData\Local\Temp\ccG6qa3f.ltrans1.ltrans.o
oslib_test_002_002_teardown.lto_priv.0            C:\Users\Ridwane\AppData\Local\Temp\ccG6qa3f.ltrans0.ltrans.o
                                                  C:\Users\Ridwane\AppData\Local\Temp\ccG6qa3f.ltrans1.ltrans.o
oslib_test_002_003_execute.lto_priv.0             C:\Users\Ridwane\AppData\Local\Temp\ccG6qa3f.ltrans0.ltrans.o
                                                  C:\Users\Ridwane\AppData\Local\Temp\ccG6qa3f.ltrans1.ltrans.o
oslib_test_002_003_setup.lto_priv.0               C:\Users\Ridwane\AppData\Local\Temp\ccG6qa3f.ltrans0.ltrans.o
                                                  C:\Users\Ridwane\AppData\Local\Temp\ccG6qa3f.ltrans1.ltrans.o
oslib_test_002_003_teardown.lto_priv.0            C:\Users\Ridwane\AppData\Local\Temp\ccG6qa3f.ltrans0.ltrans.o
                                                  C:\Users\Ridwane\AppData\Local\Temp\ccG6qa3f.ltrans1.ltrans.o
oslib_test_003_001_execute.lto_priv.0             C:\Users\Ridwane\AppData\Local\Temp\ccG6qa3f.ltrans0.ltrans.o
                                                  C:\Users\Ridwane\AppData\Local\Temp\ccG6qa3f.ltrans1.ltrans.o
oslib_test_003_001_setup.lto_priv.0               C:\Users\Ridwane\AppData\Local\Temp\ccG6qa3f.ltrans0.ltrans.o
                                                  C:\Users\Ridwane\AppData\Local\Temp\ccG6qa3f.ltrans1.ltrans.o
oslib_test_003_002_execute.lto_priv.0             C:\Users\Ridwane\AppData\Local\Temp\ccG6qa3f.ltrans0.ltrans.o
                                                  C:\Users\Ridwane\AppData\Local\Temp\ccG6qa3f.ltrans1.ltrans.o
oslib_test_003_002_setup.lto_priv.0               C:\Users\Ridwane\AppData\Local\Temp\ccG6qa3f.ltrans0.ltrans.o
                                                  C:\Users\Ridwane\AppData\Local\Temp\ccG6qa3f.ltrans1.ltrans.o
oslib_test_004_001_execute.lto_priv.0             C:\Users\Ridwane\AppData\Local\Temp\ccG6qa3f.ltrans0.ltrans.o
                                                  C:\Users\Ridwane\AppData\Local\Temp\ccG6qa3f.ltrans1.ltrans.o
oslib_test_005_001_execute.lto_priv.0             C:\Users\Ridwane\AppData\Local\Temp\ccG6qa3f.ltrans0.ltrans.o
                                                  C:\Users\Ridwane\AppData\Local\Temp\ccG6qa3f.ltrans1.ltrans.o
oslib_test_006_001_execute.lto_priv.0             C:\Users\Ridwane\AppData\Local\Temp\ccG6qa3f.ltrans0.ltrans.o
                                                  C:\Users\Ridwane\AppData\Local\Temp\ccG6qa3f.ltrans1.ltrans.o
oslib_test_007_001_execute.lto_priv.0             C:\Users\Ridwane\AppData\Local\Temp\ccG6qa3f.ltrans0.ltrans.o
                                                  C:\Users\Ridwane\AppData\Local\Temp\ccG6qa3f.ltrans1.ltrans.o
oslib_test_007_001_setup.lto_priv.0               C:\Users\Ridwane\AppData\Local\Temp\ccG6qa3f.ltrans0.ltrans.o
                                                  C:\Users\Ridwane\AppData\Local\Temp\ccG6qa3f.ltrans1.ltrans.o
oslib_test_007_002_execute.lto_priv.0             C:\Users\Ridwane\AppData\Local\Temp\ccG6qa3f.ltrans0.ltrans.o
                                                  C:\Users\Ridwane\AppData\Local\Temp\ccG6qa3f.ltrans1.ltrans.o
oslib_test_007_002_setup.lto_priv.0               C:\Users\Ridwane\AppData\Local\Temp\ccG6qa3f.ltrans0.ltrans.o
                                                  C:\Users\Ridwane\AppData\Local\Temp\ccG6qa3f.ltrans1.ltrans.o
oslib_test_007_003_execute.lto_priv.0             C:\Users\Ridwane\AppData\Local\Temp\ccG6qa3f.ltrans0.ltrans.o
                                                  C:\Users\Ridwane\AppData\Local\Temp\ccG6qa3f.ltrans1.ltrans.o
oslib_test_007_003_setup.lto_priv.0               C:\Users\Ridwane\AppData\Local\Temp\ccG6qa3f.ltrans0.ltrans.o
                                                  C:\Users\Ridwane\AppData\Local\Temp\ccG6qa3f.ltrans1.ltrans.o
oslib_test_008_001_execute.lto_priv.0             C:\Users\Ridwane\AppData\Local\Temp\ccG6qa3f.ltrans0.ltrans.o
                                                  C:\Users\Ridwane\AppData\Local\Temp\ccG6qa3f.ltrans1.ltrans.o
oslib_test_008_001_setup.lto_priv.0               C:\Users\Ridwane\AppData\Local\Temp\ccG6qa3f.ltrans0.ltrans.o
                                                  C:\Users\Ridwane\AppData\Local\Temp\ccG6qa3f.ltrans1.ltrans.o
oslib_test_root.c.fe47f9f5                        C:\Users\Ridwane\AppData\Local\Temp\ccEdKtXt.debug.temp.o
                                                  C:\Users\Ridwane\AppData\Local\Temp\ccG6qa3f.ltrans1.ltrans.o
oslib_test_sequence_001                           ./build/obj/oslib_test_sequence_001.o (symbol from plugin)
                                                  ./build/obj/oslib_test_root.o (symbol from plugin)
oslib_test_sequence_001.c.8d29c9cd                C:\Users\Ridwane\AppData\Local\Temp\ccyWbAlN.debug.temp.o
                                                  C:\Users\Ridwane\AppData\Local\Temp\ccG6qa3f.ltrans1.ltrans.o
                                                  C:\Users\Ridwane\AppData\Local\Temp\ccG6qa3f.ltrans0.ltrans.o
oslib_test_sequence_001_array                     ./build/obj/oslib_test_sequence_001.o (symbol from plugin)
oslib_test_sequence_002                           ./build/obj/oslib_test_sequence_002.o (symbol from plugin)
                                                  ./build/obj/oslib_test_root.o (symbol from plugin)
oslib_test_sequence_002.c.af26824f                C:\Users\Ridwane\AppData\Local\Temp\cccPMQW6.debug.temp.o
                                                  C:\Users\Ridwane\AppData\Local\Temp\ccG6qa3f.ltrans1.ltrans.o
                                                  C:\Users\Ridwane\AppData\Local\Temp\ccG6qa3f.ltrans0.ltrans.o
oslib_test_sequence_002_array                     ./build/obj/oslib_test_sequence_002.o (symbol from plugin)
oslib_test_sequence_003                           ./build/obj/oslib_test_sequence_003.o (symbol from plugin)
                                                  ./build/obj/oslib_test_root.o (symbol from plugin)
oslib_test_sequence_003.c.15a61173                C:\Users\Ridwane\AppData\Local\Temp\ccANoGtq.debug.temp.o
                                                  C:\Users\Ridwane\AppData\Local\Temp\ccG6qa3f.ltrans1.ltrans.o
                                                  C:\Users\Ridwane\AppData\Local\Temp\ccG6qa3f.ltrans0.ltrans.o
oslib_test_sequence_003_array                     ./build/obj/oslib_test_sequence_003.o (symbol from plugin)
oslib_test_sequence_004                           ./build/obj/oslib_test_sequence_004.o (symbol from plugin)
                                                  ./build/obj/oslib_test_root.o (symbol from plugin)
oslib_test_sequence_004.c.68a6b137                C:\Users\Ridwane\AppData\Local\Temp\ccWygVbK.debug.temp.o
                                                  C:\Users\Ridwane\AppData\Local\Temp\ccG6qa3f.ltrans1.ltrans.o
                                                  C:\Users\Ridwane\AppData\Local\Temp\ccG6qa3f.ltrans0.ltrans.o
oslib_test_sequence_004_array                     ./build/obj/oslib_test_sequence_004.o (symbol from plugin)
oslib_test_sequence_005                           ./build/obj/oslib_test_sequence_005.o (symbol from plugin)
                                                  ./build/obj/oslib_test_root.o (symbol from plugin)
oslib_test_sequence_005.c.f65145ca                C:\Users\Ridwane\AppData\Local\Temp\ccU9W9O3.debug.temp.o
                                                  C:\Users\Ridwane\AppData\Local\Temp\ccG6qa3f.ltrans1.ltrans.o
                                                  C:\Users\Ridwane\AppData\Local\Temp\ccG6qa3f.ltrans0.ltrans.o
oslib_test_sequence_005_array                     ./build/obj/oslib_test_sequence_005.o (symbol from plugin)
oslib_test_sequence_006                           ./build/obj/oslib_test_sequence_006.o (symbol from plugin)
                                                  ./build/obj/oslib_test_root.o (symbol from plugin)
oslib_test_sequence_006.c.56fcecd3                C:\Users\Ridwane\AppData\Local\Temp\ccMnJIun.debug.temp.o
                                                  C:\Users\Ridwane\AppData\Local\Temp\ccG6qa3f.ltrans1.ltrans.o
                                                  C:\Users\Ridwane\AppData\Local\Temp\ccG6qa3f.ltrans0.ltrans.o
oslib_test_sequence_006_array                     ./build/obj/oslib_test_sequence_006.o (symbol from plugin)
oslib_test_sequence_007                           ./build/obj/oslib_test_sequence_007.o (symbol from plugin)
                                                  ./build/obj/oslib_test_root.o (symbol from plugin)
oslib_test_sequence_007.c.a7d38438                C:\Users\Ridwane\AppData\Local\Temp\ccw1Q0nH.debug.temp.o
                                                  C:\Users\Ridwane\AppData\Local\Temp\ccG6qa3f.ltrans1.ltrans.o
                                                  C:\Users\Ridwane\AppData\Local\Temp\ccG6qa3f.ltrans0.ltrans.o
oslib_test_sequence_007_array                     ./build/obj/oslib_test_sequence_007.o (symbol from plugin)
oslib_test_sequence_008                           ./build/obj/oslib_test_sequence_008.o (symbol from plugin)
                                                  ./build/obj/oslib_test_root.o (symbol from plugin)
oslib_test_sequence_008.c.f49e98ab                C:\Users\Ridwane\AppData\Local\Temp\ccSuNic1.debug.temp.o
                                                  C:\Users\Ridwane\AppData\Local\Temp\ccG6qa3f.ltrans1.ltrans.o
                                                  C:\Users\Ridwane\AppData\Local\Temp\ccG6qa3f.ltrans0.ltrans.o
oslib_test_sequence_008_array                     ./build/obj/oslib_test_sequence_008.o (symbol from plugin)
oslib_test_sequence_009                           ./build/obj/oslib_test_sequence_009.o (symbol from plugin)
                                                  ./build/obj/oslib_test_root.o (symbol from plugin)
oslib_test_sequence_009.c.9f728c74                C:\Users\Ridwane\AppData\Local\Temp\cc8APU2k.debug.temp.o
                                                  C:\Users\Ridwane\AppData\Local\Temp\ccG6qa3f.ltrans1.ltrans.o
oslib_test_sequence_009_array                     ./build/obj/oslib_test_sequence_009.o (symbol from plugin)
oslib_test_suite                                  ./build/obj/oslib_test_root.o (symbol from plugin)
                                                  ./build/obj/main.o (symbol from plugin)
oslib_test_suite_array                            ./build/obj/oslib_test_root.o (symbol from plugin)
packing.c.a1fb794d                                C:\Users\Ridwane\AppData\Local\Temp\cciMzWgu.debug.temp.o
                                                  C:\Users\Ridwane\AppData\Local\Temp\ccG6qa3f.ltrans1.ltrans.o
palReadBus                                        ./build/obj/hal_pal.o (symbol from plugin)
palSetBusMode                                     ./build/obj/hal_pal.o (symbol from plugin)
palWriteBus                                       ./build/obj/hal_pal.o (symbol from plugin)
pipe1.lto_priv.0                                  C:\Users\Ridwane\AppData\Local\Temp\ccG6qa3f.ltrans0.ltrans.o
                                                  C:\Users\Ridwane\AppData\Local\Temp\ccG6qa3f.ltrans1.ltrans.o
pipe_pattern.lto_priv.0                           C:\Users\Ridwane\AppData\Local\Temp\ccG6qa3f.ltrans0.ltrans.o
                                                  C:\Users\Ridwane\AppData\Local\Temp\ccG6qa3f.ltrans1.ltrans.o
polyvec.c.3df3f832                                C:\Users\Ridwane\AppData\Local\Temp\cckHRNAN.debug.temp.o
                                                  C:\Users\Ridwane\AppData\Local\Temp\ccG6qa3f.ltrans1.ltrans.o
port_init                                         ./build/obj/chcore.o (symbol from plugin)
                                                  ./build/obj/chinstances.o (symbol from plugin)
pqcrystals_dilithium2_avx2                        ./build/obj/sign.o (symbol from plugin)
                                                  ./build/obj/main.o (symbol from plugin)
pqcrystals_dilithium2_avx2_keypair                ./build/obj/sign.o (symbol from plugin)
                                                  ./build/obj/main.o (symbol from plugin)
pqcrystals_dilithium2_avx2_open                   ./build/obj/sign.o (symbol from plugin)
pqcrystals_dilithium2_avx2_pack_pk                ./build/obj/packing.o (symbol from plugin)
pqcrystals_dilithium2_avx2_pack_sig               ./build/obj/packing.o (symbol from plugin)
pqcrystals_dilithium2_avx2_pack_sk                ./build/obj/packing.o (symbol from plugin)
pqcrystals_dilithium2_avx2_pointwise_acc_avx      C:\Users\Ridwane\AppData\Local\Temp\ccG6qa3f.ltrans1.ltrans.o
                                                  ./build/obj/polyvec.o (symbol from plugin)
pqcrystals_dilithium2_avx2_poly_add               C:\Users\Ridwane\AppData\Local\Temp\ccG6qa3f.ltrans1.ltrans.o
                                                  ./build/obj/polyvec.o (symbol from plugin)
                                                  ./build/obj/sign.o (symbol from plugin)
pqcrystals_dilithium2_avx2_poly_caddq             C:\Users\Ridwane\AppData\Local\Temp\ccG6qa3f.ltrans1.ltrans.o
                                                  ./build/obj/polyvec.o (symbol from plugin)
                                                  ./build/obj/sign.o (symbol from plugin)
pqcrystals_dilithium2_avx2_poly_challenge         C:\Users\Ridwane\AppData\Local\Temp\ccG6qa3f.ltrans1.ltrans.o
                                                  ./build/obj/sign.o (symbol from plugin)
pqcrystals_dilithium2_avx2_poly_chknorm           C:\Users\Ridwane\AppData\Local\Temp\ccG6qa3f.ltrans1.ltrans.o
                                                  ./build/obj/polyvec.o (symbol from plugin)
                                                  ./build/obj/sign.o (symbol from plugin)
pqcrystals_dilithium2_avx2_poly_decompose         C:\Users\Ridwane\AppData\Local\Temp\ccG6qa3f.ltrans1.ltrans.o
                                                  ./build/obj/polyvec.o (symbol from plugin)
                                                  ./build/obj/sign.o (symbol from plugin)
pqcrystals_dilithium2_avx2_poly_freeze            ./build/obj/polyvec.o (symbol from plugin)
pqcrystals_dilithium2_avx2_poly_invntt_tomont     C:\Users\Ridwane\AppData\Local\Temp\ccG6qa3f.ltrans1.ltrans.o
                                                  ./build/obj/polyvec.o (symbol from plugin)
                                                  ./build/obj/sign.o (symbol from plugin)
pqcrystals_dilithium2_avx2_poly_make_hint         C:\Users\Ridwane\AppData\Local\Temp\ccG6qa3f.ltrans1.ltrans.o
                                                  ./build/obj/polyvec.o (symbol from plugin)
                                                  ./build/obj/sign.o (symbol from plugin)
pqcrystals_dilithium2_avx2_poly_ntt               C:\Users\Ridwane\AppData\Local\Temp\ccG6qa3f.ltrans1.ltrans.o
                                                  ./build/obj/polyvec.o (symbol from plugin)
                                                  ./build/obj/sign.o (symbol from plugin)
pqcrystals_dilithium2_avx2_poly_pointwise_montgomery C:\Users\Ridwane\AppData\Local\Temp\ccG6qa3f.ltrans1.ltrans.o
                                                  ./build/obj/polyvec.o (symbol from plugin)
                                                  ./build/obj/sign.o (symbol from plugin)
pqcrystals_dilithium2_avx2_poly_power2round       C:\Users\Ridwane\AppData\Local\Temp\ccG6qa3f.ltrans1.ltrans.o
                                                  ./build/obj/polyvec.o (symbol from plugin)
                                                  ./build/obj/sign.o (symbol from plugin)
pqcrystals_dilithium2_avx2_poly_reduce            C:\Users\Ridwane\AppData\Local\Temp\ccG6qa3f.ltrans1.ltrans.o
                                                  ./build/obj/polyvec.o (symbol from plugin)
                                                  ./build/obj/sign.o (symbol from plugin)
pqcrystals_dilithium2_avx2_poly_shiftl            ./build/obj/polyvec.o (symbol from plugin)
                                                  ./build/obj/sign.o (symbol from plugin)
pqcrystals_dilithium2_avx2_poly_sub               C:\Users\Ridwane\AppData\Local\Temp\ccG6qa3f.ltrans1.ltrans.o
                                                  ./build/obj/polyvec.o (symbol from plugin)
                                                  ./build/obj/sign.o (symbol from plugin)
pqcrystals_dilithium2_avx2_poly_uniform_4x        C:\Users\Ridwane\AppData\Local\Temp\ccG6qa3f.ltrans1.ltrans.o
                                                  ./build/obj/polyvec.o (symbol from plugin)
pqcrystals_dilithium2_avx2_poly_uniform_eta       ./build/obj/polyvec.o (symbol from plugin)
pqcrystals_dilithium2_avx2_poly_uniform_eta_4x    C:\Users\Ridwane\AppData\Local\Temp\ccG6qa3f.ltrans1.ltrans.o
                                                  ./build/obj/sign.o (symbol from plugin)
pqcrystals_dilithium2_avx2_poly_uniform_gamma1    ./build/obj/polyvec.o (symbol from plugin)
pqcrystals_dilithium2_avx2_poly_uniform_gamma1_4x C:\Users\Ridwane\AppData\Local\Temp\ccG6qa3f.ltrans1.ltrans.o
                                                  ./build/obj/sign.o (symbol from plugin)
pqcrystals_dilithium2_avx2_poly_use_hint          ./build/obj/polyvec.o (symbol from plugin)
                                                  ./build/obj/sign.o (symbol from plugin)
pqcrystals_dilithium2_avx2_polyeta_pack           C:\Users\Ridwane\AppData\Local\Temp\ccG6qa3f.ltrans1.ltrans.o
                                                  ./build/obj/packing.o (symbol from plugin)
                                                  ./build/obj/sign.o (symbol from plugin)
pqcrystals_dilithium2_avx2_polyeta_unpack         C:\Users\Ridwane\AppData\Local\Temp\ccG6qa3f.ltrans1.ltrans.o
                                                  ./build/obj/packing.o (symbol from plugin)
pqcrystals_dilithium2_avx2_polyt0_pack            C:\Users\Ridwane\AppData\Local\Temp\ccG6qa3f.ltrans1.ltrans.o
                                                  ./build/obj/packing.o (symbol from plugin)
                                                  ./build/obj/sign.o (symbol from plugin)
pqcrystals_dilithium2_avx2_polyt0_unpack          C:\Users\Ridwane\AppData\Local\Temp\ccG6qa3f.ltrans1.ltrans.o
                                                  ./build/obj/packing.o (symbol from plugin)
pqcrystals_dilithium2_avx2_polyt1_pack            C:\Users\Ridwane\AppData\Local\Temp\ccG6qa3f.ltrans1.ltrans.o
                                                  ./build/obj/packing.o (symbol from plugin)
                                                  ./build/obj/sign.o (symbol from plugin)
pqcrystals_dilithium2_avx2_polyt1_unpack          ./build/obj/packing.o (symbol from plugin)
                                                  ./build/obj/sign.o (symbol from plugin)
pqcrystals_dilithium2_avx2_polyvec_matrix_expand  ./build/obj/polyvec.o (symbol from plugin)
                                                  ./build/obj/sign.o (symbol from plugin)
pqcrystals_dilithium2_avx2_polyvec_matrix_expand_row0 ./build/obj/polyvec.o (symbol from plugin)
                                                  ./build/obj/sign.o (symbol from plugin)
pqcrystals_dilithium2_avx2_polyvec_matrix_expand_row1 ./build/obj/polyvec.o (symbol from plugin)
                                                  ./build/obj/sign.o (symbol from plugin)
pqcrystals_dilithium2_avx2_polyvec_matrix_expand_row2 ./build/obj/polyvec.o (symbol from plugin)
                                                  ./build/obj/sign.o (symbol from plugin)
pqcrystals_dilithium2_avx2_polyvec_matrix_expand_row3 ./build/obj/polyvec.o (symbol from plugin)
                                                  ./build/obj/sign.o (symbol from plugin)
pqcrystals_dilithium2_avx2_polyvec_matrix_pointwise_montgomery ./build/obj/polyvec.o (symbol from plugin)
pqcrystals_dilithium2_avx2_polyveck_add           ./build/obj/polyvec.o (symbol from plugin)
pqcrystals_dilithium2_avx2_polyveck_caddq         ./build/obj/polyvec.o (symbol from plugin)
pqcrystals_dilithium2_avx2_polyveck_chknorm       ./build/obj/polyvec.o (symbol from plugin)
pqcrystals_dilithium2_avx2_polyveck_decompose     ./build/obj/polyvec.o (symbol from plugin)
pqcrystals_dilithium2_avx2_polyveck_freeze        ./build/obj/polyvec.o (symbol from plugin)
pqcrystals_dilithium2_avx2_polyveck_invntt_tomont ./build/obj/polyvec.o (symbol from plugin)
pqcrystals_dilithium2_avx2_polyveck_make_hint     ./build/obj/polyvec.o (symbol from plugin)
pqcrystals_dilithium2_avx2_polyveck_ntt           ./build/obj/polyvec.o (symbol from plugin)
                                                  ./build/obj/sign.o (symbol from plugin)
pqcrystals_dilithium2_avx2_polyveck_pack_w1       ./build/obj/polyvec.o (symbol from plugin)
pqcrystals_dilithium2_avx2_polyveck_pointwise_poly_montgomery ./build/obj/polyvec.o (symbol from plugin)
pqcrystals_dilithium2_avx2_polyveck_power2round   ./build/obj/polyvec.o (symbol from plugin)
pqcrystals_dilithium2_avx2_polyveck_reduce        ./build/obj/polyvec.o (symbol from plugin)
pqcrystals_dilithium2_avx2_polyveck_shiftl        ./build/obj/polyvec.o (symbol from plugin)
pqcrystals_dilithium2_avx2_polyveck_sub           ./build/obj/polyvec.o (symbol from plugin)
pqcrystals_dilithium2_avx2_polyveck_uniform_eta   ./build/obj/polyvec.o (symbol from plugin)
pqcrystals_dilithium2_avx2_polyveck_use_hint      ./build/obj/polyvec.o (symbol from plugin)
pqcrystals_dilithium2_avx2_polyvecl_add           ./build/obj/polyvec.o (symbol from plugin)
pqcrystals_dilithium2_avx2_polyvecl_chknorm       ./build/obj/polyvec.o (symbol from plugin)
pqcrystals_dilithium2_avx2_polyvecl_freeze        ./build/obj/polyvec.o (symbol from plugin)
pqcrystals_dilithium2_avx2_polyvecl_invntt_tomont ./build/obj/polyvec.o (symbol from plugin)
pqcrystals_dilithium2_avx2_polyvecl_ntt           ./build/obj/polyvec.o (symbol from plugin)
                                                  ./build/obj/sign.o (symbol from plugin)
pqcrystals_dilithium2_avx2_polyvecl_pointwise_acc_montgomery ./build/obj/polyvec.o (symbol from plugin)
                                                  ./build/obj/sign.o (symbol from plugin)
pqcrystals_dilithium2_avx2_polyvecl_pointwise_poly_montgomery ./build/obj/polyvec.o (symbol from plugin)
pqcrystals_dilithium2_avx2_polyvecl_reduce        ./build/obj/polyvec.o (symbol from plugin)
pqcrystals_dilithium2_avx2_polyvecl_uniform_eta   ./build/obj/polyvec.o (symbol from plugin)
pqcrystals_dilithium2_avx2_polyvecl_uniform_gamma1 ./build/obj/polyvec.o (symbol from plugin)
pqcrystals_dilithium2_avx2_polyw1_pack            C:\Users\Ridwane\AppData\Local\Temp\ccG6qa3f.ltrans1.ltrans.o
                                                  ./build/obj/polyvec.o (symbol from plugin)
                                                  ./build/obj/sign.o (symbol from plugin)
pqcrystals_dilithium2_avx2_polyz_pack             C:\Users\Ridwane\AppData\Local\Temp\ccG6qa3f.ltrans1.ltrans.o
                                                  ./build/obj/packing.o (symbol from plugin)
                                                  ./build/obj/sign.o (symbol from plugin)
pqcrystals_dilithium2_avx2_polyz_unpack           ./build/obj/packing.o (symbol from plugin)
                                                  ./build/obj/sign.o (symbol from plugin)
pqcrystals_dilithium2_avx2_qdata                  ./build/obj/consts.o (symbol from plugin)
                                                  ./build/obj/polyvec.o (symbol from plugin)
pqcrystals_dilithium2_avx2_signature              ./build/obj/sign.o (symbol from plugin)
pqcrystals_dilithium2_avx2_unpack_pk              ./build/obj/packing.o (symbol from plugin)
pqcrystals_dilithium2_avx2_unpack_sig             ./build/obj/packing.o (symbol from plugin)
pqcrystals_dilithium2_avx2_upack_sk               ./build/obj/packing.o (symbol from plugin)
                                                  ./build/obj/sign.o (symbol from plugin)
pqcrystals_dilithium2_avx2_verify                 ./build/obj/sign.o (symbol from plugin)
pqcrystals_fips202_ref_sha3_256                   ./build/obj/fips202.o (symbol from plugin)
pqcrystals_fips202_ref_sha3_512                   ./build/obj/fips202.o (symbol from plugin)
pqcrystals_fips202_ref_shake128                   ./build/obj/fips202.o (symbol from plugin)
pqcrystals_fips202_ref_shake128_absorb            ./build/obj/fips202.o (symbol from plugin)
pqcrystals_fips202_ref_shake128_finalize          ./build/obj/fips202.o (symbol from plugin)
pqcrystals_fips202_ref_shake128_init              ./build/obj/fips202.o (symbol from plugin)
pqcrystals_fips202_ref_shake128_squeeze           ./build/obj/fips202.o (symbol from plugin)
pqcrystals_fips202_ref_shake128_squeezeblocks     ./build/obj/fips202.o (symbol from plugin)
pqcrystals_fips202_ref_shake256                   ./build/obj/fips202.o (symbol from plugin)
                                                  ./build/obj/sign.o (symbol from plugin)
pqcrystals_fips202_ref_shake256_absorb            ./build/obj/fips202.o (symbol from plugin)
                                                  ./build/obj/sign.o (symbol from plugin)
pqcrystals_fips202_ref_shake256_finalize          ./build/obj/fips202.o (symbol from plugin)
                                                  ./build/obj/sign.o (symbol from plugin)
pqcrystals_fips202_ref_shake256_init              ./build/obj/fips202.o (symbol from plugin)
                                                  ./build/obj/sign.o (symbol from plugin)
pqcrystals_fips202_ref_shake256_squeeze           ./build/obj/fips202.o (symbol from plugin)
                                                  ./build/obj/sign.o (symbol from plugin)
pqcrystals_fips202_ref_shake256_squeezeblocks     ./build/obj/fips202.o (symbol from plugin)
raise                                             c:/chibistudio/tools/gnu tools arm embedded/11.3 2022.08/bin/../lib/gcc/arm-none-eabi/11.3.1/thumb/v7e-m/nofp\libg_nano.a(libc_a-signal.o)
                                                  c:/chibistudio/tools/gnu tools arm embedded/11.3 2022.08/bin/../lib/gcc/arm-none-eabi/11.3.1/thumb/v7e-m/nofp\libg_nano.a(libc_a-abort.o)
rand                                              c:/chibistudio/tools/gnu tools arm embedded/11.3 2022.08/bin/../lib/gcc/arm-none-eabi/11.3.1/thumb/v7e-m/nofp\libg_nano.a(libc_a-rand.o)
                                                  C:\Users\Ridwane\AppData\Local\Temp\ccG6qa3f.ltrans1.ltrans.o
                                                  ./build/obj/main.o (symbol from plugin)
randombytes                                       ./build/obj/randombytes.o (symbol from plugin)
                                                  ./build/obj/sign.o (symbol from plugin)
randombytes.c.a8763e94                            C:\Users\Ridwane\AppData\Local\Temp\cc8KreQ6.debug.temp.o
                                                  C:\Users\Ridwane\AppData\Local\Temp\ccG6qa3f.ltrans1.ltrans.o
read                                              c:/chibistudio/tools/gnu tools arm embedded/11.3 2022.08/bin/../lib/gcc/arm-none-eabi/11.3.1/thumb/v7e-m/nofp\libg_nano.a(libc_a-sysread.o)
                                                  C:\Users\Ridwane\AppData\Local\Temp\ccG6qa3f.ltrans1.ltrans.o
                                                  ./build/obj/randombytes.o (symbol from plugin)
rt_test_001_001_execute.lto_priv.0                C:\Users\Ridwane\AppData\Local\Temp\ccG6qa3f.ltrans0.ltrans.o
                                                  C:\Users\Ridwane\AppData\Local\Temp\ccG6qa3f.ltrans1.ltrans.o
rt_test_001_002_execute.lto_priv.0                C:\Users\Ridwane\AppData\Local\Temp\ccG6qa3f.ltrans0.ltrans.o
                                                  C:\Users\Ridwane\AppData\Local\Temp\ccG6qa3f.ltrans1.ltrans.o
rt_test_001_003_execute.lto_priv.0                C:\Users\Ridwane\AppData\Local\Temp\ccG6qa3f.ltrans0.ltrans.o
                                                  C:\Users\Ridwane\AppData\Local\Temp\ccG6qa3f.ltrans1.ltrans.o
rt_test_002_001_execute.lto_priv.0                C:\Users\Ridwane\AppData\Local\Temp\ccG6qa3f.ltrans0.ltrans.o
                                                  C:\Users\Ridwane\AppData\Local\Temp\ccG6qa3f.ltrans1.ltrans.o
rt_test_002_002_execute.lto_priv.0                C:\Users\Ridwane\AppData\Local\Temp\ccG6qa3f.ltrans0.ltrans.o
                                                  C:\Users\Ridwane\AppData\Local\Temp\ccG6qa3f.ltrans1.ltrans.o
rt_test_002_003_execute.lto_priv.0                C:\Users\Ridwane\AppData\Local\Temp\ccG6qa3f.ltrans0.ltrans.o
                                                  C:\Users\Ridwane\AppData\Local\Temp\ccG6qa3f.ltrans1.ltrans.o
rt_test_003_001_execute.lto_priv.0                C:\Users\Ridwane\AppData\Local\Temp\ccG6qa3f.ltrans0.ltrans.o
                                                  C:\Users\Ridwane\AppData\Local\Temp\ccG6qa3f.ltrans1.ltrans.o
rt_test_003_002_execute.lto_priv.0                C:\Users\Ridwane\AppData\Local\Temp\ccG6qa3f.ltrans0.ltrans.o
                                                  C:\Users\Ridwane\AppData\Local\Temp\ccG6qa3f.ltrans1.ltrans.o
rt_test_004_001_execute.lto_priv.0                C:\Users\Ridwane\AppData\Local\Temp\ccG6qa3f.ltrans0.ltrans.o
                                                  C:\Users\Ridwane\AppData\Local\Temp\ccG6qa3f.ltrans1.ltrans.o
rt_test_005_001_execute.lto_priv.0                C:\Users\Ridwane\AppData\Local\Temp\ccG6qa3f.ltrans0.ltrans.o
                                                  C:\Users\Ridwane\AppData\Local\Temp\ccG6qa3f.ltrans1.ltrans.o
rt_test_005_002_execute.lto_priv.0                C:\Users\Ridwane\AppData\Local\Temp\ccG6qa3f.ltrans0.ltrans.o
                                                  C:\Users\Ridwane\AppData\Local\Temp\ccG6qa3f.ltrans1.ltrans.o
rt_test_005_003_execute.lto_priv.0                C:\Users\Ridwane\AppData\Local\Temp\ccG6qa3f.ltrans0.ltrans.o
                                                  C:\Users\Ridwane\AppData\Local\Temp\ccG6qa3f.ltrans1.ltrans.o
rt_test_005_004_execute.lto_priv.0                C:\Users\Ridwane\AppData\Local\Temp\ccG6qa3f.ltrans0.ltrans.o
                                                  C:\Users\Ridwane\AppData\Local\Temp\ccG6qa3f.ltrans1.ltrans.o
rt_test_006_001_execute.lto_priv.0                C:\Users\Ridwane\AppData\Local\Temp\ccG6qa3f.ltrans0.ltrans.o
                                                  C:\Users\Ridwane\AppData\Local\Temp\ccG6qa3f.ltrans1.ltrans.o
rt_test_006_001_setup.lto_priv.0                  C:\Users\Ridwane\AppData\Local\Temp\ccG6qa3f.ltrans0.ltrans.o
                                                  C:\Users\Ridwane\AppData\Local\Temp\ccG6qa3f.ltrans1.ltrans.o
rt_test_007_001_execute.lto_priv.0                C:\Users\Ridwane\AppData\Local\Temp\ccG6qa3f.ltrans0.ltrans.o
                                                  C:\Users\Ridwane\AppData\Local\Temp\ccG6qa3f.ltrans1.ltrans.o
rt_test_007_001_setup.lto_priv.0                  C:\Users\Ridwane\AppData\Local\Temp\ccG6qa3f.ltrans0.ltrans.o
                                                  C:\Users\Ridwane\AppData\Local\Temp\ccG6qa3f.ltrans1.ltrans.o
rt_test_007_001_teardown.lto_priv.0               C:\Users\Ridwane\AppData\Local\Temp\ccG6qa3f.ltrans0.ltrans.o
                                                  C:\Users\Ridwane\AppData\Local\Temp\ccG6qa3f.ltrans1.ltrans.o
rt_test_007_002_execute.lto_priv.0                C:\Users\Ridwane\AppData\Local\Temp\ccG6qa3f.ltrans0.ltrans.o
                                                  C:\Users\Ridwane\AppData\Local\Temp\ccG6qa3f.ltrans1.ltrans.o
rt_test_007_002_setup.lto_priv.0                  C:\Users\Ridwane\AppData\Local\Temp\ccG6qa3f.ltrans0.ltrans.o
                                                  C:\Users\Ridwane\AppData\Local\Temp\ccG6qa3f.ltrans1.ltrans.o
rt_test_007_003_execute.lto_priv.0                C:\Users\Ridwane\AppData\Local\Temp\ccG6qa3f.ltrans0.ltrans.o
                                                  C:\Users\Ridwane\AppData\Local\Temp\ccG6qa3f.ltrans1.ltrans.o
rt_test_007_003_setup.lto_priv.0                  C:\Users\Ridwane\AppData\Local\Temp\ccG6qa3f.ltrans0.ltrans.o
                                                  C:\Users\Ridwane\AppData\Local\Temp\ccG6qa3f.ltrans1.ltrans.o
rt_test_007_004_execute.lto_priv.0                C:\Users\Ridwane\AppData\Local\Temp\ccG6qa3f.ltrans0.ltrans.o
                                                  C:\Users\Ridwane\AppData\Local\Temp\ccG6qa3f.ltrans1.ltrans.o
rt_test_007_004_setup.lto_priv.0                  C:\Users\Ridwane\AppData\Local\Temp\ccG6qa3f.ltrans0.ltrans.o
                                                  C:\Users\Ridwane\AppData\Local\Temp\ccG6qa3f.ltrans1.ltrans.o
rt_test_007_005_execute.lto_priv.0                C:\Users\Ridwane\AppData\Local\Temp\ccG6qa3f.ltrans0.ltrans.o
                                                  C:\Users\Ridwane\AppData\Local\Temp\ccG6qa3f.ltrans1.ltrans.o
rt_test_007_005_setup.lto_priv.0                  C:\Users\Ridwane\AppData\Local\Temp\ccG6qa3f.ltrans0.ltrans.o
                                                  C:\Users\Ridwane\AppData\Local\Temp\ccG6qa3f.ltrans1.ltrans.o
rt_test_007_005_teardown.lto_priv.0               C:\Users\Ridwane\AppData\Local\Temp\ccG6qa3f.ltrans0.ltrans.o
                                                  C:\Users\Ridwane\AppData\Local\Temp\ccG6qa3f.ltrans1.ltrans.o
rt_test_007_006_execute.lto_priv.0                C:\Users\Ridwane\AppData\Local\Temp\ccG6qa3f.ltrans0.ltrans.o
                                                  C:\Users\Ridwane\AppData\Local\Temp\ccG6qa3f.ltrans1.ltrans.o
rt_test_007_006_teardown.lto_priv.0               C:\Users\Ridwane\AppData\Local\Temp\ccG6qa3f.ltrans0.ltrans.o
                                                  C:\Users\Ridwane\AppData\Local\Temp\ccG6qa3f.ltrans1.ltrans.o
rt_test_008_001_execute.lto_priv.0                C:\Users\Ridwane\AppData\Local\Temp\ccG6qa3f.ltrans0.ltrans.o
                                                  C:\Users\Ridwane\AppData\Local\Temp\ccG6qa3f.ltrans1.ltrans.o
rt_test_008_001_setup.lto_priv.0                  C:\Users\Ridwane\AppData\Local\Temp\ccG6qa3f.ltrans0.ltrans.o
                                                  C:\Users\Ridwane\AppData\Local\Temp\ccG6qa3f.ltrans1.ltrans.o
rt_test_008_004_execute.lto_priv.0                C:\Users\Ridwane\AppData\Local\Temp\ccG6qa3f.ltrans0.ltrans.o
                                                  C:\Users\Ridwane\AppData\Local\Temp\ccG6qa3f.ltrans1.ltrans.o
rt_test_008_004_setup.lto_priv.0                  C:\Users\Ridwane\AppData\Local\Temp\ccG6qa3f.ltrans0.ltrans.o
                                                  C:\Users\Ridwane\AppData\Local\Temp\ccG6qa3f.ltrans1.ltrans.o
rt_test_008_004_teardown.lto_priv.0               C:\Users\Ridwane\AppData\Local\Temp\ccG6qa3f.ltrans0.ltrans.o
                                                  C:\Users\Ridwane\AppData\Local\Temp\ccG6qa3f.ltrans1.ltrans.o
rt_test_008_005_execute.lto_priv.0                C:\Users\Ridwane\AppData\Local\Temp\ccG6qa3f.ltrans0.ltrans.o
                                                  C:\Users\Ridwane\AppData\Local\Temp\ccG6qa3f.ltrans1.ltrans.o
rt_test_008_005_setup.lto_priv.0                  C:\Users\Ridwane\AppData\Local\Temp\ccG6qa3f.ltrans0.ltrans.o
                                                  C:\Users\Ridwane\AppData\Local\Temp\ccG6qa3f.ltrans1.ltrans.o
rt_test_008_007_execute.lto_priv.0                C:\Users\Ridwane\AppData\Local\Temp\ccG6qa3f.ltrans0.ltrans.o
                                                  C:\Users\Ridwane\AppData\Local\Temp\ccG6qa3f.ltrans1.ltrans.o
rt_test_008_007_setup.lto_priv.0                  C:\Users\Ridwane\AppData\Local\Temp\ccG6qa3f.ltrans0.ltrans.o
                                                  C:\Users\Ridwane\AppData\Local\Temp\ccG6qa3f.ltrans1.ltrans.o
rt_test_008_008_execute.lto_priv.0                C:\Users\Ridwane\AppData\Local\Temp\ccG6qa3f.ltrans0.ltrans.o
                                                  C:\Users\Ridwane\AppData\Local\Temp\ccG6qa3f.ltrans1.ltrans.o
rt_test_008_008_setup.lto_priv.0                  C:\Users\Ridwane\AppData\Local\Temp\ccG6qa3f.ltrans0.ltrans.o
                                                  C:\Users\Ridwane\AppData\Local\Temp\ccG6qa3f.ltrans1.ltrans.o
rt_test_008_009_execute.lto_priv.0                C:\Users\Ridwane\AppData\Local\Temp\ccG6qa3f.ltrans0.ltrans.o
                                                  C:\Users\Ridwane\AppData\Local\Temp\ccG6qa3f.ltrans1.ltrans.o
rt_test_008_009_setup.lto_priv.0                  C:\Users\Ridwane\AppData\Local\Temp\ccG6qa3f.ltrans0.ltrans.o
                                                  C:\Users\Ridwane\AppData\Local\Temp\ccG6qa3f.ltrans1.ltrans.o
rt_test_009_001_execute.lto_priv.0                C:\Users\Ridwane\AppData\Local\Temp\ccG6qa3f.ltrans0.ltrans.o
                                                  C:\Users\Ridwane\AppData\Local\Temp\ccG6qa3f.ltrans1.ltrans.o
rt_test_010_001_execute.lto_priv.0                C:\Users\Ridwane\AppData\Local\Temp\ccG6qa3f.ltrans0.ltrans.o
                                                  C:\Users\Ridwane\AppData\Local\Temp\ccG6qa3f.ltrans1.ltrans.o
rt_test_010_002_execute.lto_priv.0                C:\Users\Ridwane\AppData\Local\Temp\ccG6qa3f.ltrans0.ltrans.o
                                                  C:\Users\Ridwane\AppData\Local\Temp\ccG6qa3f.ltrans1.ltrans.o
rt_test_010_002_setup.lto_priv.0                  C:\Users\Ridwane\AppData\Local\Temp\ccG6qa3f.ltrans0.ltrans.o
                                                  C:\Users\Ridwane\AppData\Local\Temp\ccG6qa3f.ltrans1.ltrans.o
rt_test_010_003_execute.lto_priv.0                C:\Users\Ridwane\AppData\Local\Temp\ccG6qa3f.ltrans0.ltrans.o
                                                  C:\Users\Ridwane\AppData\Local\Temp\ccG6qa3f.ltrans1.ltrans.o
rt_test_010_003_setup.lto_priv.0                  C:\Users\Ridwane\AppData\Local\Temp\ccG6qa3f.ltrans0.ltrans.o
                                                  C:\Users\Ridwane\AppData\Local\Temp\ccG6qa3f.ltrans1.ltrans.o
rt_test_010_004_execute.lto_priv.0                C:\Users\Ridwane\AppData\Local\Temp\ccG6qa3f.ltrans0.ltrans.o
                                                  C:\Users\Ridwane\AppData\Local\Temp\ccG6qa3f.ltrans1.ltrans.o
rt_test_010_004_setup.lto_priv.0                  C:\Users\Ridwane\AppData\Local\Temp\ccG6qa3f.ltrans0.ltrans.o
                                                  C:\Users\Ridwane\AppData\Local\Temp\ccG6qa3f.ltrans1.ltrans.o
rt_test_010_005_execute.lto_priv.0                C:\Users\Ridwane\AppData\Local\Temp\ccG6qa3f.ltrans0.ltrans.o
                                                  C:\Users\Ridwane\AppData\Local\Temp\ccG6qa3f.ltrans1.ltrans.o
rt_test_010_005_setup.lto_priv.0                  C:\Users\Ridwane\AppData\Local\Temp\ccG6qa3f.ltrans0.ltrans.o
                                                  C:\Users\Ridwane\AppData\Local\Temp\ccG6qa3f.ltrans1.ltrans.o
rt_test_010_006_execute.lto_priv.0                C:\Users\Ridwane\AppData\Local\Temp\ccG6qa3f.ltrans0.ltrans.o
                                                  C:\Users\Ridwane\AppData\Local\Temp\ccG6qa3f.ltrans1.ltrans.o
rt_test_010_006_setup.lto_priv.0                  C:\Users\Ridwane\AppData\Local\Temp\ccG6qa3f.ltrans0.ltrans.o
                                                  C:\Users\Ridwane\AppData\Local\Temp\ccG6qa3f.ltrans1.ltrans.o
rt_test_010_007_execute.lto_priv.0                C:\Users\Ridwane\AppData\Local\Temp\ccG6qa3f.ltrans0.ltrans.o
                                                  C:\Users\Ridwane\AppData\Local\Temp\ccG6qa3f.ltrans1.ltrans.o
rt_test_010_007_setup.lto_priv.0                  C:\Users\Ridwane\AppData\Local\Temp\ccG6qa3f.ltrans0.ltrans.o
                                                  C:\Users\Ridwane\AppData\Local\Temp\ccG6qa3f.ltrans1.ltrans.o
rt_test_011_001_execute.lto_priv.0                C:\Users\Ridwane\AppData\Local\Temp\ccG6qa3f.ltrans0.ltrans.o
                                                  C:\Users\Ridwane\AppData\Local\Temp\ccG6qa3f.ltrans1.ltrans.o
rt_test_011_001_setup.lto_priv.0                  C:\Users\Ridwane\AppData\Local\Temp\ccG6qa3f.ltrans0.ltrans.o
                                                  C:\Users\Ridwane\AppData\Local\Temp\ccG6qa3f.ltrans1.ltrans.o
rt_test_011_002_execute.lto_priv.0                C:\Users\Ridwane\AppData\Local\Temp\ccG6qa3f.ltrans0.ltrans.o
                                                  C:\Users\Ridwane\AppData\Local\Temp\ccG6qa3f.ltrans1.ltrans.o
rt_test_011_002_setup.lto_priv.0                  C:\Users\Ridwane\AppData\Local\Temp\ccG6qa3f.ltrans0.ltrans.o
                                                  C:\Users\Ridwane\AppData\Local\Temp\ccG6qa3f.ltrans1.ltrans.o
rt_test_012_001_execute.lto_priv.0                C:\Users\Ridwane\AppData\Local\Temp\ccG6qa3f.ltrans0.ltrans.o
                                                  C:\Users\Ridwane\AppData\Local\Temp\ccG6qa3f.ltrans1.ltrans.o
rt_test_012_002_execute.lto_priv.0                C:\Users\Ridwane\AppData\Local\Temp\ccG6qa3f.ltrans0.ltrans.o
                                                  C:\Users\Ridwane\AppData\Local\Temp\ccG6qa3f.ltrans1.ltrans.o
rt_test_012_003_execute.lto_priv.0                C:\Users\Ridwane\AppData\Local\Temp\ccG6qa3f.ltrans0.ltrans.o
                                                  C:\Users\Ridwane\AppData\Local\Temp\ccG6qa3f.ltrans1.ltrans.o
rt_test_012_004_execute.lto_priv.0                C:\Users\Ridwane\AppData\Local\Temp\ccG6qa3f.ltrans0.ltrans.o
                                                  C:\Users\Ridwane\AppData\Local\Temp\ccG6qa3f.ltrans1.ltrans.o
rt_test_012_005_execute.lto_priv.0                C:\Users\Ridwane\AppData\Local\Temp\ccG6qa3f.ltrans0.ltrans.o
                                                  C:\Users\Ridwane\AppData\Local\Temp\ccG6qa3f.ltrans1.ltrans.o
rt_test_012_006_execute.lto_priv.0                C:\Users\Ridwane\AppData\Local\Temp\ccG6qa3f.ltrans0.ltrans.o
                                                  C:\Users\Ridwane\AppData\Local\Temp\ccG6qa3f.ltrans1.ltrans.o
rt_test_012_007_execute.lto_priv.0                C:\Users\Ridwane\AppData\Local\Temp\ccG6qa3f.ltrans0.ltrans.o
                                                  C:\Users\Ridwane\AppData\Local\Temp\ccG6qa3f.ltrans1.ltrans.o
rt_test_012_007_setup.lto_priv.0                  C:\Users\Ridwane\AppData\Local\Temp\ccG6qa3f.ltrans0.ltrans.o
                                                  C:\Users\Ridwane\AppData\Local\Temp\ccG6qa3f.ltrans1.ltrans.o
rt_test_012_008_execute.lto_priv.0                C:\Users\Ridwane\AppData\Local\Temp\ccG6qa3f.ltrans0.ltrans.o
                                                  C:\Users\Ridwane\AppData\Local\Temp\ccG6qa3f.ltrans1.ltrans.o
rt_test_012_009_execute.lto_priv.0                C:\Users\Ridwane\AppData\Local\Temp\ccG6qa3f.ltrans0.ltrans.o
                                                  C:\Users\Ridwane\AppData\Local\Temp\ccG6qa3f.ltrans1.ltrans.o
rt_test_012_010_execute.lto_priv.0                C:\Users\Ridwane\AppData\Local\Temp\ccG6qa3f.ltrans0.ltrans.o
                                                  C:\Users\Ridwane\AppData\Local\Temp\ccG6qa3f.ltrans1.ltrans.o
rt_test_012_010_setup.lto_priv.0                  C:\Users\Ridwane\AppData\Local\Temp\ccG6qa3f.ltrans0.ltrans.o
                                                  C:\Users\Ridwane\AppData\Local\Temp\ccG6qa3f.ltrans1.ltrans.o
rt_test_012_011_execute.lto_priv.0                C:\Users\Ridwane\AppData\Local\Temp\ccG6qa3f.ltrans0.ltrans.o
                                                  C:\Users\Ridwane\AppData\Local\Temp\ccG6qa3f.ltrans1.ltrans.o
rt_test_012_011_setup.lto_priv.0                  C:\Users\Ridwane\AppData\Local\Temp\ccG6qa3f.ltrans0.ltrans.o
                                                  C:\Users\Ridwane\AppData\Local\Temp\ccG6qa3f.ltrans1.ltrans.o
rt_test_012_012_execute.lto_priv.0                C:\Users\Ridwane\AppData\Local\Temp\ccG6qa3f.ltrans0.ltrans.o
                                                  C:\Users\Ridwane\AppData\Local\Temp\ccG6qa3f.ltrans1.ltrans.o
rt_test_root.c.dadc3252                           C:\Users\Ridwane\AppData\Local\Temp\ccectBGe.debug.temp.o
                                                  C:\Users\Ridwane\AppData\Local\Temp\ccG6qa3f.ltrans1.ltrans.o
                                                  C:\Users\Ridwane\AppData\Local\Temp\ccG6qa3f.ltrans0.ltrans.o
rt_test_sequence_001                              ./build/obj/rt_test_sequence_001.o (symbol from plugin)
                                                  ./build/obj/rt_test_root.o (symbol from plugin)
rt_test_sequence_001.c.7d2e8943                   C:\Users\Ridwane\AppData\Local\Temp\ccARztyz.debug.temp.o
                                                  C:\Users\Ridwane\AppData\Local\Temp\ccG6qa3f.ltrans1.ltrans.o
                                                  C:\Users\Ridwane\AppData\Local\Temp\ccG6qa3f.ltrans0.ltrans.o
rt_test_sequence_001_array                        ./build/obj/rt_test_sequence_001.o (symbol from plugin)
rt_test_sequence_002                              ./build/obj/rt_test_sequence_002.o (symbol from plugin)
                                                  ./build/obj/rt_test_root.o (symbol from plugin)
rt_test_sequence_002.c.56cfd605                   C:\Users\Ridwane\AppData\Local\Temp\cckXvOBU.debug.temp.o
                                                  C:\Users\Ridwane\AppData\Local\Temp\ccG6qa3f.ltrans1.ltrans.o
                                                  C:\Users\Ridwane\AppData\Local\Temp\ccG6qa3f.ltrans0.ltrans.o
rt_test_sequence_002_array                        ./build/obj/rt_test_sequence_002.o (symbol from plugin)
rt_test_sequence_003                              ./build/obj/rt_test_sequence_003.o (symbol from plugin)
                                                  ./build/obj/rt_test_root.o (symbol from plugin)
rt_test_sequence_003.c.35f9f426                   C:\Users\Ridwane\AppData\Local\Temp\ccGSg9zf.debug.temp.o
                                                  C:\Users\Ridwane\AppData\Local\Temp\ccG6qa3f.ltrans1.ltrans.o
                                                  C:\Users\Ridwane\AppData\Local\Temp\ccG6qa3f.ltrans0.ltrans.o
rt_test_sequence_003_array                        ./build/obj/rt_test_sequence_003.o (symbol from plugin)
rt_test_sequence_004                              ./build/obj/rt_test_sequence_004.o (symbol from plugin)
                                                  ./build/obj/rt_test_root.o (symbol from plugin)
rt_test_sequence_004.c.2727bf0a                   C:\Users\Ridwane\AppData\Local\Temp\ccoV3xBz.debug.temp.o
                                                  C:\Users\Ridwane\AppData\Local\Temp\ccG6qa3f.ltrans1.ltrans.o
                                                  C:\Users\Ridwane\AppData\Local\Temp\ccG6qa3f.ltrans0.ltrans.o
rt_test_sequence_004_array                        ./build/obj/rt_test_sequence_004.o (symbol from plugin)
rt_test_sequence_005                              ./build/obj/rt_test_sequence_005.o (symbol from plugin)
                                                  ./build/obj/rt_test_root.o (symbol from plugin)
rt_test_sequence_005.c.1a7a3b8c                   C:\Users\Ridwane\AppData\Local\Temp\ccQ3RvyT.debug.temp.o
                                                  C:\Users\Ridwane\AppData\Local\Temp\ccG6qa3f.ltrans1.ltrans.o
                                                  C:\Users\Ridwane\AppData\Local\Temp\ccG6qa3f.ltrans0.ltrans.o
rt_test_sequence_005_array                        ./build/obj/rt_test_sequence_005.o (symbol from plugin)
rt_test_sequence_006                              ./build/obj/rt_test_sequence_006.o (symbol from plugin)
                                                  ./build/obj/rt_test_root.o (symbol from plugin)
rt_test_sequence_006.c.38f9e5a5                   C:\Users\Ridwane\AppData\Local\Temp\cc2lPDId.debug.temp.o
                                                  C:\Users\Ridwane\AppData\Local\Temp\ccG6qa3f.ltrans1.ltrans.o
                                                  C:\Users\Ridwane\AppData\Local\Temp\ccG6qa3f.ltrans0.ltrans.o
rt_test_sequence_006_array                        ./build/obj/rt_test_sequence_006.o (symbol from plugin)
rt_test_sequence_007                              ./build/obj/rt_test_sequence_007.o (symbol from plugin)
                                                  ./build/obj/rt_test_root.o (symbol from plugin)
rt_test_sequence_007.c.ee1cfd11                   C:\Users\Ridwane\AppData\Local\Temp\ccWGwkOx.debug.temp.o
                                                  C:\Users\Ridwane\AppData\Local\Temp\ccG6qa3f.ltrans1.ltrans.o
                                                  C:\Users\Ridwane\AppData\Local\Temp\ccG6qa3f.ltrans0.ltrans.o
rt_test_sequence_007_array                        ./build/obj/rt_test_sequence_007.o (symbol from plugin)
rt_test_sequence_008                              ./build/obj/rt_test_sequence_008.o (symbol from plugin)
                                                  ./build/obj/rt_test_root.o (symbol from plugin)
rt_test_sequence_008.c.6c87390a                   C:\Users\Ridwane\AppData\Local\Temp\ccKuQK7R.debug.temp.o
                                                  C:\Users\Ridwane\AppData\Local\Temp\ccG6qa3f.ltrans1.ltrans.o
                                                  C:\Users\Ridwane\AppData\Local\Temp\ccG6qa3f.ltrans0.ltrans.o
rt_test_sequence_008_array                        ./build/obj/rt_test_sequence_008.o (symbol from plugin)
rt_test_sequence_009                              ./build/obj/rt_test_sequence_009.o (symbol from plugin)
                                                  ./build/obj/rt_test_root.o (symbol from plugin)
rt_test_sequence_009.c.785fef10                   C:\Users\Ridwane\AppData\Local\Temp\cccbgbmc.debug.temp.o
                                                  C:\Users\Ridwane\AppData\Local\Temp\ccG6qa3f.ltrans1.ltrans.o
                                                  C:\Users\Ridwane\AppData\Local\Temp\ccG6qa3f.ltrans0.ltrans.o
rt_test_sequence_009_array                        ./build/obj/rt_test_sequence_009.o (symbol from plugin)
rt_test_sequence_010                              ./build/obj/rt_test_sequence_010.o (symbol from plugin)
                                                  ./build/obj/rt_test_root.o (symbol from plugin)
rt_test_sequence_010.c.11e0820c                   C:\Users\Ridwane\AppData\Local\Temp\ccueKkOw.debug.temp.o
                                                  C:\Users\Ridwane\AppData\Local\Temp\ccG6qa3f.ltrans1.ltrans.o
                                                  C:\Users\Ridwane\AppData\Local\Temp\ccG6qa3f.ltrans0.ltrans.o
rt_test_sequence_010_array                        ./build/obj/rt_test_sequence_010.o (symbol from plugin)
rt_test_sequence_011                              ./build/obj/rt_test_sequence_011.o (symbol from plugin)
                                                  ./build/obj/rt_test_root.o (symbol from plugin)
rt_test_sequence_011.c.edd730b2                   C:\Users\Ridwane\AppData\Local\Temp\cco72tbR.debug.temp.o
                                                  C:\Users\Ridwane\AppData\Local\Temp\ccG6qa3f.ltrans1.ltrans.o
                                                  C:\Users\Ridwane\AppData\Local\Temp\ccG6qa3f.ltrans0.ltrans.o
rt_test_sequence_011_array                        ./build/obj/rt_test_sequence_011.o (symbol from plugin)
rt_test_sequence_012                              ./build/obj/rt_test_sequence_012.o (symbol from plugin)
                                                  ./build/obj/rt_test_root.o (symbol from plugin)
rt_test_sequence_012.c.9d2b9584                   C:\Users\Ridwane\AppData\Local\Temp\ccE7nHBa.debug.temp.o
                                                  C:\Users\Ridwane\AppData\Local\Temp\ccG6qa3f.ltrans1.ltrans.o
                                                  C:\Users\Ridwane\AppData\Local\Temp\ccG6qa3f.ltrans0.ltrans.o
rt_test_sequence_012_array                        ./build/obj/rt_test_sequence_012.o (symbol from plugin)
rt_test_suite                                     ./build/obj/rt_test_root.o (symbol from plugin)
                                                  ./build/obj/main.o (symbol from plugin)
rt_test_suite_array                               ./build/obj/rt_test_root.o (symbol from plugin)
sdControl                                         ./build/obj/hal_serial.o (symbol from plugin)
sdGetWouldBlock                                   ./build/obj/hal_serial.o (symbol from plugin)
sdIncomingDataI                                   ./build/obj/hal_serial.o (symbol from plugin)
                                                  ./build/obj/hal_serial_lld.o (symbol from plugin)
sdInit                                            ./build/obj/hal_serial.o (symbol from plugin)
                                                  ./build/obj/hal.o (symbol from plugin)
sdObjectInit                                      ./build/obj/hal_serial.o (symbol from plugin)
                                                  ./build/obj/hal_serial_lld.o (symbol from plugin)
sdPutWouldBlock                                   ./build/obj/hal_serial.o (symbol from plugin)
sdRequestDataI                                    ./build/obj/hal_serial.o (symbol from plugin)
sdStart                                           ./build/obj/hal_serial.o (symbol from plugin)
                                                  ./build/obj/main.o (symbol from plugin)
sdStop                                            ./build/obj/hal_serial.o (symbol from plugin)
sd_lld_init                                       ./build/obj/hal_serial_lld.o (symbol from plugin)
                                                  ./build/obj/hal_serial.o (symbol from plugin)
sd_lld_serve_interrupt                            ./build/obj/hal_serial_lld.o (symbol from plugin)
                                                  ./build/obj/stm32_isr.o (symbol from plugin)
sd_lld_start                                      ./build/obj/hal_serial_lld.o (symbol from plugin)
                                                  ./build/obj/hal_serial.o (symbol from plugin)
sd_lld_stop                                       ./build/obj/hal_serial_lld.o (symbol from plugin)
                                                  ./build/obj/hal_serial.o (symbol from plugin)
sem1.lto_priv.0                                   C:\Users\Ridwane\AppData\Local\Temp\ccG6qa3f.ltrans0.ltrans.o
                                                  C:\Users\Ridwane\AppData\Local\Temp\ccG6qa3f.ltrans1.ltrans.o
sign.c.4f84f70a                                   C:\Users\Ridwane\AppData\Local\Temp\ccUTgELy.debug.temp.o
                                                  C:\Users\Ridwane\AppData\Local\Temp\ccG6qa3f.ltrans1.ltrans.o
signal                                            c:/chibistudio/tools/gnu tools arm embedded/11.3 2022.08/bin/../lib/gcc/arm-none-eabi/11.3.1/thumb/v7e-m/nofp\libg_nano.a(libc_a-signal.o)
srand                                             c:/chibistudio/tools/gnu tools arm embedded/11.3 2022.08/bin/../lib/gcc/arm-none-eabi/11.3.1/thumb/v7e-m/nofp\libg_nano.a(libc_a-rand.o)
stGetAlarm                                        ./build/obj/hal_st.o (symbol from plugin)
stGetCounter                                      ./build/obj/hal_st.o (symbol from plugin)
                                                  ./build/obj/rt_test_sequence_012.o (symbol from plugin)
                                                  ./build/obj/rt_test_sequence_006.o (symbol from plugin)
                                                  ./build/obj/rt_test_sequence_005.o (symbol from plugin)
                                                  ./build/obj/rt_test_sequence_004.o (symbol from plugin)
                                                  ./build/obj/rt_test_sequence_003.o (symbol from plugin)
                                                  ./build/obj/rt_test_root.o (symbol from plugin)
                                                  ./build/obj/ch_test.o (symbol from plugin)
                                                  ./build/obj/chthreads.o (symbol from plugin)
                                                  ./build/obj/chinstances.o (symbol from plugin)
                                                  ./build/obj/chvt.o (symbol from plugin)
stInit                                            ./build/obj/hal_st.o (symbol from plugin)
                                                  ./build/obj/hal.o (symbol from plugin)
stIsAlarmActive                                   ./build/obj/hal_st.o (symbol from plugin)
stSetAlarm                                        ./build/obj/hal_st.o (symbol from plugin)
                                                  ./build/obj/chvt.o (symbol from plugin)
stStartAlarm                                      ./build/obj/hal_st.o (symbol from plugin)
                                                  ./build/obj/chvt.o (symbol from plugin)
stStopAlarm                                       ./build/obj/hal_st.o (symbol from plugin)
                                                  ./build/obj/chvt.o (symbol from plugin)
st_lld_init                                       ./build/obj/hal_st_lld.o (symbol from plugin)
                                                  ./build/obj/hal_st.o (symbol from plugin)
st_lld_serve_interrupt                            ./build/obj/hal_st_lld.o (symbol from plugin)
                                                  ./build/obj/stm32_isr.o (symbol from plugin)
stm32_clock_init                                  ./build/obj/hal_lld.o (symbol from plugin)
                                                  ./build/obj/board.o (symbol from plugin)
stm32_dma.c.bc2e4c44                              C:\Users\Ridwane\AppData\Local\Temp\ccclW6Em.debug.temp.o
stm32_exti.c.d6798da0                             C:\Users\Ridwane\AppData\Local\Temp\ccoPLnpF.debug.temp.o
stm32_isr.c.0c0b6884                              C:\Users\Ridwane\AppData\Local\Temp\ccuIcoUs.debug.temp.o
                                                  C:\Users\Ridwane\AppData\Local\Temp\ccG6qa3f.ltrans1.ltrans.o
                                                  C:\Users\Ridwane\AppData\Local\Temp\ccG6qa3f.ltrans0.ltrans.o
strcmp                                            c:/chibistudio/tools/gnu tools arm embedded/11.3 2022.08/bin/../lib/gcc/arm-none-eabi/11.3.1/thumb/v7e-m/nofp\libg_nano.a(libc_a-strcmp.o)
                                                  C:\Users\Ridwane\AppData\Local\Temp\ccG6qa3f.ltrans1.ltrans.o
strncmp                                           c:/chibistudio/tools/gnu tools arm embedded/11.3 2022.08/bin/../lib/gcc/arm-none-eabi/11.3.1/thumb/v7e-m/nofp\libg_nano.a(libc_a-strncmp.o)
                                                  C:\Users\Ridwane\AppData\Local\Temp\ccG6qa3f.ltrans0.ltrans.o
syscalls.c.a8eec054                               C:\Users\Ridwane\AppData\Local\Temp\ccKOTAWD.debug.temp.o
                                                  C:\Users\Ridwane\AppData\Local\Temp\ccG6qa3f.ltrans1.ltrans.o
test_buffer                                       ./build/obj/rt_test_root.o (symbol from plugin)
                                                  ./build/obj/rt_test_sequence_011.o (symbol from plugin)
test_emit_token                                   ./build/obj/ch_test.o (symbol from plugin)
                                                  ./build/obj/oslib_test_sequence_006.o (symbol from plugin)
                                                  ./build/obj/oslib_test_sequence_005.o (symbol from plugin)
                                                  ./build/obj/oslib_test_sequence_004.o (symbol from plugin)
                                                  ./build/obj/oslib_test_sequence_002.o (symbol from plugin)
                                                  ./build/obj/rt_test_sequence_011.o (symbol from plugin)
                                                  ./build/obj/rt_test_sequence_010.o (symbol from plugin)
                                                  ./build/obj/rt_test_sequence_009.o (symbol from plugin)
                                                  ./build/obj/rt_test_sequence_008.o (symbol from plugin)
                                                  ./build/obj/rt_test_sequence_007.o (symbol from plugin)
                                                  ./build/obj/rt_test_sequence_006.o (symbol from plugin)
                                                  ./build/obj/rt_test_sequence_005.o (symbol from plugin)
test_execute_putchar                              ./build/obj/ch_test.o (symbol from plugin)
test_execute_stream                               ./build/obj/ch_test.o (symbol from plugin)
                                                  ./build/obj/main.o (symbol from plugin)
test_heap.lto_priv.0                              C:\Users\Ridwane\AppData\Local\Temp\ccG6qa3f.ltrans0.ltrans.o
                                                  C:\Users\Ridwane\AppData\Local\Temp\ccG6qa3f.ltrans1.ltrans.o
test_printf                                       C:\Users\Ridwane\AppData\Local\Temp\ccG6qa3f.ltrans0.ltrans.o
                                                  ./build/obj/ch_test_printf.o (symbol from plugin)
                                                  C:\Users\Ridwane\AppData\Local\Temp\ccG6qa3f.ltrans1.ltrans.o
                                                  ./build/obj/oslib_test_sequence_001.o (symbol from plugin)
                                                  ./build/obj/rt_test_sequence_012.o (symbol from plugin)
                                                  ./build/obj/rt_test_sequence_001.o (symbol from plugin)
                                                  ./build/obj/ch_test.o (symbol from plugin)
test_putchar                                      ./build/obj/ch_test_printf.o (symbol from plugin)
                                                  ./build/obj/ch_test.o (symbol from plugin)
test_stream_putchar.lto_priv.0                    C:\Users\Ridwane\AppData\Local\Temp\ccG6qa3f.ltrans0.ltrans.o
                                                  C:\Users\Ridwane\AppData\Local\Temp\ccG6qa3f.ltrans1.ltrans.o
test_terminate_threads                            ./build/obj/rt_test_root.o (symbol from plugin)
                                                  ./build/obj/rt_test_sequence_012.o (symbol from plugin)
test_vprintf                                      ./build/obj/ch_test_printf.o (symbol from plugin)
test_wait_threads                                 ./build/obj/rt_test_root.o (symbol from plugin)
                                                  ./build/obj/rt_test_sequence_012.o (symbol from plugin)
                                                  ./build/obj/rt_test_sequence_011.o (symbol from plugin)
                                                  ./build/obj/rt_test_sequence_010.o (symbol from plugin)
                                                  ./build/obj/rt_test_sequence_009.o (symbol from plugin)
                                                  ./build/obj/rt_test_sequence_008.o (symbol from plugin)
                                                  ./build/obj/rt_test_sequence_007.o (symbol from plugin)
                                                  ./build/obj/rt_test_sequence_006.o (symbol from plugin)
                                                  ./build/obj/rt_test_sequence_005.o (symbol from plugin)
test_wait_tick                                    ./build/obj/rt_test_root.o (symbol from plugin)
                                                  ./build/obj/rt_test_sequence_012.o (symbol from plugin)
                                                  ./build/obj/rt_test_sequence_010.o (symbol from plugin)
                                                  ./build/obj/rt_test_sequence_007.o (symbol from plugin)
                                                  ./build/obj/rt_test_sequence_004.o (symbol from plugin)
threads                                           ./build/obj/rt_test_root.o (symbol from plugin)
                                                  ./build/obj/rt_test_sequence_012.o (symbol from plugin)
                                                  ./build/obj/rt_test_sequence_011.o (symbol from plugin)
                                                  ./build/obj/rt_test_sequence_010.o (symbol from plugin)
                                                  ./build/obj/rt_test_sequence_009.o (symbol from plugin)
                                                  ./build/obj/rt_test_sequence_008.o (symbol from plugin)
                                                  ./build/obj/rt_test_sequence_007.o (symbol from plugin)
                                                  ./build/obj/rt_test_sequence_006.o (symbol from plugin)
                                                  ./build/obj/rt_test_sequence_005.o (symbol from plugin)
usart_init.lto_priv.0                             C:\Users\Ridwane\AppData\Local\Temp\ccG6qa3f.ltrans0.ltrans.o
                                                  C:\Users\Ridwane\AppData\Local\Temp\ccG6qa3f.ltrans1.ltrans.o
vfiprintf                                         c:/chibistudio/tools/gnu tools arm embedded/11.3 2022.08/bin/../lib/gcc/arm-none-eabi/11.3.1/thumb/v7e-m/nofp\libg_nano.a(libc_a-nano-vfprintf.o)
vfprintf                                          c:/chibistudio/tools/gnu tools arm embedded/11.3 2022.08/bin/../lib/gcc/arm-none-eabi/11.3.1/thumb/v7e-m/nofp\libg_nano.a(libc_a-nano-vfprintf.o)
vt_enqueue.constprop.0                            C:\Users\Ridwane\AppData\Local\Temp\ccG6qa3f.ltrans1.ltrans.o
                                                  C:\Users\Ridwane\AppData\Local\Temp\ccG6qa3f.ltrans0.ltrans.o
vt_insert_first.constprop.0                       C:\Users\Ridwane\AppData\Local\Temp\ccG6qa3f.ltrans1.ltrans.o
                                                  C:\Users\Ridwane\AppData\Local\Temp\ccG6qa3f.ltrans0.ltrans.o
wa                                                ./build/obj/rt_test_root.o (symbol from plugin)
                                                  ./build/obj/rt_test_sequence_012.o (symbol from plugin)
                                                  ./build/obj/rt_test_sequence_011.o (symbol from plugin)
                                                  ./build/obj/rt_test_sequence_010.o (symbol from plugin)
                                                  ./build/obj/rt_test_sequence_009.o (symbol from plugin)
                                                  ./build/obj/rt_test_sequence_008.o (symbol from plugin)
                                                  ./build/obj/rt_test_sequence_007.o (symbol from plugin)
                                                  ./build/obj/rt_test_sequence_006.o (symbol from plugin)
                                                  ./build/obj/rt_test_sequence_005.o (symbol from plugin)
